
IOUFirmware.elf:     file format elf32-avr

Sections:
Idx Name          Size      VMA       LMA       File off  Algn
  0 .data         000009ca  00800100  00006310  000063a4  2**0
                  CONTENTS, ALLOC, LOAD, DATA
  1 .text         00006310  00000000  00000000  00000094  2**1
                  CONTENTS, ALLOC, LOAD, READONLY, CODE
  2 .bss          0000033c  00800aca  00800aca  00006d6e  2**0
                  ALLOC
  3 .comment      0000005c  00000000  00000000  00006d6e  2**0
                  CONTENTS, READONLY
  4 .note.gnu.avr.deviceinfo 0000003c  00000000  00000000  00006dcc  2**2
                  CONTENTS, READONLY
  5 .debug_aranges 000009a8  00000000  00000000  00006e08  2**0
                  CONTENTS, READONLY, DEBUGGING
  6 .debug_info   00009b2c  00000000  00000000  000077b0  2**0
                  CONTENTS, READONLY, DEBUGGING
  7 .debug_abbrev 00002b52  00000000  00000000  000112dc  2**0
                  CONTENTS, READONLY, DEBUGGING
  8 .debug_line   00008f5a  00000000  00000000  00013e2e  2**0
                  CONTENTS, READONLY, DEBUGGING
  9 .debug_frame  00001a20  00000000  00000000  0001cd88  2**2
                  CONTENTS, READONLY, DEBUGGING
 10 .debug_str    0000e00a  00000000  00000000  0001e7a8  2**0
                  CONTENTS, READONLY, DEBUGGING
 11 .debug_loc    00006aa3  00000000  00000000  0002c7b2  2**0
                  CONTENTS, READONLY, DEBUGGING
 12 .debug_ranges 00000828  00000000  00000000  00033255  2**0
                  CONTENTS, READONLY, DEBUGGING
 13 .debug_macro  00006160  00000000  00000000  00033a7d  2**0
                  CONTENTS, READONLY, DEBUGGING

Disassembly of section .text:

00000000 <__vectors>:
       0:	0c 94 85 09 	jmp	0x130a	; 0x130a <__ctors_end>
       4:	0c 94 a2 09 	jmp	0x1344	; 0x1344 <__bad_interrupt>
       8:	0c 94 a2 09 	jmp	0x1344	; 0x1344 <__bad_interrupt>
       c:	0c 94 a2 09 	jmp	0x1344	; 0x1344 <__bad_interrupt>
      10:	0c 94 a2 09 	jmp	0x1344	; 0x1344 <__bad_interrupt>
      14:	0c 94 a2 09 	jmp	0x1344	; 0x1344 <__bad_interrupt>
      18:	0c 94 a2 09 	jmp	0x1344	; 0x1344 <__bad_interrupt>
      1c:	0c 94 a2 09 	jmp	0x1344	; 0x1344 <__bad_interrupt>
      20:	0c 94 a2 09 	jmp	0x1344	; 0x1344 <__bad_interrupt>
      24:	0c 94 a2 09 	jmp	0x1344	; 0x1344 <__bad_interrupt>
      28:	0c 94 a2 09 	jmp	0x1344	; 0x1344 <__bad_interrupt>
      2c:	0c 94 a2 09 	jmp	0x1344	; 0x1344 <__bad_interrupt>
      30:	0c 94 a2 09 	jmp	0x1344	; 0x1344 <__bad_interrupt>
      34:	0c 94 a2 09 	jmp	0x1344	; 0x1344 <__bad_interrupt>
      38:	0c 94 a2 09 	jmp	0x1344	; 0x1344 <__bad_interrupt>
      3c:	0c 94 7c 27 	jmp	0x4ef8	; 0x4ef8 <__vector_15>
      40:	0c 94 a2 09 	jmp	0x1344	; 0x1344 <__bad_interrupt>
      44:	0c 94 a2 09 	jmp	0x1344	; 0x1344 <__bad_interrupt>
      48:	0c 94 05 1b 	jmp	0x360a	; 0x360a <__vector_18>
      4c:	0c 94 49 1b 	jmp	0x3692	; 0x3692 <__vector_19>
      50:	0c 94 a2 09 	jmp	0x1344	; 0x1344 <__bad_interrupt>
      54:	0c 94 a2 09 	jmp	0x1344	; 0x1344 <__bad_interrupt>
      58:	0c 94 a2 09 	jmp	0x1344	; 0x1344 <__bad_interrupt>
      5c:	0c 94 a2 09 	jmp	0x1344	; 0x1344 <__bad_interrupt>
      60:	0c 94 a2 09 	jmp	0x1344	; 0x1344 <__bad_interrupt>
      64:	0c 94 a2 09 	jmp	0x1344	; 0x1344 <__bad_interrupt>
      68:	0c 94 a2 09 	jmp	0x1344	; 0x1344 <__bad_interrupt>
      6c:	0c 94 a2 09 	jmp	0x1344	; 0x1344 <__bad_interrupt>
      70:	0c 94 a2 09 	jmp	0x1344	; 0x1344 <__bad_interrupt>
      74:	0c 94 a2 09 	jmp	0x1344	; 0x1344 <__bad_interrupt>
      78:	0c 94 7c 1b 	jmp	0x36f8	; 0x36f8 <__vector_30>
      7c:	0c 94 c3 1b 	jmp	0x3786	; 0x3786 <__vector_31>
      80:	0c 94 a2 09 	jmp	0x1344	; 0x1344 <__bad_interrupt>
      84:	0c 94 e7 18 	jmp	0x31ce	; 0x31ce <__vector_33>
      88:	0c 94 a2 09 	jmp	0x1344	; 0x1344 <__bad_interrupt>
      8c:	1c 13       	cpse	r17, r28
      8e:	1f 13       	cpse	r17, r31
      90:	22 13       	cpse	r18, r18
      92:	25 13       	cpse	r18, r21
      94:	28 13       	cpse	r18, r24
      96:	2b 13       	cpse	r18, r27
      98:	2e 13       	cpse	r18, r30
      9a:	31 13       	cpse	r19, r17
      9c:	34 13       	cpse	r19, r20
      9e:	4b 13       	cpse	r20, r27
      a0:	4b 13       	cpse	r20, r27
      a2:	4b 13       	cpse	r20, r27
      a4:	37 13       	cpse	r19, r23
      a6:	3a 13       	cpse	r19, r26
      a8:	3d 13       	cpse	r19, r29
      aa:	40 13       	cpse	r20, r16
      ac:	43 13       	cpse	r20, r19
      ae:	46 13       	cpse	r20, r22
      b0:	49 13       	cpse	r20, r25
      b2:	f3 19       	sub	r31, r3
      b4:	f7 19       	sub	r31, r7
      b6:	f7 19       	sub	r31, r7
      b8:	f7 19       	sub	r31, r7
      ba:	f7 19       	sub	r31, r7
      bc:	f7 19       	sub	r31, r7
      be:	f7 19       	sub	r31, r7
      c0:	f7 19       	sub	r31, r7
      c2:	07 19       	sub	r16, r7
      c4:	f7 19       	sub	r31, r7
      c6:	f7 19       	sub	r31, r7
      c8:	f7 19       	sub	r31, r7
      ca:	f7 19       	sub	r31, r7
      cc:	f7 19       	sub	r31, r7
      ce:	f7 19       	sub	r31, r7
      d0:	f7 19       	sub	r31, r7
      d2:	07 19       	sub	r16, r7
      d4:	f7 19       	sub	r31, r7
      d6:	f7 19       	sub	r31, r7
      d8:	f7 19       	sub	r31, r7
      da:	f7 19       	sub	r31, r7
      dc:	f7 19       	sub	r31, r7
      de:	f7 19       	sub	r31, r7
      e0:	f7 19       	sub	r31, r7
      e2:	0f 19       	sub	r16, r15
      e4:	f7 19       	sub	r31, r7
      e6:	f7 19       	sub	r31, r7
      e8:	f7 19       	sub	r31, r7
      ea:	f7 19       	sub	r31, r7
      ec:	f7 19       	sub	r31, r7
      ee:	f7 19       	sub	r31, r7
      f0:	f7 19       	sub	r31, r7
      f2:	35 19       	sub	r19, r5
      f4:	f7 19       	sub	r31, r7
      f6:	f7 19       	sub	r31, r7
      f8:	f7 19       	sub	r31, r7
      fa:	f7 19       	sub	r31, r7
      fc:	f7 19       	sub	r31, r7
      fe:	f7 19       	sub	r31, r7
     100:	f7 19       	sub	r31, r7
     102:	0f 19       	sub	r16, r15
     104:	f7 19       	sub	r31, r7
     106:	f7 19       	sub	r31, r7
     108:	f7 19       	sub	r31, r7
     10a:	f7 19       	sub	r31, r7
     10c:	f7 19       	sub	r31, r7
     10e:	f7 19       	sub	r31, r7
     110:	f7 19       	sub	r31, r7
     112:	3b 19       	sub	r19, r11
     114:	f7 19       	sub	r31, r7
     116:	f7 19       	sub	r31, r7
     118:	f7 19       	sub	r31, r7
     11a:	f7 19       	sub	r31, r7
     11c:	f7 19       	sub	r31, r7
     11e:	f7 19       	sub	r31, r7
     120:	f7 19       	sub	r31, r7
     122:	41 19       	sub	r20, r1
     124:	f7 19       	sub	r31, r7
     126:	f7 19       	sub	r31, r7
     128:	f7 19       	sub	r31, r7
     12a:	f7 19       	sub	r31, r7
     12c:	f7 19       	sub	r31, r7
     12e:	f7 19       	sub	r31, r7
     130:	f7 19       	sub	r31, r7
     132:	53 19       	sub	r21, r3
     134:	f7 19       	sub	r31, r7
     136:	f7 19       	sub	r31, r7
     138:	f7 19       	sub	r31, r7
     13a:	f7 19       	sub	r31, r7
     13c:	f7 19       	sub	r31, r7
     13e:	f7 19       	sub	r31, r7
     140:	f7 19       	sub	r31, r7
     142:	7d 19       	sub	r23, r13
     144:	f7 19       	sub	r31, r7
     146:	f7 19       	sub	r31, r7
     148:	f7 19       	sub	r31, r7
     14a:	f7 19       	sub	r31, r7
     14c:	f7 19       	sub	r31, r7
     14e:	f7 19       	sub	r31, r7
     150:	f7 19       	sub	r31, r7
     152:	47 19       	sub	r20, r7
     154:	f7 19       	sub	r31, r7
     156:	f7 19       	sub	r31, r7
     158:	f7 19       	sub	r31, r7
     15a:	f7 19       	sub	r31, r7
     15c:	f7 19       	sub	r31, r7
     15e:	f7 19       	sub	r31, r7
     160:	f7 19       	sub	r31, r7
     162:	61 19       	sub	r22, r1
     164:	f7 19       	sub	r31, r7
     166:	f7 19       	sub	r31, r7
     168:	f7 19       	sub	r31, r7
     16a:	f7 19       	sub	r31, r7
     16c:	f7 19       	sub	r31, r7
     16e:	f7 19       	sub	r31, r7
     170:	f7 19       	sub	r31, r7
     172:	80 19       	sub	r24, r0
     174:	f7 19       	sub	r31, r7
     176:	f7 19       	sub	r31, r7
     178:	f7 19       	sub	r31, r7
     17a:	f7 19       	sub	r31, r7
     17c:	f7 19       	sub	r31, r7
     17e:	f7 19       	sub	r31, r7
     180:	f7 19       	sub	r31, r7
     182:	80 19       	sub	r24, r0
     184:	f7 19       	sub	r31, r7
     186:	f7 19       	sub	r31, r7
     188:	f7 19       	sub	r31, r7
     18a:	f7 19       	sub	r31, r7
     18c:	f7 19       	sub	r31, r7
     18e:	f7 19       	sub	r31, r7
     190:	f7 19       	sub	r31, r7
     192:	80 19       	sub	r24, r0
     194:	f7 19       	sub	r31, r7
     196:	f7 19       	sub	r31, r7
     198:	f7 19       	sub	r31, r7
     19a:	f7 19       	sub	r31, r7
     19c:	f7 19       	sub	r31, r7
     19e:	f7 19       	sub	r31, r7
     1a0:	f7 19       	sub	r31, r7
     1a2:	80 19       	sub	r24, r0
     1a4:	f7 19       	sub	r31, r7
     1a6:	f7 19       	sub	r31, r7
     1a8:	f7 19       	sub	r31, r7
     1aa:	f7 19       	sub	r31, r7
     1ac:	f7 19       	sub	r31, r7
     1ae:	f7 19       	sub	r31, r7
     1b0:	f7 19       	sub	r31, r7
     1b2:	89 19       	sub	r24, r9
     1b4:	f7 19       	sub	r31, r7
     1b6:	f7 19       	sub	r31, r7
     1b8:	f7 19       	sub	r31, r7
     1ba:	f7 19       	sub	r31, r7
     1bc:	f7 19       	sub	r31, r7
     1be:	f7 19       	sub	r31, r7
     1c0:	f7 19       	sub	r31, r7
     1c2:	ba 19       	sub	r27, r10
     1c4:	f7 19       	sub	r31, r7
     1c6:	f7 19       	sub	r31, r7
     1c8:	f7 19       	sub	r31, r7
     1ca:	f7 19       	sub	r31, r7
     1cc:	f7 19       	sub	r31, r7
     1ce:	f7 19       	sub	r31, r7
     1d0:	f7 19       	sub	r31, r7
     1d2:	89 19       	sub	r24, r9
     1d4:	f7 19       	sub	r31, r7
     1d6:	f7 19       	sub	r31, r7
     1d8:	f7 19       	sub	r31, r7
     1da:	f7 19       	sub	r31, r7
     1dc:	f7 19       	sub	r31, r7
     1de:	f7 19       	sub	r31, r7
     1e0:	f7 19       	sub	r31, r7
     1e2:	ba 19       	sub	r27, r10
     1e4:	f7 19       	sub	r31, r7
     1e6:	f7 19       	sub	r31, r7
     1e8:	f7 19       	sub	r31, r7
     1ea:	f7 19       	sub	r31, r7
     1ec:	f7 19       	sub	r31, r7
     1ee:	f7 19       	sub	r31, r7
     1f0:	f7 19       	sub	r31, r7
     1f2:	a1 19       	sub	r26, r1
     1f4:	f7 19       	sub	r31, r7
     1f6:	f7 19       	sub	r31, r7
     1f8:	f7 19       	sub	r31, r7
     1fa:	f7 19       	sub	r31, r7
     1fc:	f7 19       	sub	r31, r7
     1fe:	f7 19       	sub	r31, r7
     200:	f7 19       	sub	r31, r7
     202:	be 19       	sub	r27, r14
     204:	f7 19       	sub	r31, r7
     206:	f7 19       	sub	r31, r7
     208:	f7 19       	sub	r31, r7
     20a:	f7 19       	sub	r31, r7
     20c:	f7 19       	sub	r31, r7
     20e:	f7 19       	sub	r31, r7
     210:	f7 19       	sub	r31, r7
     212:	be 19       	sub	r27, r14
     214:	f7 19       	sub	r31, r7
     216:	f7 19       	sub	r31, r7
     218:	f7 19       	sub	r31, r7
     21a:	f7 19       	sub	r31, r7
     21c:	f7 19       	sub	r31, r7
     21e:	f7 19       	sub	r31, r7
     220:	f7 19       	sub	r31, r7
     222:	d3 19       	sub	r29, r3
     224:	f7 19       	sub	r31, r7
     226:	f7 19       	sub	r31, r7
     228:	f7 19       	sub	r31, r7
     22a:	f7 19       	sub	r31, r7
     22c:	f7 19       	sub	r31, r7
     22e:	f7 19       	sub	r31, r7
     230:	f7 19       	sub	r31, r7
     232:	ed 19       	sub	r30, r13
     234:	f7 19       	sub	r31, r7
     236:	f7 19       	sub	r31, r7
     238:	f7 19       	sub	r31, r7
     23a:	f7 19       	sub	r31, r7
     23c:	f7 19       	sub	r31, r7
     23e:	f7 19       	sub	r31, r7
     240:	f7 19       	sub	r31, r7
     242:	ed 19       	sub	r30, r13
     244:	26 1f       	adc	r18, r22
     246:	2b 1f       	adc	r18, r27
     248:	2b 1f       	adc	r18, r27
     24a:	2b 1f       	adc	r18, r27
     24c:	2b 1f       	adc	r18, r27
     24e:	2b 1f       	adc	r18, r27
     250:	2b 1f       	adc	r18, r27
     252:	2b 1f       	adc	r18, r27
     254:	2b 1f       	adc	r18, r27
     256:	2b 1f       	adc	r18, r27
     258:	2b 1f       	adc	r18, r27
     25a:	84 1c       	adc	r8, r4
     25c:	84 1c       	adc	r8, r4
     25e:	84 1c       	adc	r8, r4
     260:	84 1c       	adc	r8, r4
     262:	84 1c       	adc	r8, r4
     264:	84 1c       	adc	r8, r4
     266:	84 1c       	adc	r8, r4
     268:	84 1c       	adc	r8, r4
     26a:	84 1c       	adc	r8, r4
     26c:	84 1c       	adc	r8, r4
     26e:	2b 1f       	adc	r18, r27
     270:	2b 1f       	adc	r18, r27
     272:	2b 1f       	adc	r18, r27
     274:	2b 1f       	adc	r18, r27
     276:	2b 1f       	adc	r18, r27
     278:	2b 1f       	adc	r18, r27
     27a:	2b 1f       	adc	r18, r27
     27c:	2b 1f       	adc	r18, r27
     27e:	2b 1f       	adc	r18, r27
     280:	2b 1f       	adc	r18, r27
     282:	2b 1f       	adc	r18, r27
     284:	2b 1f       	adc	r18, r27
     286:	2b 1f       	adc	r18, r27
     288:	2b 1f       	adc	r18, r27
     28a:	2b 1f       	adc	r18, r27
     28c:	2b 1f       	adc	r18, r27
     28e:	2b 1f       	adc	r18, r27
     290:	2b 1f       	adc	r18, r27
     292:	2b 1f       	adc	r18, r27
     294:	2b 1f       	adc	r18, r27
     296:	2b 1f       	adc	r18, r27
     298:	2b 1f       	adc	r18, r27
     29a:	2b 1f       	adc	r18, r27
     29c:	2b 1f       	adc	r18, r27
     29e:	2b 1f       	adc	r18, r27
     2a0:	2b 1f       	adc	r18, r27
     2a2:	2b 1f       	adc	r18, r27
     2a4:	2b 1f       	adc	r18, r27
     2a6:	2b 1f       	adc	r18, r27
     2a8:	2b 1f       	adc	r18, r27
     2aa:	b6 1d       	adc	r27, r6
     2ac:	2b 1f       	adc	r18, r27
     2ae:	2b 1f       	adc	r18, r27
     2b0:	2b 1f       	adc	r18, r27
     2b2:	2b 1f       	adc	r18, r27
     2b4:	2b 1f       	adc	r18, r27
     2b6:	2b 1f       	adc	r18, r27
     2b8:	2b 1f       	adc	r18, r27
     2ba:	2b 1f       	adc	r18, r27
     2bc:	2b 1f       	adc	r18, r27
     2be:	2b 1f       	adc	r18, r27
     2c0:	c3 1c       	adc	r12, r3
     2c2:	da 1c       	adc	r13, r10
     2c4:	2b 1f       	adc	r18, r27
     2c6:	2b 1f       	adc	r18, r27
     2c8:	2b 1f       	adc	r18, r27
     2ca:	2b 1f       	adc	r18, r27
     2cc:	da 1c       	adc	r13, r10
     2ce:	2b 1f       	adc	r18, r27
     2d0:	2b 1f       	adc	r18, r27
     2d2:	2b 1f       	adc	r18, r27
     2d4:	2b 1f       	adc	r18, r27
     2d6:	2b 1f       	adc	r18, r27
     2d8:	2b 1f       	adc	r18, r27
     2da:	b6 1d       	adc	r27, r6
     2dc:	2b 1f       	adc	r18, r27
     2de:	2b 1f       	adc	r18, r27
     2e0:	19 1d       	adc	r17, r9
     2e2:	2b 1f       	adc	r18, r27
     2e4:	98 1d       	adc	r25, r8
     2e6:	2b 1f       	adc	r18, r27
     2e8:	2b 1f       	adc	r18, r27
     2ea:	b6 1d       	adc	r27, r6

000002ec <__trampolines_end>:
     2ec:	6e 61       	ori	r22, 0x1E	; 30
     2ee:	6e 00       	.word	0x006e	; ????

000002f0 <__c.2332>:
     2f0:	69 6e 66 00 00 40 7a 10 f3 5a 00 a0 72 4e 18 09     inf..@z..Z..rN..
     300:	00 10 a5 d4 e8 00 00 e8 76 48 17 00 00 e4 0b 54     ........vH.....T
     310:	02 00 00 ca 9a 3b 00 00 00 e1 f5 05 00 00 80 96     .....;..........
     320:	98 00 00 00 40 42 0f 00 00 00 a0 86 01 00 00 00     ....@B..........
     330:	10 27 00 00 00 00 e8 03 00 00 00 00 64 00 00 00     .'..........d...
     340:	00 00 0a 00 00 00 00 00 01 00 00 00 00 00 2c 76     ..............,v
     350:	d8 88 dc 67 4f 08 23 df c1 df ae 59 e1 b1 b7 96     ...gO.#....Y....
     360:	e5 e3 e4 53 c6 3a e6 51 99 76 96 e8 e6 c2 84 26     ...S.:.Q.v.....&
     370:	eb 89 8c 9b 62 ed 40 7c 6f fc ef bc 9c 9f 40 f2     ....b.@|o.....@.
     380:	ba a5 6f a5 f4 90 05 5a 2a f7 5c 93 6b 6c f9 67     ..o....Z*.\.kl.g
     390:	6d c1 1b fc e0 e4 0d 47 fe f5 20 e6 b5 00 d0 ed     m......G.. .....
     3a0:	90 2e 03 00 94 35 77 05 00 80 84 1e 08 00 00 20     .....5w........ 
     3b0:	4e 0a 00 00 00 c8 0c 33 33 33 33 0f 98 6e 12 83     N......3333..n..
     3c0:	11 41 ef 8d 21 14 89 3b e6 55 16 cf fe e6 db 18     .A..!..;.U......
     3d0:	d1 84 4b 38 1b f7 7c 1d 90 1d a4 bb e4 24 20 32     ..K8..|......$ 2
     3e0:	84 72 5e 22 81 00 c9 f1 24 ec a1 e5 3d 27           .r^"....$...='

000003ee <SPLASH>:
     3ee:	2e 2e 2e 2e 2e 2e 2e 2e 2e 2e 2e 2e 2e 2e 2e 2e     ................
     3fe:	2e 2e 2e 2e 2e 2e 2e 2e 2e 2e 2e 2e 2e 2e 2e 2e     ................
     40e:	2e 2e 2e 2e 2e 2e 2e 2e 2e 2e 2e 2e 2e 2e 2e 2e     ................
     41e:	2e 2e 2e 2e 2e 2e 2e 0d 0a 00 00 00 00 00 00 00     ................
     42e:	00 2e 2e 2e 2e 2e 2e 2e 2e 2e 2e 2e 2e 2e 2e 2e     ................
     43e:	2e 2e 2e 2e 2e 2e 2e 2e 2e 2e 2e 2e 2e 2e 2e 2e     ................
     44e:	2e 2e 2e 2e 2e 2e 2e 2e 2e 2e 2e 2e 2e 2e 2e 2e     ................
     45e:	2e 2e 2e 2e 2e 2e 2e 2e 0d 0a 00 00 00 00 00 00     ................
     46e:	00 00 2e 2e 20 20 20 20 20 20 20 20 20 20 20 20     ....            
     47e:	20 20 20 20 20 20 20 20 20 20 20 20 20 20 20 20                     
     48e:	20 20 20 20 20 20 20 20 20 20 20 20 20 20 20 20                     
     49e:	20 20 20 20 20 20 20 2e 2e 0d 0a 00 00 00 00 00            .........
     4ae:	00 00 00 2e 2e 20 20 20 20 20 20 20 20 20 20 20     .....           
     4be:	20 20 20 20 20 20 20 20 20 20 20 20 20 20 20 20                     
     4ce:	20 20 20 20 20 20 20 20 20 20 20 20 20 20 20 20                     
     4de:	20 20 20 20 20 20 20 20 2e 2e 0d 0a 00 00 00 00             ........
     4ee:	00 00 00 00 2e 2e 20 20 20 20 20 20 20 20 20 20     ......          
     4fe:	20 20 20 20 5f 5f 5f 5f 5f 20 20 20 20 20 20 20         _____       
     50e:	20 20 20 20 20 20 20 20 20 20 20 20 20 20 20 20                     
     51e:	20 20 20 20 20 20 20 20 20 2e 2e 0d 0a 00 00 00              .......
     52e:	00 00 00 00 00 2e 2e 20 20 20 20 20 20 20 20 20     .......         
     53e:	20 20 20 20 2f 20 5f 5f 5f 5f 7c 20 20 20 20 20         / ____|     
     54e:	20 20 20 20 20 20 20 20 20 20 20 20 20 20 20 20                     
     55e:	20 20 20 20 20 20 20 20 20 20 2e 2e 0d 0a 00 00               ......
     56e:	00 00 00 00 00 00 2e 2e 20 20 20 20 20 20 20 20     ........        
     57e:	20 20 20 20 7c 20 28 5f 5f 5f 20 20 5f 20 5f 5f         | (___  _ __
     58e:	20 20 20 5f 5f 20 5f 20 20 5f 5f 5f 20 5f 5f 5f        __ _  ___ ___
     59e:	20 20 20 20 20 20 20 20 20 20 20 2e 2e 0d 0a 00                .....
     5ae:	00 00 00 00 00 00 00 2e 2e 20 20 20 20 20 20 20     .........       
     5be:	20 20 20 20 20 20 5c 5f 5f 5f 20 5c 7c 20 27 5f           \___ \| '_
     5ce:	20 5c 20 2f 20 5f 60 20 7c 2f 20 5f 5f 2f 20 5f      \ / _` |/ __/ _
     5de:	20 5c 20 20 20 20 20 20 20 20 20 20 2e 2e 0d 0a      \          ....
	...
     5f6:	2e 2e 20 20 20 20 20 20 20 20 20 20 20 20 20 5f     ..             _
     606:	5f 5f 5f 29 20 7c 20 7c 5f 29 20 7c 20 28 5f 7c     ___) | |_) | (_|
     616:	20 7c 20 28 5f 7c 20 20 5f 5f 2f 20 20 20 20 20      | (_|  __/     
     626:	20 20 20 20 20 2e 2e 0d 0a 00 00 00 00 00 00 00          ...........
     636:	00 2e 2e 20 20 20 20 20 20 20 20 20 20 20 20 7c     ...            |
     646:	5f 5f 5f 5f 5f 2f 7c 20 2e 5f 5f 2f 20 5c 5f 5f     _____/| .__/ \__
     656:	2c 5f 7c 5c 5f 5f 5f 5c 5f 5f 5f 7c 20 20 20 20     ,_|\___\___|    
     666:	20 20 20 20 20 20 2e 2e 0d 0a 00 00 00 00 00 00           ..........
     676:	00 00 2e 2e 20 20 20 20 20 20 20 20 20 5f 20 20     ....         _  
     686:	20 20 20 20 5f 20 5f 7c 20 7c 20 5f 5f 5f 5f 5f         _ _| | _____
     696:	5f 5f 20 20 20 20 20 20 20 20 5f 20 20 20 20 20     __        _     
     6a6:	20 20 20 20 20 20 20 2e 2e 0d 0a 00 00 00 00 00            .........
     6b6:	00 00 00 2e 2e 20 20 20 20 20 20 20 20 7c 20 7c     .....        | |
     6c6:	20 20 20 20 28 5f 7c 5f 29 5f 7c 7c 5f 5f 20 20         (_|_)_||__  
     6d6:	20 5f 5f 7c 20 20 20 20 20 20 7c 20 7c 20 20 20      __|      | |   
     6e6:	20 20 20 20 20 20 20 20 2e 2e 0d 0a 00 00 00 00             ........
     6f6:	00 00 00 00 2e 2e 20 20 20 20 20 20 20 20 7c 20     ......        | 
     706:	7c 20 20 20 20 20 5f 20 5f 20 5f 20 5f 5f 20 7c     |     _ _ _ __ |
     716:	20 7c 20 5f 5f 5f 20 20 5f 5f 5f 7c 20 7c 5f 5f      | ___  ___| |__
     726:	20 20 20 20 20 20 20 20 20 2e 2e 0d 0a 00 00 00              .......
     736:	00 00 00 00 00 2e 2e 20 20 20 20 20 20 20 20 7c     .......        |
     746:	20 7c 20 20 20 20 7c 20 7c 20 7c 20 27 5f 20 5c      |    | | | '_ \
     756:	7c 20 7c 2f 20 5f 20 5c 2f 20 5f 5f 7c 20 27 5f     | |/ _ \/ __| '_
     766:	20 5c 20 20 20 20 20 20 20 20 2e 2e 0d 0a 00 00      \        ......
     776:	00 00 00 00 00 00 2e 2e 20 20 20 20 20 20 20 20     ........        
     786:	7c 20 7c 5f 5f 5f 5f 7c 20 7c 20 7c 20 7c 20 7c     | |____| | | | |
     796:	20 7c 20 7c 20 20 5f 5f 2f 20 28 5f 5f 7c 20 7c      | |  __/ (__| |
     7a6:	20 7c 20 7c 20 20 20 20 20 20 20 2e 2e 0d 0a 00      | |       .....
     7b6:	00 00 00 00 00 00 00 2e 2e 20 20 20 20 20 20 20     .........       
     7c6:	20 7c 5f 5f 5f 5f 5f 5f 7c 5f 7c 5f 7c 5f 7c 20      |______|_|_|_| 
     7d6:	7c 5f 7c 5f 7c 5c 5f 5f 5f 7c 5c 5f 5f 5f 7c 5f     |_|_|\___|\___|_
     7e6:	7c 20 7c 5f 7c 20 20 20 20 20 20 20 2e 2e 0d 0a     | |_|       ....
	...
     7fe:	2e 2e 20 20 20 20 20 20 20 20 20 20 20 20 20 20     ..              
     80e:	20 20 20 20 20 20 20 20 20 20 20 20 20 20 20 20                     
     81e:	20 20 20 20 20 20 20 20 20 20 20 20 20 20 20 20                     
     82e:	20 20 20 20 20 2e 2e 0d 0a 00 00 00 00 00 00 00          ...........
     83e:	00 2e 2e 20 20 20 20 20 20 20 20 20 20 20 20 20     ...             
     84e:	20 20 20 20 20 20 20 20 20 20 20 20 20 20 20 20                     
     85e:	20 20 20 20 20 20 20 20 20 20 20 20 20 20 20 20                     
     86e:	20 20 20 20 20 20 2e 2e 0d 0a 00 00 00 00 00 00           ..........
     87e:	00 00 2e 2e 20 20 20 20 5f 5f 5f 5f 5f 20 5f 5f     ....    _____ __
     88e:	5f 5f 20 20 5f 20 20 20 20 5f 20 20 5f 5f 20 20     __  _    _  __  
     89e:	20 20 5f 5f 5f 5f 20 20 20 5f 5f 5f 20 20 20 5f       ____   ___   _
     8ae:	5f 5f 20 20 20 20 20 2e 2e 0d 0a 00 00 00 00 00     __     .........
     8be:	00 00 00 2e 2e 20 20 20 7c 5f 20 20 20 5f 2f 20     .....   |_   _/ 
     8ce:	5f 5f 20 5c 7c 20 7c 20 20 7c 20 7c 20 5c 20 5c     __ \| |  | | \ \
     8de:	20 20 2f 20 2f 5f 20 7c 20 2f 20 5f 20 5c 20 2f       / /_ | / _ \ /
     8ee:	20 5f 20 5c 20 20 20 20 2e 2e 0d 0a 00 00 00 00      _ \    ........
     8fe:	00 00 00 00 2e 2e 20 20 20 20 20 7c 20 7c 7c 20     ......     | || 
     90e:	7c 20 20 7c 20 7c 20 7c 20 20 7c 20 7c 20 20 5c     |  | | |  | |  \
     91e:	20 5c 2f 20 2f 20 7c 20 7c 7c 20 7c 20 7c 20 7c      \/ / | || | | |
     92e:	20 7c 20 7c 20 7c 20 20 20 2e 2e 0d 0a 00 00 00      | | |   .......
     93e:	00 00 00 00 00 2e 2e 20 20 20 20 5f 7c 20 7c 7c     .......    _| ||
     94e:	20 7c 5f 5f 7c 20 7c 20 7c 5f 5f 7c 20 7c 20 20      |__| | |__| |  
     95e:	20 5c 20 20 2f 20 20 7c 20 7c 7c 20 7c 5f 7c 20      \  /  | || |_| 
     96e:	7c 20 7c 5f 7c 20 7c 20 20 20 2e 2e 0d 0a 00 00     | |_| |   ......
     97e:	00 00 00 00 00 00 2e 2e 20 20 20 7c 5f 5f 5f 5f     ........   |____
     98e:	5f 5c 5f 5f 5f 5f 2f 20 5c 5f 5f 5f 5f 2f 20 20     _\____/ \____/  
     99e:	20 20 20 5c 2f 20 20 20 7c 5f 28 5f 29 5f 5f 5f        \/   |_(_)___
     9ae:	28 5f 29 5f 5f 5f 2f 20 20 20 20 2e 2e 0d 0a 00     (_)___/    .....
     9be:	00 00 00 00 00 00 00 2e 2e 20 20 20 20 20 20 20     .........       
     9ce:	20 20 20 20 20 20 20 20 20 20 20 20 20 20 20 20                     
     9de:	20 20 20 20 20 20 20 20 20 20 20 20 20 20 20 20                     
     9ee:	20 20 20 20 20 20 20 20 20 20 20 20 2e 2e 0d 0a                 ....
	...
     a06:	2e 2e 20 20 20 20 20 20 20 20 20 20 20 20 20 20     ..              
     a16:	20 20 20 20 20 20 20 20 20 20 20 20 20 20 20 20                     
     a26:	20 20 20 20 20 20 20 20 20 20 20 20 20 20 20 20                     
     a36:	20 20 20 20 20 2e 2e 0d 0a 00 00 00 00 00 00 00          ...........
     a46:	00 2e 2e 2e 2e 2e 2e 2e 2e 2e 2e 2e 2e 2e 2e 2e     ................
     a56:	2e 2e 2e 2e 2e 2e 2e 2e 2e 2e 2e 2e 2e 2e 2e 2e     ................
     a66:	2e 2e 2e 2e 2e 2e 2e 2e 2e 2e 2e 2e 2e 2e 2e 2e     ................
     a76:	2e 2e 2e 2e 2e 2e 2e 2e 0d 0a 00 00 00 00 00 00     ................
     a86:	00 00 2e 2e 2e 2e 2e 2e 2e 2e 2e 2e 2e 2e 2e 2e     ................
     a96:	2e 2e 2e 2e 2e 2e 2e 2e 2e 2e 2e 2e 2e 2e 2e 2e     ................
     aa6:	2e 2e 2e 2e 2e 2e 2e 2e 2e 2e 2e 2e 2e 2e 2e 2e     ................
     ab6:	2e 2e 2e 2e 2e 2e 2e 2e 2e 0d 0a 00 00 00 00 00     ................
     ac6:	00 00 00 0d 0a 00 00 00 00 00 00 00 00 00 00 00     ................
	...

00000b0a <NTC_table>:
     b0a:	15 fd 40 fd 6b fd 8b fd a4 fd b9 fd cc fd dc fd     ..@.k...........
     b1a:	ea fd f7 fd 03 fe 0e fe 19 fe 22 fe 2b fe 34 fe     ..........".+.4.
     b2a:	3c fe 43 fe 4b fe 52 fe 58 fe 5f fe 65 fe 6b fe     <.C.K.R.X._.e.k.
     b3a:	71 fe 76 fe 7c fe 81 fe 86 fe 8b fe 90 fe 94 fe     q.v.|...........
     b4a:	99 fe 9d fe a1 fe a6 fe aa fe ae fe b2 fe b6 fe     ................
     b5a:	b9 fe bd fe c1 fe c4 fe c8 fe cb fe ce fe d2 fe     ................
     b6a:	d5 fe d8 fe db fe de fe e1 fe e4 fe e7 fe ea fe     ................
     b7a:	ed fe f0 fe f3 fe f5 fe f8 fe fb fe fd fe 00 ff     ................
     b8a:	03 ff 05 ff 08 ff 0a ff 0d ff 0f ff 11 ff 14 ff     ................
     b9a:	16 ff 18 ff 1b ff 1d ff 1f ff 21 ff 24 ff 26 ff     ..........!.$.&.
     baa:	28 ff 2a ff 2c ff 2e ff 30 ff 32 ff 34 ff 37 ff     (.*.,...0.2.4.7.
     bba:	39 ff 3a ff 3c ff 3e ff 40 ff 42 ff 44 ff 46 ff     9.:.<.>.@.B.D.F.
     bca:	48 ff 4a ff 4c ff 4e ff 4f ff 51 ff 53 ff 55 ff     H.J.L.N.O.Q.S.U.
     bda:	56 ff 58 ff 5a ff 5c ff 5d ff 5f ff 61 ff 63 ff     V.X.Z.\.]._.a.c.
     bea:	64 ff 66 ff 68 ff 69 ff 6b ff 6c ff 6e ff 70 ff     d.f.h.i.k.l.n.p.
     bfa:	71 ff 73 ff 74 ff 76 ff 78 ff 79 ff 7b ff 7c ff     q.s.t.v.x.y.{.|.
     c0a:	7e ff 7f ff 81 ff 82 ff 84 ff 85 ff 87 ff 88 ff     ~...............
     c1a:	8a ff 8b ff 8c ff 8e ff 8f ff 91 ff 92 ff 94 ff     ................
     c2a:	95 ff 96 ff 98 ff 99 ff 9b ff 9c ff 9d ff 9f ff     ................
     c3a:	a0 ff a1 ff a3 ff a4 ff a5 ff a7 ff a8 ff a9 ff     ................
     c4a:	ab ff ac ff ad ff af ff b0 ff b1 ff b2 ff b4 ff     ................
     c5a:	b5 ff b6 ff b7 ff b9 ff ba ff bb ff bc ff be ff     ................
     c6a:	bf ff c0 ff c1 ff c3 ff c4 ff c5 ff c6 ff c7 ff     ................
     c7a:	c9 ff ca ff cb ff cc ff cd ff cf ff d0 ff d1 ff     ................
     c8a:	d2 ff d3 ff d4 ff d6 ff d7 ff d8 ff d9 ff da ff     ................
     c9a:	db ff dc ff de ff df ff e0 ff e1 ff e2 ff e3 ff     ................
     caa:	e4 ff e5 ff e6 ff e8 ff e9 ff ea ff eb ff ec ff     ................
     cba:	ed ff ee ff ef ff f0 ff f1 ff f2 ff f4 ff f5 ff     ................
     cca:	f6 ff f7 ff f8 ff f9 ff fa ff fb ff fc ff fd ff     ................
     cda:	fe ff ff ff 00 00 01 00 02 00 03 00 04 00 05 00     ................
     cea:	06 00 08 00 09 00 0a 00 0b 00 0c 00 0d 00 0e 00     ................
     cfa:	0f 00 10 00 11 00 12 00 13 00 14 00 15 00 16 00     ................
     d0a:	17 00 18 00 19 00 1a 00 1b 00 1c 00 1d 00 1e 00     ................
     d1a:	1f 00 20 00 21 00 22 00 23 00 24 00 24 00 25 00     .. .!.".#.$.$.%.
     d2a:	26 00 27 00 28 00 29 00 2a 00 2b 00 2c 00 2d 00     &.'.(.).*.+.,.-.
     d3a:	2e 00 2f 00 30 00 31 00 32 00 33 00 34 00 35 00     ../.0.1.2.3.4.5.
     d4a:	36 00 37 00 38 00 39 00 3a 00 3a 00 3b 00 3c 00     6.7.8.9.:.:.;.<.
     d5a:	3d 00 3e 00 3f 00 40 00 41 00 42 00 43 00 44 00     =.>.?.@.A.B.C.D.
     d6a:	45 00 46 00 47 00 48 00 48 00 49 00 4a 00 4b 00     E.F.G.H.H.I.J.K.
     d7a:	4c 00 4d 00 4e 00 4f 00 50 00 51 00 52 00 53 00     L.M.N.O.P.Q.R.S.
     d8a:	53 00 54 00 55 00 56 00 57 00 58 00 59 00 5a 00     S.T.U.V.W.X.Y.Z.
     d9a:	5b 00 5c 00 5c 00 5d 00 5e 00 5f 00 60 00 61 00     [.\.\.].^._.`.a.
     daa:	62 00 63 00 64 00 65 00 65 00 66 00 67 00 68 00     b.c.d.e.e.f.g.h.
     dba:	69 00 6a 00 6b 00 6c 00 6d 00 6d 00 6e 00 6f 00     i.j.k.l.m.m.n.o.
     dca:	70 00 71 00 72 00 73 00 74 00 75 00 75 00 76 00     p.q.r.s.t.u.u.v.
     dda:	77 00 78 00 79 00 7a 00 7b 00 7c 00 7c 00 7d 00     w.x.y.z.{.|.|.}.
     dea:	7e 00 7f 00 80 00 81 00 82 00 83 00 83 00 84 00     ~...............
     dfa:	85 00 86 00 87 00 88 00 89 00 8a 00 8a 00 8b 00     ................
     e0a:	8c 00 8d 00 8e 00 8f 00 90 00 91 00 91 00 92 00     ................
     e1a:	93 00 94 00 95 00 96 00 97 00 97 00 98 00 99 00     ................
     e2a:	9a 00 9b 00 9c 00 9d 00 9d 00 9e 00 9f 00 a0 00     ................
     e3a:	a1 00 a2 00 a3 00 a4 00 a4 00 a5 00 a6 00 a7 00     ................
     e4a:	a8 00 a9 00 aa 00 aa 00 ab 00 ac 00 ad 00 ae 00     ................
     e5a:	af 00 b0 00 b0 00 b1 00 b2 00 b3 00 b4 00 b5 00     ................
     e6a:	b6 00 b6 00 b7 00 b8 00 b9 00 ba 00 bb 00 bc 00     ................
     e7a:	bc 00 bd 00 be 00 bf 00 c0 00 c1 00 c2 00 c2 00     ................
     e8a:	c3 00 c4 00 c5 00 c6 00 c7 00 c8 00 c9 00 c9 00     ................
     e9a:	ca 00 cb 00 cc 00 cd 00 ce 00 cf 00 cf 00 d0 00     ................
     eaa:	d1 00 d2 00 d3 00 d4 00 d5 00 d5 00 d6 00 d7 00     ................
     eba:	d8 00 d9 00 da 00 db 00 db 00 dc 00 dd 00 de 00     ................
     eca:	df 00 e0 00 e1 00 e2 00 e2 00 e3 00 e4 00 e5 00     ................
     eda:	e6 00 e7 00 e8 00 e9 00 e9 00 ea 00 eb 00 ec 00     ................
     eea:	ed 00 ee 00 ef 00 ef 00 f0 00 f1 00 f2 00 f3 00     ................
     efa:	f4 00 f5 00 f6 00 f6 00 f7 00 f8 00 f9 00 fa 00     ................
     f0a:	fb 00 fc 00 fd 00 fe 00 fe 00 ff 00 00 01 01 01     ................
     f1a:	02 01 03 01 04 01 05 01 05 01 06 01 07 01 08 01     ................
     f2a:	09 01 0a 01 0b 01 0c 01 0d 01 0d 01 0e 01 0f 01     ................
     f3a:	10 01 11 01 12 01 13 01 14 01 15 01 16 01 16 01     ................
     f4a:	17 01 18 01 19 01 1a 01 1b 01 1c 01 1d 01 1e 01     ................
     f5a:	1f 01 1f 01 20 01 21 01 22 01 23 01 24 01 25 01     .... .!.".#.$.%.
     f6a:	26 01 27 01 28 01 29 01 2a 01 2a 01 2b 01 2c 01     &.'.(.).*.*.+.,.
     f7a:	2d 01 2e 01 2f 01 30 01 31 01 32 01 33 01 34 01     -.../.0.1.2.3.4.
     f8a:	35 01 36 01 36 01 37 01 38 01 39 01 3a 01 3b 01     5.6.6.7.8.9.:.;.
     f9a:	3c 01 3d 01 3e 01 3f 01 40 01 41 01 42 01 43 01     <.=.>.?.@.A.B.C.
     faa:	44 01 45 01 45 01 46 01 47 01 48 01 49 01 4a 01     D.E.E.F.G.H.I.J.
     fba:	4b 01 4c 01 4d 01 4e 01 4f 01 50 01 51 01 52 01     K.L.M.N.O.P.Q.R.
     fca:	53 01 54 01 55 01 56 01 57 01 58 01 59 01 5a 01     S.T.U.V.W.X.Y.Z.
     fda:	5b 01 5c 01 5d 01 5e 01 5f 01 60 01 61 01 62 01     [.\.].^._.`.a.b.
     fea:	63 01 64 01 65 01 66 01 67 01 68 01 69 01 6a 01     c.d.e.f.g.h.i.j.
     ffa:	6b 01 6c 01 6d 01 6e 01 6f 01 70 01 71 01 72 01     k.l.m.n.o.p.q.r.
    100a:	73 01 74 01 75 01 76 01 77 01 78 01 79 01 7a 01     s.t.u.v.w.x.y.z.
    101a:	7b 01 7c 01 7d 01 7e 01 7f 01 80 01 81 01 82 01     {.|.}.~.........
    102a:	83 01 84 01 85 01 86 01 87 01 88 01 89 01 8a 01     ................
    103a:	8c 01 8d 01 8e 01 8f 01 90 01 91 01 92 01 93 01     ................
    104a:	94 01 95 01 96 01 97 01 98 01 99 01 9b 01 9c 01     ................
    105a:	9d 01 9e 01 9f 01 a0 01 a1 01 a2 01 a3 01 a5 01     ................
    106a:	a6 01 a7 01 a8 01 a9 01 aa 01 ab 01 ac 01 ae 01     ................
    107a:	af 01 b0 01 b1 01 b2 01 b3 01 b4 01 b6 01 b7 01     ................
    108a:	b8 01 b9 01 ba 01 bb 01 bc 01 be 01 bf 01 c0 01     ................
    109a:	c1 01 c2 01 c4 01 c5 01 c6 01 c7 01 c8 01 ca 01     ................
    10aa:	cb 01 cc 01 cd 01 ce 01 d0 01 d1 01 d2 01 d3 01     ................
    10ba:	d5 01 d6 01 d7 01 d8 01 d9 01 db 01 dc 01 dd 01     ................
    10ca:	df 01 e0 01 e1 01 e2 01 e4 01 e5 01 e6 01 e7 01     ................
    10da:	e9 01 ea 01 eb 01 ed 01 ee 01 ef 01 f1 01 f2 01     ................
    10ea:	f3 01 f5 01 f6 01 f7 01 f9 01 fa 01 fb 01 fd 01     ................
    10fa:	fe 01 ff 01 01 02 02 02 03 02 05 02 06 02 08 02     ................
    110a:	09 02 0a 02 0c 02 0d 02 0f 02 10 02 11 02 13 02     ................
    111a:	14 02 16 02 17 02 19 02 1a 02 1c 02 1d 02 1f 02     ................
    112a:	20 02 22 02 23 02 24 02 26 02 28 02 29 02 2b 02      .".#.$.&.(.).+.
    113a:	2c 02 2e 02 2f 02 31 02 32 02 34 02 35 02 37 02     ,.../.1.2.4.5.7.
    114a:	39 02 3a 02 3c 02 3d 02 3f 02 40 02 42 02 44 02     9.:.<.=.?.@.B.D.
    115a:	45 02 47 02 49 02 4a 02 4c 02 4e 02 4f 02 51 02     E.G.I.J.L.N.O.Q.
    116a:	53 02 54 02 56 02 58 02 5a 02 5b 02 5d 02 5f 02     S.T.V.X.Z.[.]._.
    117a:	61 02 62 02 64 02 66 02 68 02 69 02 6b 02 6d 02     a.b.d.f.h.i.k.m.
    118a:	6f 02 71 02 73 02 74 02 76 02 78 02 7a 02 7c 02     o.q.s.t.v.x.z.|.
    119a:	7e 02 80 02 82 02 84 02 86 02 88 02 8a 02 8c 02     ~...............
    11aa:	8e 02 90 02 92 02 94 02 96 02 98 02 9a 02 9c 02     ................
    11ba:	9e 02 a0 02 a2 02 a4 02 a6 02 a9 02 ab 02 ad 02     ................
    11ca:	af 02 b1 02 b4 02 b6 02 b8 02 ba 02 bd 02 bf 02     ................
    11da:	c1 02 c3 02 c6 02 c8 02 cb 02 cd 02 cf 02 d2 02     ................
    11ea:	d4 02 d7 02 d9 02 dc 02 de 02 e1 02 e3 02 e6 02     ................
    11fa:	e9 02 eb 02 ee 02 f0 02 f3 02 f6 02 f9 02 fb 02     ................
    120a:	fe 02 01 03 04 03 07 03 09 03 0c 03 0f 03 12 03     ................
    121a:	15 03 18 03 1b 03 1e 03 21 03 24 03 28 03 2b 03     ........!.$.(.+.
    122a:	2e 03 31 03 34 03 38 03 3b 03 3e 03 42 03 45 03     ..1.4.8.;.>.B.E.
    123a:	49 03 4c 03 50 03 53 03 57 03 5b 03 5e 03 62 03     I.L.P.S.W.[.^.b.
    124a:	66 03 6a 03 6e 03 71 03 75 03 79 03 7e 03 82 03     f.j.n.q.u.y.~...
    125a:	86 03 8a 03 8e 03 93 03 97 03 9c 03 a0 03 a5 03     ................
    126a:	a9 03 ae 03 b3 03 b8 03 bc 03 c1 03 c7 03 cc 03     ................
    127a:	d1 03 d6 03 dc 03 e1 03 e7 03 ec 03 f2 03 f8 03     ................
    128a:	fe 03 04 04 0a 04 11 04 17 04 1e 04 24 04 2b 04     ............$.+.
    129a:	32 04 39 04 40 04 48 04 50 04 57 04 5f 04 67 04     2.9.@.H.P.W._.g.
    12aa:	70 04 78 04 81 04 8a 04 93 04 9d 04 a7 04 b1 04     p.x.............
    12ba:	bb 04 c6 04 d1 04 dc 04 e8 04 f4 04 00 05 0d 05     ................
    12ca:	1b 05 29 05 37 05 46 05 56 05 67 05 78 05 8a 05     ..).7.F.V.g.x...
    12da:	9d 05 b1 05 c7 05 dd 05 f5 05 0e 06 2a 06 47 06     ............*.G.
    12ea:	66 06 88 06 ad 06 d6 06 03 07 36 07 6f 07 b1 07     f.........6.o...
    12fa:	fd 07 58 08 c9 08 5a 09 21 0a 56 0b c1 0d 2c 10     ..X...Z.!.V...,.

0000130a <__ctors_end>:
    130a:	11 24       	eor	r1, r1
    130c:	1f be       	out	0x3f, r1	; 63
    130e:	cf ef       	ldi	r28, 0xFF	; 255
    1310:	d0 e1       	ldi	r29, 0x10	; 16
    1312:	de bf       	out	0x3e, r29	; 62
    1314:	cd bf       	out	0x3d, r28	; 61

00001316 <__do_copy_data>:
    1316:	1a e0       	ldi	r17, 0x0A	; 10
    1318:	a0 e0       	ldi	r26, 0x00	; 0
    131a:	b1 e0       	ldi	r27, 0x01	; 1
    131c:	e0 e1       	ldi	r30, 0x10	; 16
    131e:	f3 e6       	ldi	r31, 0x63	; 99
    1320:	02 c0       	rjmp	.+4      	; 0x1326 <__do_copy_data+0x10>
    1322:	05 90       	lpm	r0, Z+
    1324:	0d 92       	st	X+, r0
    1326:	aa 3c       	cpi	r26, 0xCA	; 202
    1328:	b1 07       	cpc	r27, r17
    132a:	d9 f7       	brne	.-10     	; 0x1322 <__do_copy_data+0xc>

0000132c <__do_clear_bss>:
    132c:	2e e0       	ldi	r18, 0x0E	; 14
    132e:	aa ec       	ldi	r26, 0xCA	; 202
    1330:	ba e0       	ldi	r27, 0x0A	; 10
    1332:	01 c0       	rjmp	.+2      	; 0x1336 <.do_clear_bss_start>

00001334 <.do_clear_bss_loop>:
    1334:	1d 92       	st	X+, r1

00001336 <.do_clear_bss_start>:
    1336:	a6 30       	cpi	r26, 0x06	; 6
    1338:	b2 07       	cpc	r27, r18
    133a:	e1 f7       	brne	.-8      	; 0x1334 <.do_clear_bss_loop>
    133c:	0e 94 21 14 	call	0x2842	; 0x2842 <main>
    1340:	0c 94 86 31 	jmp	0x630c	; 0x630c <_exit>

00001344 <__bad_interrupt>:
    1344:	0c 94 00 00 	jmp	0	; 0x0 <__vectors>

00001348 <accel_gyro_update>:
Accel_Gyro_DataTypedef Accel_Status;
Accel_Gyro_DataTypedef Gyro_Status;

void accel_gyro_update(void)
{
	read_accel(&Accel_Status);
    1348:	88 e2       	ldi	r24, 0x28	; 40
    134a:	9c e0       	ldi	r25, 0x0C	; 12
    134c:	0e 94 7f 23 	call	0x46fe	; 0x46fe <read_accel>
	read_gyro(&Gyro_Status);
    1350:	82 e2       	ldi	r24, 0x22	; 34
    1352:	9c e0       	ldi	r25, 0x0C	; 12
    1354:	0e 94 e2 23 	call	0x47c4	; 0x47c4 <read_gyro>
    1358:	08 95       	ret

0000135a <Accel_and_Gyro_init>:
}

bool Accel_and_Gyro_init(void)
{
    135a:	cf 93       	push	r28
	if (!lsm6dsox_init())
    135c:	0e 94 6e 23 	call	0x46dc	; 0x46dc <lsm6dsox_init>
    1360:	c8 2f       	mov	r28, r24
    1362:	81 11       	cpse	r24, r1
    1364:	04 c0       	rjmp	.+8      	; 0x136e <Accel_and_Gyro_init+0x14>
	{
		usart0_send_string("LSM6DSOX is unavailble \r\n> ");
    1366:	8f ee       	ldi	r24, 0xEF	; 239
    1368:	91 e0       	ldi	r25, 0x01	; 1
    136a:	0e 94 71 1a 	call	0x34e2	; 0x34e2 <usart0_send_string>
		return false;
	}
	return true;
}
    136e:	8c 2f       	mov	r24, r28
    1370:	cf 91       	pop	r28
    1372:	08 95       	ret

00001374 <Accel_and_Gyro_create_task>:

void Accel_and_Gyro_create_task(void)
{
	SCH_TASK_CreateTask(&s_accel_gyro_task_context.taskHandle, &s_accel_gyro_task_context.taskProperty);
    1374:	61 e0       	ldi	r22, 0x01	; 1
    1376:	71 e0       	ldi	r23, 0x01	; 1
    1378:	80 e0       	ldi	r24, 0x00	; 0
    137a:	91 e0       	ldi	r25, 0x01	; 1
    137c:	0e 94 0b 26 	call	0x4c16	; 0x4c16 <SCH_TASK_CreateTask>
    1380:	08 95       	ret

00001382 <get_acceleration>:
}

Accel_Gyro_DataTypedef get_acceleration(void)
{
    1382:	cf 93       	push	r28
    1384:	df 93       	push	r29
    1386:	00 d0       	rcall	.+0      	; 0x1388 <get_acceleration+0x6>
    1388:	00 d0       	rcall	.+0      	; 0x138a <get_acceleration+0x8>
    138a:	00 d0       	rcall	.+0      	; 0x138c <get_acceleration+0xa>
    138c:	cd b7       	in	r28, 0x3d	; 61
    138e:	de b7       	in	r29, 0x3e	; 62
	return (Accel_Gyro_DataTypedef)Accel_Status;
    1390:	86 e0       	ldi	r24, 0x06	; 6
    1392:	e8 e2       	ldi	r30, 0x28	; 40
    1394:	fc e0       	ldi	r31, 0x0C	; 12
    1396:	de 01       	movw	r26, r28
    1398:	11 96       	adiw	r26, 0x01	; 1
    139a:	01 90       	ld	r0, Z+
    139c:	0d 92       	st	X+, r0
    139e:	8a 95       	dec	r24
    13a0:	e1 f7       	brne	.-8      	; 0x139a <get_acceleration+0x18>
    13a2:	29 81       	ldd	r18, Y+1	; 0x01
    13a4:	3a 81       	ldd	r19, Y+2	; 0x02
    13a6:	4b 81       	ldd	r20, Y+3	; 0x03
    13a8:	5c 81       	ldd	r21, Y+4	; 0x04
    13aa:	6d 81       	ldd	r22, Y+5	; 0x05
    13ac:	7e 81       	ldd	r23, Y+6	; 0x06
}
    13ae:	80 e0       	ldi	r24, 0x00	; 0
    13b0:	90 e0       	ldi	r25, 0x00	; 0
    13b2:	26 96       	adiw	r28, 0x06	; 6
    13b4:	0f b6       	in	r0, 0x3f	; 63
    13b6:	f8 94       	cli
    13b8:	de bf       	out	0x3e, r29	; 62
    13ba:	0f be       	out	0x3f, r0	; 63
    13bc:	cd bf       	out	0x3d, r28	; 61
    13be:	df 91       	pop	r29
    13c0:	cf 91       	pop	r28
    13c2:	08 95       	ret

000013c4 <get_gyroscope>:

Accel_Gyro_DataTypedef get_gyroscope(void)
{
    13c4:	cf 93       	push	r28
    13c6:	df 93       	push	r29
    13c8:	00 d0       	rcall	.+0      	; 0x13ca <get_gyroscope+0x6>
    13ca:	00 d0       	rcall	.+0      	; 0x13cc <get_gyroscope+0x8>
    13cc:	00 d0       	rcall	.+0      	; 0x13ce <get_gyroscope+0xa>
    13ce:	cd b7       	in	r28, 0x3d	; 61
    13d0:	de b7       	in	r29, 0x3e	; 62
	return (Accel_Gyro_DataTypedef)Gyro_Status;
    13d2:	86 e0       	ldi	r24, 0x06	; 6
    13d4:	e2 e2       	ldi	r30, 0x22	; 34
    13d6:	fc e0       	ldi	r31, 0x0C	; 12
    13d8:	de 01       	movw	r26, r28
    13da:	11 96       	adiw	r26, 0x01	; 1
    13dc:	01 90       	ld	r0, Z+
    13de:	0d 92       	st	X+, r0
    13e0:	8a 95       	dec	r24
    13e2:	e1 f7       	brne	.-8      	; 0x13dc <get_gyroscope+0x18>
    13e4:	29 81       	ldd	r18, Y+1	; 0x01
    13e6:	3a 81       	ldd	r19, Y+2	; 0x02
    13e8:	4b 81       	ldd	r20, Y+3	; 0x03
    13ea:	5c 81       	ldd	r21, Y+4	; 0x04
    13ec:	6d 81       	ldd	r22, Y+5	; 0x05
    13ee:	7e 81       	ldd	r23, Y+6	; 0x06
    13f0:	80 e0       	ldi	r24, 0x00	; 0
    13f2:	90 e0       	ldi	r25, 0x00	; 0
    13f4:	26 96       	adiw	r28, 0x06	; 6
    13f6:	0f b6       	in	r0, 0x3f	; 63
    13f8:	f8 94       	cli
    13fa:	de bf       	out	0x3e, r29	; 62
    13fc:	0f be       	out	0x3f, r0	; 63
    13fe:	cd bf       	out	0x3d, r28	; 61
    1400:	df 91       	pop	r29
    1402:	cf 91       	pop	r28
    1404:	08 95       	ret

00001406 <CmdLineProcess>:
//! Otherwise it returns the code that was returned by the command function.
//
//*****************************************************************************
uint8_t
CmdLineProcess(char *pcCmdLine)
{
    1406:	ef 92       	push	r14
    1408:	ff 92       	push	r15
    140a:	0f 93       	push	r16
    140c:	1f 93       	push	r17
    140e:	cf 93       	push	r28
    1410:	fc 01       	movw	r30, r24
    pcChar = pcCmdLine;

    //
    // Advance through the command line until a zero character is found.
    //
    while(*pcChar)
    1412:	80 81       	ld	r24, Z
    1414:	88 23       	and	r24, r24
    1416:	09 f4       	brne	.+2      	; 0x141a <CmdLineProcess+0x14>
    1418:	44 c0       	rjmp	.+136    	; 0x14a2 <CmdLineProcess+0x9c>
    141a:	91 e0       	ldi	r25, 0x01	; 1
    141c:	c0 e0       	ldi	r28, 0x00	; 0
                //
                if(ui8Argc < CMDLINE_MAX_ARGS)
                {
                    g_ppcArgv[ui8Argc] = pcChar;
                    ui8Argc++;
                    bFindArg = false;
    141e:	20 e0       	ldi	r18, 0x00	; 0
        // to search for the next argument.
        //
        if(*pcChar == ' ')
        {
            *pcChar = 0;
            bFindArg = true;
    1420:	31 e0       	ldi	r19, 0x01	; 1
    {
        //
        // If there is a space, then replace it with a zero, and set the flag
        // to search for the next argument.
        //
        if(*pcChar == ' ')
    1422:	80 32       	cpi	r24, 0x20	; 32
    1424:	19 f4       	brne	.+6      	; 0x142c <CmdLineProcess+0x26>
        {
            *pcChar = 0;
    1426:	10 82       	st	Z, r1
            bFindArg = true;
    1428:	93 2f       	mov	r25, r19
    142a:	0e c0       	rjmp	.+28     	; 0x1448 <CmdLineProcess+0x42>
        {
            //
            // If bFindArg is set, then that means we are looking for the start
            // of the next argument.
            //
            if(bFindArg)
    142c:	99 23       	and	r25, r25
    142e:	61 f0       	breq	.+24     	; 0x1448 <CmdLineProcess+0x42>
                //
                // As long as the maximum number of arguments has not been
                // reached, then save the pointer to the start of this new arg
                // in the argv array, and increment the count of args, argc.
                //
                if(ui8Argc < CMDLINE_MAX_ARGS)
    1430:	c8 30       	cpi	r28, 0x08	; 8
    1432:	c8 f5       	brcc	.+114    	; 0x14a6 <CmdLineProcess+0xa0>
                {
                    g_ppcArgv[ui8Argc] = pcChar;
    1434:	ac 2f       	mov	r26, r28
    1436:	b0 e0       	ldi	r27, 0x00	; 0
    1438:	aa 0f       	add	r26, r26
    143a:	bb 1f       	adc	r27, r27
    143c:	a6 53       	subi	r26, 0x36	; 54
    143e:	b5 4f       	sbci	r27, 0xF5	; 245
    1440:	ed 93       	st	X+, r30
    1442:	fc 93       	st	X, r31
                    ui8Argc++;
    1444:	cf 5f       	subi	r28, 0xFF	; 255
                    bFindArg = false;
    1446:	92 2f       	mov	r25, r18
        }

        //
        // Advance to the next character in the command line.
        //
        pcChar++;
    1448:	31 96       	adiw	r30, 0x01	; 1
    pcChar = pcCmdLine;

    //
    // Advance through the command line until a zero character is found.
    //
    while(*pcChar)
    144a:	80 81       	ld	r24, Z
    144c:	81 11       	cpse	r24, r1
    144e:	e9 cf       	rjmp	.-46     	; 0x1422 <CmdLineProcess+0x1c>
    }

    //
    // If one or more arguments was found, then process the command.
    //
    if(ui8Argc)
    1450:	cc 23       	and	r28, r28
    1452:	59 f1       	breq	.+86     	; 0x14aa <CmdLineProcess+0xa4>

        //
        // Search through the command table until a null command string is
        // found, which marks the end of the table.
        //
        while(psCmdEntry->pcCmd)
    1454:	60 91 0e 01 	lds	r22, 0x010E	; 0x80010e <g_psCmdTable>
    1458:	70 91 0f 01 	lds	r23, 0x010F	; 0x80010f <g_psCmdTable+0x1>
    145c:	61 15       	cp	r22, r1
    145e:	71 05       	cpc	r23, r1
    1460:	31 f1       	breq	.+76     	; 0x14ae <CmdLineProcess+0xa8>
            //
            // If this command entry command string matches argv[0], then call
            // the function for this command, passing the command line
            // arguments.
            //
            if(!strcmp(g_ppcArgv[0], psCmdEntry->pcCmd))
    1462:	e0 90 ca 0a 	lds	r14, 0x0ACA	; 0x800aca <__data_end>
    1466:	f0 90 cb 0a 	lds	r15, 0x0ACB	; 0x800acb <__data_end+0x1>
    146a:	0e e0       	ldi	r16, 0x0E	; 14
    146c:	11 e0       	ldi	r17, 0x01	; 1
    146e:	c7 01       	movw	r24, r14
    1470:	0e 94 ae 30 	call	0x615c	; 0x615c <strcmp>
    1474:	89 2b       	or	r24, r25
    1476:	59 f4       	brne	.+22     	; 0x148e <CmdLineProcess+0x88>
            {

                return(psCmdEntry->pfnCmd(ui8Argc, g_ppcArgv));
    1478:	d8 01       	movw	r26, r16
    147a:	12 96       	adiw	r26, 0x02	; 2
    147c:	ed 91       	ld	r30, X+
    147e:	fc 91       	ld	r31, X
    1480:	13 97       	sbiw	r26, 0x03	; 3
    1482:	6a ec       	ldi	r22, 0xCA	; 202
    1484:	7a e0       	ldi	r23, 0x0A	; 10
    1486:	8c 2f       	mov	r24, r28
    1488:	90 e0       	ldi	r25, 0x00	; 0
    148a:	09 95       	icall
    148c:	11 c0       	rjmp	.+34     	; 0x14b0 <CmdLineProcess+0xaa>
            }

            //
            // Not found, so advance to the next entry.
            //
            psCmdEntry++;
    148e:	0a 5f       	subi	r16, 0xFA	; 250
    1490:	1f 4f       	sbci	r17, 0xFF	; 255

        //
        // Search through the command table until a null command string is
        // found, which marks the end of the table.
        //
        while(psCmdEntry->pcCmd)
    1492:	f8 01       	movw	r30, r16
    1494:	60 81       	ld	r22, Z
    1496:	71 81       	ldd	r23, Z+1	; 0x01
    1498:	61 15       	cp	r22, r1
    149a:	71 05       	cpc	r23, r1
    149c:	41 f7       	brne	.-48     	; 0x146e <CmdLineProcess+0x68>

    //
    // Fall through to here means that no matching command was found, so return
    // an error.
    //
    return(CMDLINE_BAD_CMD);
    149e:	81 e0       	ldi	r24, 0x01	; 1
    14a0:	07 c0       	rjmp	.+14     	; 0x14b0 <CmdLineProcess+0xaa>
    14a2:	81 e0       	ldi	r24, 0x01	; 1
    14a4:	05 c0       	rjmp	.+10     	; 0x14b0 <CmdLineProcess+0xaa>
                // The maximum number of arguments has been reached so return
                // the error.
                //
                else
                {
                    return(CMDLINE_TOO_MANY_ARGS);
    14a6:	82 e0       	ldi	r24, 0x02	; 2
    14a8:	03 c0       	rjmp	.+6      	; 0x14b0 <CmdLineProcess+0xaa>

    //
    // Fall through to here means that no matching command was found, so return
    // an error.
    //
    return(CMDLINE_BAD_CMD);
    14aa:	81 e0       	ldi	r24, 0x01	; 1
    14ac:	01 c0       	rjmp	.+2      	; 0x14b0 <CmdLineProcess+0xaa>
    14ae:	81 e0       	ldi	r24, 0x01	; 1
}
    14b0:	cf 91       	pop	r28
    14b2:	1f 91       	pop	r17
    14b4:	0f 91       	pop	r16
    14b6:	ff 90       	pop	r15
    14b8:	ef 90       	pop	r14
    14ba:	08 95       	ret

000014bc <Cmd_help>:
void	command_create_task(void)
{
	SCH_TASK_CreateTask(&s_CommandTaskContext.taskHandle, &s_CommandTaskContext.taskProperty);
}

int Cmd_help(int argc, char *argv[]) {
    14bc:	cf 93       	push	r28
    14be:	df 93       	push	r29
	tCmdLineEntry *pEntry;

	usart0_send_string("\nAvailable commands\r\n");
    14c0:	8b e0       	ldi	r24, 0x0B	; 11
    14c2:	92 e0       	ldi	r25, 0x02	; 2
    14c4:	0e 94 71 1a 	call	0x34e2	; 0x34e2 <usart0_send_string>
	usart0_send_string("------------------\r\n");
    14c8:	81 e2       	ldi	r24, 0x21	; 33
    14ca:	92 e0       	ldi	r25, 0x02	; 2
    14cc:	0e 94 71 1a 	call	0x34e2	; 0x34e2 <usart0_send_string>
	// Point at the beginning of the command table.
	pEntry = &g_psCmdTable[0];

	// Enter a loop to read each entry from the command table.  The
	// end of the table has been reached when the command name is NULL.
	while (pEntry->pcCmd) {
    14d0:	80 91 0e 01 	lds	r24, 0x010E	; 0x80010e <g_psCmdTable>
    14d4:	90 91 0f 01 	lds	r25, 0x010F	; 0x80010f <g_psCmdTable+0x1>
    14d8:	00 97       	sbiw	r24, 0x00	; 0
    14da:	89 f0       	breq	.+34     	; 0x14fe <Cmd_help+0x42>
    14dc:	ce e0       	ldi	r28, 0x0E	; 14
    14de:	d1 e0       	ldi	r29, 0x01	; 1
		// Print the command name and the brief description.
		usart0_send_string(pEntry->pcCmd);
    14e0:	0e 94 71 1a 	call	0x34e2	; 0x34e2 <usart0_send_string>
		usart0_send_string(pEntry->pcHelp);
    14e4:	8c 81       	ldd	r24, Y+4	; 0x04
    14e6:	9d 81       	ldd	r25, Y+5	; 0x05
    14e8:	0e 94 71 1a 	call	0x34e2	; 0x34e2 <usart0_send_string>
		usart0_send_string("\r\n");
    14ec:	8c e5       	ldi	r24, 0x5C	; 92
    14ee:	93 e0       	ldi	r25, 0x03	; 3
    14f0:	0e 94 71 1a 	call	0x34e2	; 0x34e2 <usart0_send_string>

		// Advance to the next entry in the table.
		pEntry++;
    14f4:	26 96       	adiw	r28, 0x06	; 6
	// Point at the beginning of the command table.
	pEntry = &g_psCmdTable[0];

	// Enter a loop to read each entry from the command table.  The
	// end of the table has been reached when the command name is NULL.
	while (pEntry->pcCmd) {
    14f6:	88 81       	ld	r24, Y
    14f8:	99 81       	ldd	r25, Y+1	; 0x01
    14fa:	00 97       	sbiw	r24, 0x00	; 0
    14fc:	89 f7       	brne	.-30     	; 0x14e0 <Cmd_help+0x24>
		pEntry++;

	}
	// Return success.
	return (CMDLINE_OK);
}
    14fe:	80 e0       	ldi	r24, 0x00	; 0
    1500:	90 e0       	ldi	r25, 0x00	; 0
    1502:	df 91       	pop	r29
    1504:	cf 91       	pop	r28
    1506:	08 95       	ret

00001508 <command_task_update>:
		command_task_update                // taskFunction;
	}
};

static	void	command_task_update(void)
{
    1508:	cf 93       	push	r28
	char rxData;
	int8_t	ret_val;
	while (! rbuffer_empty(p_CommandRingBuffer))
    150a:	4d c0       	rjmp	.+154    	; 0x15a6 <command_task_update+0x9e>
	{
		rxData = rbuffer_remove(p_CommandRingBuffer);
    150c:	80 91 1d 0b 	lds	r24, 0x0B1D	; 0x800b1d <p_CommandRingBuffer>
    1510:	90 91 1e 0b 	lds	r25, 0x0B1E	; 0x800b1e <p_CommandRingBuffer+0x1>
    1514:	0e 94 30 1a 	call	0x3460	; 0x3460 <rbuffer_remove>
    1518:	c8 2f       	mov	r28, r24
		usart0_send_char(rxData);
    151a:	0e 94 61 1a 	call	0x34c2	; 0x34c2 <usart0_send_char>
		if ((rxData == '\r') || (rxData == '\n'))		//got a return or new line
    151e:	cd 30       	cpi	r28, 0x0D	; 13
    1520:	11 f0       	breq	.+4      	; 0x1526 <command_task_update+0x1e>
    1522:	ca 30       	cpi	r28, 0x0A	; 10
    1524:	29 f5       	brne	.+74     	; 0x1570 <command_task_update+0x68>
		{
			if (s_commandBufferIndex > 0)		//if we got the CR or LF at the begining, discard	
    1526:	80 91 dc 0a 	lds	r24, 0x0ADC	; 0x800adc <s_commandBufferIndex>
    152a:	88 23       	and	r24, r24
    152c:	e1 f0       	breq	.+56     	; 0x1566 <command_task_update+0x5e>
			{
				s_commandBuffer[s_commandBufferIndex] = 0;
    152e:	e8 2f       	mov	r30, r24
    1530:	f0 e0       	ldi	r31, 0x00	; 0
    1532:	e3 52       	subi	r30, 0x23	; 35
    1534:	f5 4f       	sbci	r31, 0xF5	; 245
    1536:	10 82       	st	Z, r1
				s_commandBufferIndex++;
    1538:	8f 5f       	subi	r24, 0xFF	; 255
    153a:	80 93 dc 0a 	sts	0x0ADC, r24	; 0x800adc <s_commandBufferIndex>
				ret_val = CmdLineProcess(s_commandBuffer);		
    153e:	8d ed       	ldi	r24, 0xDD	; 221
    1540:	9a e0       	ldi	r25, 0x0A	; 10
    1542:	0e 94 03 0a 	call	0x1406	; 0x1406 <CmdLineProcess>
				s_commandBufferIndex = 0;		
    1546:	10 92 dc 0a 	sts	0x0ADC, r1	; 0x800adc <s_commandBufferIndex>
				usart0_send_string(ErrorCode[ret_val]);
    154a:	88 0f       	add	r24, r24
    154c:	99 0b       	sbc	r25, r25
    154e:	fc 01       	movw	r30, r24
    1550:	e4 57       	subi	r30, 0x74	; 116
    1552:	fe 4f       	sbci	r31, 0xFE	; 254
    1554:	80 81       	ld	r24, Z
    1556:	91 81       	ldd	r25, Z+1	; 0x01
    1558:	0e 94 71 1a 	call	0x34e2	; 0x34e2 <usart0_send_string>
				usart0_send_string("> ");
    155c:	8f e2       	ldi	r24, 0x2F	; 47
    155e:	9a e0       	ldi	r25, 0x0A	; 10
    1560:	0e 94 71 1a 	call	0x34e2	; 0x34e2 <usart0_send_string>
    1564:	20 c0       	rjmp	.+64     	; 0x15a6 <command_task_update+0x9e>
			}	
			else usart0_send_string("\r\n> ");
    1566:	8d e2       	ldi	r24, 0x2D	; 45
    1568:	9a e0       	ldi	r25, 0x0A	; 10
    156a:	0e 94 71 1a 	call	0x34e2	; 0x34e2 <usart0_send_string>
    156e:	1b c0       	rjmp	.+54     	; 0x15a6 <command_task_update+0x9e>
		}
		else if ((rxData == 8) || (rxData == 127))	
    1570:	c8 30       	cpi	r28, 0x08	; 8
    1572:	11 f0       	breq	.+4      	; 0x1578 <command_task_update+0x70>
    1574:	cf 37       	cpi	r28, 0x7F	; 127
    1576:	41 f4       	brne	.+16     	; 0x1588 <command_task_update+0x80>
		{
			if (s_commandBufferIndex > 0) s_commandBufferIndex--;
    1578:	80 91 dc 0a 	lds	r24, 0x0ADC	; 0x800adc <s_commandBufferIndex>
    157c:	88 23       	and	r24, r24
    157e:	99 f0       	breq	.+38     	; 0x15a6 <command_task_update+0x9e>
    1580:	81 50       	subi	r24, 0x01	; 1
    1582:	80 93 dc 0a 	sts	0x0ADC, r24	; 0x800adc <s_commandBufferIndex>
    1586:	0f c0       	rjmp	.+30     	; 0x15a6 <command_task_update+0x9e>
		}
		else
		{
			s_commandBuffer[s_commandBufferIndex] = rxData;
    1588:	80 91 dc 0a 	lds	r24, 0x0ADC	; 0x800adc <s_commandBufferIndex>
    158c:	e8 2f       	mov	r30, r24
    158e:	f0 e0       	ldi	r31, 0x00	; 0
    1590:	e3 52       	subi	r30, 0x23	; 35
    1592:	f5 4f       	sbci	r31, 0xF5	; 245
    1594:	c0 83       	st	Z, r28
			s_commandBufferIndex ++;
    1596:	8f 5f       	subi	r24, 0xFF	; 255
			if (s_commandBufferIndex > COMMAND_MAX_LENGTH) s_commandBufferIndex= 0;
    1598:	81 34       	cpi	r24, 0x41	; 65
    159a:	18 f4       	brcc	.+6      	; 0x15a2 <command_task_update+0x9a>
			if (s_commandBufferIndex > 0) s_commandBufferIndex--;
		}
		else
		{
			s_commandBuffer[s_commandBufferIndex] = rxData;
			s_commandBufferIndex ++;
    159c:	80 93 dc 0a 	sts	0x0ADC, r24	; 0x800adc <s_commandBufferIndex>
    15a0:	02 c0       	rjmp	.+4      	; 0x15a6 <command_task_update+0x9e>
			if (s_commandBufferIndex > COMMAND_MAX_LENGTH) s_commandBufferIndex= 0;
    15a2:	10 92 dc 0a 	sts	0x0ADC, r1	; 0x800adc <s_commandBufferIndex>

static	void	command_task_update(void)
{
	char rxData;
	int8_t	ret_val;
	while (! rbuffer_empty(p_CommandRingBuffer))
    15a6:	80 91 1d 0b 	lds	r24, 0x0B1D	; 0x800b1d <p_CommandRingBuffer>
    15aa:	90 91 1e 0b 	lds	r25, 0x0B1E	; 0x800b1e <p_CommandRingBuffer+0x1>
    15ae:	0e 94 14 1a 	call	0x3428	; 0x3428 <rbuffer_empty>
    15b2:	88 23       	and	r24, r24
    15b4:	09 f4       	brne	.+2      	; 0x15b8 <command_task_update+0xb0>
    15b6:	aa cf       	rjmp	.-172    	; 0x150c <command_task_update+0x4>
			s_commandBuffer[s_commandBufferIndex] = rxData;
			s_commandBufferIndex ++;
			if (s_commandBufferIndex > COMMAND_MAX_LENGTH) s_commandBufferIndex= 0;
		}
	}	
}
    15b8:	cf 91       	pop	r28
    15ba:	08 95       	ret

000015bc <Cmd_set_temp>:
// Format: set_temp channel value
//
//*****************************************************************************
int
Cmd_set_temp(int argc, char *argv[]) 
{
    15bc:	0f 93       	push	r16
    15be:	1f 93       	push	r17
    15c0:	cf 93       	push	r28
    15c2:	df 93       	push	r29
	if (argc < 3) return CMDLINE_TOO_FEW_ARGS;
    15c4:	83 30       	cpi	r24, 0x03	; 3
    15c6:	91 05       	cpc	r25, r1
    15c8:	3c f1       	brlt	.+78     	; 0x1618 <Cmd_set_temp+0x5c>
	if (argc >3) return CMDLINE_TOO_MANY_ARGS;
    15ca:	04 97       	sbiw	r24, 0x04	; 4
    15cc:	44 f5       	brge	.+80     	; 0x161e <Cmd_set_temp+0x62>
    15ce:	eb 01       	movw	r28, r22
	//if (argv[1] > "3" || argv[1] < "0") return CMDLINE_INVALID_ARG;
	uint8_t channel = atoi(argv[1]);
    15d0:	8a 81       	ldd	r24, Y+2	; 0x02
    15d2:	9b 81       	ldd	r25, Y+3	; 0x03
    15d4:	0e 94 ad 2f 	call	0x5f5a	; 0x5f5a <atoi>
    15d8:	8c 01       	movw	r16, r24
	if (channel > 3 || channel < 0) return CMDLINE_INVALID_ARG;
    15da:	84 30       	cpi	r24, 0x04	; 4
    15dc:	18 f5       	brcc	.+70     	; 0x1624 <Cmd_set_temp+0x68>
	uint16_t setpoint = atoi(argv[2]);
    15de:	8c 81       	ldd	r24, Y+4	; 0x04
    15e0:	9d 81       	ldd	r25, Y+5	; 0x05
    15e2:	0e 94 ad 2f 	call	0x5f5a	; 0x5f5a <atoi>
    15e6:	c8 2f       	mov	r28, r24
    15e8:	d9 2f       	mov	r29, r25
	temperature_set_point(setpoint, channel);
    15ea:	60 2f       	mov	r22, r16
    15ec:	0e 94 6d 14 	call	0x28da	; 0x28da <temperature_set_point>
	UARTprintf("Channel %d set point: %d \r\n",channel, setpoint);
    15f0:	df 93       	push	r29
    15f2:	cf 93       	push	r28
    15f4:	11 27       	eor	r17, r17
    15f6:	1f 93       	push	r17
    15f8:	0f 93       	push	r16
    15fa:	86 e3       	ldi	r24, 0x36	; 54
    15fc:	92 e0       	ldi	r25, 0x02	; 2
    15fe:	9f 93       	push	r25
    1600:	8f 93       	push	r24
    1602:	0e 94 53 1f 	call	0x3ea6	; 0x3ea6 <UARTprintf>
	return CMDLINE_OK;
    1606:	0f 90       	pop	r0
    1608:	0f 90       	pop	r0
    160a:	0f 90       	pop	r0
    160c:	0f 90       	pop	r0
    160e:	0f 90       	pop	r0
    1610:	0f 90       	pop	r0
    1612:	80 e0       	ldi	r24, 0x00	; 0
    1614:	90 e0       	ldi	r25, 0x00	; 0
    1616:	08 c0       	rjmp	.+16     	; 0x1628 <Cmd_set_temp+0x6c>
//
//*****************************************************************************
int
Cmd_set_temp(int argc, char *argv[]) 
{
	if (argc < 3) return CMDLINE_TOO_FEW_ARGS;
    1618:	83 e0       	ldi	r24, 0x03	; 3
    161a:	90 e0       	ldi	r25, 0x00	; 0
    161c:	05 c0       	rjmp	.+10     	; 0x1628 <Cmd_set_temp+0x6c>
	if (argc >3) return CMDLINE_TOO_MANY_ARGS;
    161e:	82 e0       	ldi	r24, 0x02	; 2
    1620:	90 e0       	ldi	r25, 0x00	; 0
    1622:	02 c0       	rjmp	.+4      	; 0x1628 <Cmd_set_temp+0x6c>
	//if (argv[1] > "3" || argv[1] < "0") return CMDLINE_INVALID_ARG;
	uint8_t channel = atoi(argv[1]);
	if (channel > 3 || channel < 0) return CMDLINE_INVALID_ARG;
    1624:	84 e0       	ldi	r24, 0x04	; 4
    1626:	90 e0       	ldi	r25, 0x00	; 0
	uint16_t setpoint = atoi(argv[2]);
	temperature_set_point(setpoint, channel);
	UARTprintf("Channel %d set point: %d \r\n",channel, setpoint);
	return CMDLINE_OK;
}
    1628:	df 91       	pop	r29
    162a:	cf 91       	pop	r28
    162c:	1f 91       	pop	r17
    162e:	0f 91       	pop	r16
    1630:	08 95       	ret

00001632 <Cmd_get_temp>:
// Get the temperature from NTC / onewire / bmp390
//
//*****************************************************************************
int
Cmd_get_temp(int argc, char *argv[])
{
    1632:	cf 92       	push	r12
    1634:	df 92       	push	r13
    1636:	ef 92       	push	r14
    1638:	ff 92       	push	r15
    163a:	0f 93       	push	r16
    163c:	1f 93       	push	r17
    163e:	cf 93       	push	r28
    1640:	df 93       	push	r29
    1642:	cd b7       	in	r28, 0x3d	; 61
    1644:	de b7       	in	r29, 0x3e	; 62
    1646:	64 97       	sbiw	r28, 0x14	; 20
    1648:	0f b6       	in	r0, 0x3f	; 63
    164a:	f8 94       	cli
    164c:	de bf       	out	0x3e, r29	; 62
    164e:	0f be       	out	0x3f, r0	; 63
    1650:	cd bf       	out	0x3d, r28	; 61
    1652:	8c 01       	movw	r16, r24
    1654:	7b 01       	movw	r14, r22
	if (!strcmp(argv[1], "bmp390"))
    1656:	fb 01       	movw	r30, r22
    1658:	c2 80       	ldd	r12, Z+2	; 0x02
    165a:	d3 80       	ldd	r13, Z+3	; 0x03
    165c:	62 e5       	ldi	r22, 0x52	; 82
    165e:	72 e0       	ldi	r23, 0x02	; 2
    1660:	c6 01       	movw	r24, r12
    1662:	0e 94 ae 30 	call	0x615c	; 0x615c <strcmp>
    1666:	89 2b       	or	r24, r25
    1668:	f9 f4       	brne	.+62     	; 0x16a8 <Cmd_get_temp+0x76>
	{
		if (argc >2) return CMDLINE_TOO_MANY_ARGS;
    166a:	03 30       	cpi	r16, 0x03	; 3
    166c:	11 05       	cpc	r17, r1
    166e:	1c f0       	brlt	.+6      	; 0x1676 <Cmd_get_temp+0x44>
    1670:	02 e0       	ldi	r16, 0x02	; 2
    1672:	10 e0       	ldi	r17, 0x00	; 0
    1674:	8e c0       	rjmp	.+284    	; 0x1792 <Cmd_get_temp+0x160>
		char buffer[5];
		sprintf(buffer, "Temp of BMP490: %i", temperature_get_bmp390());
    1676:	0e 94 88 14 	call	0x2910	; 0x2910 <temperature_get_bmp390>
    167a:	9f 93       	push	r25
    167c:	8f 93       	push	r24
    167e:	89 e5       	ldi	r24, 0x59	; 89
    1680:	92 e0       	ldi	r25, 0x02	; 2
    1682:	9f 93       	push	r25
    1684:	8f 93       	push	r24
    1686:	8e 01       	movw	r16, r28
    1688:	0f 5f       	subi	r16, 0xFF	; 255
    168a:	1f 4f       	sbci	r17, 0xFF	; 255
    168c:	1f 93       	push	r17
    168e:	0f 93       	push	r16
    1690:	0e 94 06 31 	call	0x620c	; 0x620c <sprintf>
		usart0_send_string(buffer);
    1694:	c8 01       	movw	r24, r16
    1696:	0e 94 71 1a 	call	0x34e2	; 0x34e2 <usart0_send_string>
			usart0_send_array(buffer, strlen(buffer));
		}
		else return CMDLINE_INVALID_ARG;
		return CMDLINE_OK;
	}
}
    169a:	0f 90       	pop	r0
    169c:	0f 90       	pop	r0
    169e:	0f 90       	pop	r0
    16a0:	0f 90       	pop	r0
    16a2:	0f 90       	pop	r0
    16a4:	0f 90       	pop	r0
    16a6:	77 c0       	rjmp	.+238    	; 0x1796 <Cmd_get_temp+0x164>
		usart0_send_string(buffer);
		//UARTprintf("Temp of BMP490: %s \r\n", buffer);
	}
	else
	{
		if (argc < 3) return CMDLINE_TOO_FEW_ARGS;
    16a8:	03 30       	cpi	r16, 0x03	; 3
    16aa:	11 05       	cpc	r17, r1
    16ac:	0c f4       	brge	.+2      	; 0x16b0 <Cmd_get_temp+0x7e>
    16ae:	66 c0       	rjmp	.+204    	; 0x177c <Cmd_get_temp+0x14a>
		if (argc >3) return CMDLINE_TOO_MANY_ARGS;
    16b0:	04 30       	cpi	r16, 0x04	; 4
    16b2:	11 05       	cpc	r17, r1
    16b4:	0c f0       	brlt	.+2      	; 0x16b8 <Cmd_get_temp+0x86>
    16b6:	65 c0       	rjmp	.+202    	; 0x1782 <Cmd_get_temp+0x150>
		uint8_t channel = atoi(argv[2]);
    16b8:	f7 01       	movw	r30, r14
    16ba:	84 81       	ldd	r24, Z+4	; 0x04
    16bc:	95 81       	ldd	r25, Z+5	; 0x05
    16be:	0e 94 ad 2f 	call	0x5f5a	; 0x5f5a <atoi>
    16c2:	7c 01       	movw	r14, r24
		if (channel > (MAX_CHANNEL -1)) return CMDLINE_INVALID_ARG;
    16c4:	f1 e0       	ldi	r31, 0x01	; 1
    16c6:	f8 17       	cp	r31, r24
    16c8:	08 f4       	brcc	.+2      	; 0x16cc <Cmd_get_temp+0x9a>
    16ca:	5e c0       	rjmp	.+188    	; 0x1788 <Cmd_get_temp+0x156>
		if (!strcmp(argv[1], "NTC"))
    16cc:	6c e6       	ldi	r22, 0x6C	; 108
    16ce:	72 e0       	ldi	r23, 0x02	; 2
    16d0:	c6 01       	movw	r24, r12
    16d2:	0e 94 ae 30 	call	0x615c	; 0x615c <strcmp>
    16d6:	8c 01       	movw	r16, r24
    16d8:	89 2b       	or	r24, r25
    16da:	21 f5       	brne	.+72     	; 0x1724 <Cmd_get_temp+0xf2>
		{
			char buffer[20];
			sprintf(buffer, "NTC[%d]: %i", channel, temperature_get_NTC(channel));
    16dc:	8e 2d       	mov	r24, r14
    16de:	0e 94 76 14 	call	0x28ec	; 0x28ec <temperature_get_NTC>
    16e2:	9f 93       	push	r25
    16e4:	8f 93       	push	r24
    16e6:	ff 24       	eor	r15, r15
    16e8:	ff 92       	push	r15
    16ea:	ef 92       	push	r14
    16ec:	80 e7       	ldi	r24, 0x70	; 112
    16ee:	92 e0       	ldi	r25, 0x02	; 2
    16f0:	9f 93       	push	r25
    16f2:	8f 93       	push	r24
    16f4:	ce 01       	movw	r24, r28
    16f6:	01 96       	adiw	r24, 0x01	; 1
    16f8:	7c 01       	movw	r14, r24
    16fa:	9f 93       	push	r25
    16fc:	8f 93       	push	r24
    16fe:	0e 94 06 31 	call	0x620c	; 0x620c <sprintf>
//			UARTprintf("NTC[%d]: %s \r\n", channel, buffer);
			usart0_send_array(buffer, strlen(buffer));
    1702:	f7 01       	movw	r30, r14
    1704:	01 90       	ld	r0, Z+
    1706:	00 20       	and	r0, r0
    1708:	e9 f7       	brne	.-6      	; 0x1704 <Cmd_get_temp+0xd2>
    170a:	31 97       	sbiw	r30, 0x01	; 1
    170c:	bf 01       	movw	r22, r30
    170e:	6e 19       	sub	r22, r14
    1710:	7f 09       	sbc	r23, r15
    1712:	c7 01       	movw	r24, r14
    1714:	0e 94 80 1a 	call	0x3500	; 0x3500 <usart0_send_array>
    1718:	0f b6       	in	r0, 0x3f	; 63
    171a:	f8 94       	cli
    171c:	de bf       	out	0x3e, r29	; 62
    171e:	0f be       	out	0x3f, r0	; 63
    1720:	cd bf       	out	0x3d, r28	; 61
    1722:	37 c0       	rjmp	.+110    	; 0x1792 <Cmd_get_temp+0x160>

		
		}
		else if (!strcmp(argv[1], "onewire"))
    1724:	6c e7       	ldi	r22, 0x7C	; 124
    1726:	72 e0       	ldi	r23, 0x02	; 2
    1728:	c6 01       	movw	r24, r12
    172a:	0e 94 ae 30 	call	0x615c	; 0x615c <strcmp>
    172e:	8c 01       	movw	r16, r24
    1730:	89 2b       	or	r24, r25
    1732:	69 f5       	brne	.+90     	; 0x178e <Cmd_get_temp+0x15c>
		{
			char buffer[20];
			sprintf(buffer, "1-Wire[%d]: %i", channel, temperature_get_onewire(channel));
    1734:	8e 2d       	mov	r24, r14
    1736:	0e 94 7f 14 	call	0x28fe	; 0x28fe <temperature_get_onewire>
    173a:	9f 93       	push	r25
    173c:	8f 93       	push	r24
    173e:	ff 24       	eor	r15, r15
    1740:	ff 92       	push	r15
    1742:	ef 92       	push	r14
    1744:	84 e8       	ldi	r24, 0x84	; 132
    1746:	92 e0       	ldi	r25, 0x02	; 2
    1748:	9f 93       	push	r25
    174a:	8f 93       	push	r24
    174c:	ce 01       	movw	r24, r28
    174e:	01 96       	adiw	r24, 0x01	; 1
    1750:	7c 01       	movw	r14, r24
    1752:	9f 93       	push	r25
    1754:	8f 93       	push	r24
    1756:	0e 94 06 31 	call	0x620c	; 0x620c <sprintf>
//			UARTprintf("1-Wire[%d]: %s \r\n", channel, buffer);
			usart0_send_array(buffer, strlen(buffer));
    175a:	f7 01       	movw	r30, r14
    175c:	01 90       	ld	r0, Z+
    175e:	00 20       	and	r0, r0
    1760:	e9 f7       	brne	.-6      	; 0x175c <Cmd_get_temp+0x12a>
    1762:	31 97       	sbiw	r30, 0x01	; 1
    1764:	bf 01       	movw	r22, r30
    1766:	6e 19       	sub	r22, r14
    1768:	7f 09       	sbc	r23, r15
    176a:	c7 01       	movw	r24, r14
    176c:	0e 94 80 1a 	call	0x3500	; 0x3500 <usart0_send_array>
    1770:	0f b6       	in	r0, 0x3f	; 63
    1772:	f8 94       	cli
    1774:	de bf       	out	0x3e, r29	; 62
    1776:	0f be       	out	0x3f, r0	; 63
    1778:	cd bf       	out	0x3d, r28	; 61
    177a:	0b c0       	rjmp	.+22     	; 0x1792 <Cmd_get_temp+0x160>
		usart0_send_string(buffer);
		//UARTprintf("Temp of BMP490: %s \r\n", buffer);
	}
	else
	{
		if (argc < 3) return CMDLINE_TOO_FEW_ARGS;
    177c:	03 e0       	ldi	r16, 0x03	; 3
    177e:	10 e0       	ldi	r17, 0x00	; 0
    1780:	08 c0       	rjmp	.+16     	; 0x1792 <Cmd_get_temp+0x160>
		if (argc >3) return CMDLINE_TOO_MANY_ARGS;
    1782:	02 e0       	ldi	r16, 0x02	; 2
    1784:	10 e0       	ldi	r17, 0x00	; 0
    1786:	05 c0       	rjmp	.+10     	; 0x1792 <Cmd_get_temp+0x160>
		uint8_t channel = atoi(argv[2]);
		if (channel > (MAX_CHANNEL -1)) return CMDLINE_INVALID_ARG;
    1788:	04 e0       	ldi	r16, 0x04	; 4
    178a:	10 e0       	ldi	r17, 0x00	; 0
    178c:	02 c0       	rjmp	.+4      	; 0x1792 <Cmd_get_temp+0x160>
			char buffer[20];
			sprintf(buffer, "1-Wire[%d]: %i", channel, temperature_get_onewire(channel));
//			UARTprintf("1-Wire[%d]: %s \r\n", channel, buffer);
			usart0_send_array(buffer, strlen(buffer));
		}
		else return CMDLINE_INVALID_ARG;
    178e:	04 e0       	ldi	r16, 0x04	; 4
    1790:	10 e0       	ldi	r17, 0x00	; 0
    1792:	80 2f       	mov	r24, r16
    1794:	91 2f       	mov	r25, r17
		return CMDLINE_OK;
	}
}
    1796:	64 96       	adiw	r28, 0x14	; 20
    1798:	0f b6       	in	r0, 0x3f	; 63
    179a:	f8 94       	cli
    179c:	de bf       	out	0x3e, r29	; 62
    179e:	0f be       	out	0x3f, r0	; 63
    17a0:	cd bf       	out	0x3d, r28	; 61
    17a2:	df 91       	pop	r29
    17a4:	cf 91       	pop	r28
    17a6:	1f 91       	pop	r17
    17a8:	0f 91       	pop	r16
    17aa:	ff 90       	pop	r15
    17ac:	ef 90       	pop	r14
    17ae:	df 90       	pop	r13
    17b0:	cf 90       	pop	r12
    17b2:	08 95       	ret

000017b4 <Cmd_tec_set_auto_voltage>:
// Format: tec_set_auto_voltage channel auto_voltage
//
//*****************************************************************************
int
Cmd_tec_set_auto_voltage(int argc, char *argv[]) 
{
    17b4:	0f 93       	push	r16
    17b6:	1f 93       	push	r17
    17b8:	cf 93       	push	r28
    17ba:	df 93       	push	r29
	  if (argc < 3) return CMDLINE_TOO_FEW_ARGS;
    17bc:	83 30       	cpi	r24, 0x03	; 3
    17be:	91 05       	cpc	r25, r1
    17c0:	4c f1       	brlt	.+82     	; 0x1814 <Cmd_tec_set_auto_voltage+0x60>
	  if (argc >3) return CMDLINE_TOO_MANY_ARGS;
    17c2:	04 97       	sbiw	r24, 0x04	; 4
    17c4:	54 f5       	brge	.+84     	; 0x181a <Cmd_tec_set_auto_voltage+0x66>
    17c6:	eb 01       	movw	r28, r22
	  uint8_t channel = atoi(argv[1]);
    17c8:	8a 81       	ldd	r24, Y+2	; 0x02
    17ca:	9b 81       	ldd	r25, Y+3	; 0x03
    17cc:	0e 94 ad 2f 	call	0x5f5a	; 0x5f5a <atoi>
    17d0:	8c 01       	movw	r16, r24
	  if (channel > 3)	return CMDLINE_INVALID_ARG;
    17d2:	84 30       	cpi	r24, 0x04	; 4
    17d4:	28 f5       	brcc	.+74     	; 0x1820 <Cmd_tec_set_auto_voltage+0x6c>
	  
	uint16_t voltage = atoi(argv[2]);
    17d6:	8c 81       	ldd	r24, Y+4	; 0x04
    17d8:	9d 81       	ldd	r25, Y+5	; 0x05
    17da:	0e 94 ad 2f 	call	0x5f5a	; 0x5f5a <atoi>
    17de:	c8 2f       	mov	r28, r24
    17e0:	d9 2f       	mov	r29, r25
	temperature_set_auto_voltage( channel, voltage);
    17e2:	68 2f       	mov	r22, r24
    17e4:	79 2f       	mov	r23, r25
    17e6:	80 2f       	mov	r24, r16
    17e8:	0e 94 19 17 	call	0x2e32	; 0x2e32 <temperature_set_auto_voltage>
	UARTprintf("Channel %d auto voltage: %d \r\n",channel, voltage);
    17ec:	df 93       	push	r29
    17ee:	cf 93       	push	r28
    17f0:	11 27       	eor	r17, r17
    17f2:	1f 93       	push	r17
    17f4:	0f 93       	push	r16
    17f6:	83 e9       	ldi	r24, 0x93	; 147
    17f8:	92 e0       	ldi	r25, 0x02	; 2
    17fa:	9f 93       	push	r25
    17fc:	8f 93       	push	r24
    17fe:	0e 94 53 1f 	call	0x3ea6	; 0x3ea6 <UARTprintf>
	return CMDLINE_OK;
    1802:	0f 90       	pop	r0
    1804:	0f 90       	pop	r0
    1806:	0f 90       	pop	r0
    1808:	0f 90       	pop	r0
    180a:	0f 90       	pop	r0
    180c:	0f 90       	pop	r0
    180e:	80 e0       	ldi	r24, 0x00	; 0
    1810:	90 e0       	ldi	r25, 0x00	; 0
    1812:	08 c0       	rjmp	.+16     	; 0x1824 <Cmd_tec_set_auto_voltage+0x70>
//
//*****************************************************************************
int
Cmd_tec_set_auto_voltage(int argc, char *argv[]) 
{
	  if (argc < 3) return CMDLINE_TOO_FEW_ARGS;
    1814:	83 e0       	ldi	r24, 0x03	; 3
    1816:	90 e0       	ldi	r25, 0x00	; 0
    1818:	05 c0       	rjmp	.+10     	; 0x1824 <Cmd_tec_set_auto_voltage+0x70>
	  if (argc >3) return CMDLINE_TOO_MANY_ARGS;
    181a:	82 e0       	ldi	r24, 0x02	; 2
    181c:	90 e0       	ldi	r25, 0x00	; 0
    181e:	02 c0       	rjmp	.+4      	; 0x1824 <Cmd_tec_set_auto_voltage+0x70>
	  uint8_t channel = atoi(argv[1]);
	  if (channel > 3)	return CMDLINE_INVALID_ARG;
    1820:	84 e0       	ldi	r24, 0x04	; 4
    1822:	90 e0       	ldi	r25, 0x00	; 0
	  
	uint16_t voltage = atoi(argv[2]);
	temperature_set_auto_voltage( channel, voltage);
	UARTprintf("Channel %d auto voltage: %d \r\n",channel, voltage);
	return CMDLINE_OK;
}
    1824:	df 91       	pop	r29
    1826:	cf 91       	pop	r28
    1828:	1f 91       	pop	r17
    182a:	0f 91       	pop	r16
    182c:	08 95       	ret

0000182e <Cmd_TEC_enable>:
//
//*****************************************************************************
int
Cmd_TEC_enable(int argc, char *argv[])
{
		  if (argc < 2) return CMDLINE_TOO_FEW_ARGS;
    182e:	82 30       	cpi	r24, 0x02	; 2
    1830:	91 05       	cpc	r25, r1
    1832:	74 f0       	brlt	.+28     	; 0x1850 <Cmd_TEC_enable+0x22>
		  if (argc >2) return CMDLINE_TOO_MANY_ARGS;
    1834:	03 97       	sbiw	r24, 0x03	; 3
    1836:	7c f4       	brge	.+30     	; 0x1856 <Cmd_TEC_enable+0x28>
    1838:	fb 01       	movw	r30, r22
		  uint8_t channel = atoi(argv[1]);
    183a:	82 81       	ldd	r24, Z+2	; 0x02
    183c:	93 81       	ldd	r25, Z+3	; 0x03
    183e:	0e 94 ad 2f 	call	0x5f5a	; 0x5f5a <atoi>
		  if (channel > 3)	return CMDLINE_INVALID_ARG;
    1842:	84 30       	cpi	r24, 0x04	; 4
    1844:	58 f4       	brcc	.+22     	; 0x185c <Cmd_TEC_enable+0x2e>
		  temperature_enable_TEC(channel);
    1846:	0e 94 8d 14 	call	0x291a	; 0x291a <temperature_enable_TEC>
		  return CMDLINE_OK;
    184a:	80 e0       	ldi	r24, 0x00	; 0
    184c:	90 e0       	ldi	r25, 0x00	; 0
    184e:	08 95       	ret
//
//*****************************************************************************
int
Cmd_TEC_enable(int argc, char *argv[])
{
		  if (argc < 2) return CMDLINE_TOO_FEW_ARGS;
    1850:	83 e0       	ldi	r24, 0x03	; 3
    1852:	90 e0       	ldi	r25, 0x00	; 0
    1854:	08 95       	ret
		  if (argc >2) return CMDLINE_TOO_MANY_ARGS;
    1856:	82 e0       	ldi	r24, 0x02	; 2
    1858:	90 e0       	ldi	r25, 0x00	; 0
    185a:	08 95       	ret
		  uint8_t channel = atoi(argv[1]);
		  if (channel > 3)	return CMDLINE_INVALID_ARG;
    185c:	84 e0       	ldi	r24, 0x04	; 4
    185e:	90 e0       	ldi	r25, 0x00	; 0
		  temperature_enable_TEC(channel);
		  return CMDLINE_OK;
}
    1860:	08 95       	ret

00001862 <Cmd_TEC_disable>:
// Format: TEC_dis channel 
//
//*****************************************************************************
int
Cmd_TEC_disable(int argc, char *argv[])
{
    1862:	0f 93       	push	r16
    1864:	1f 93       	push	r17
    1866:	cf 93       	push	r28
    1868:	df 93       	push	r29
	if (argc < 2) return CMDLINE_TOO_FEW_ARGS;
    186a:	82 30       	cpi	r24, 0x02	; 2
    186c:	91 05       	cpc	r25, r1
    186e:	4c f1       	brlt	.+82     	; 0x18c2 <Cmd_TEC_disable+0x60>
	if (argc >2) return CMDLINE_TOO_MANY_ARGS;
    1870:	03 97       	sbiw	r24, 0x03	; 3
    1872:	54 f5       	brge	.+84     	; 0x18c8 <Cmd_TEC_disable+0x66>
    1874:	fb 01       	movw	r30, r22
	if (!strcmp(argv[1], "a"))
    1876:	02 81       	ldd	r16, Z+2	; 0x02
    1878:	13 81       	ldd	r17, Z+3	; 0x03
    187a:	60 e3       	ldi	r22, 0x30	; 48
    187c:	75 e0       	ldi	r23, 0x05	; 5
    187e:	c8 01       	movw	r24, r16
    1880:	0e 94 ae 30 	call	0x615c	; 0x615c <strcmp>
    1884:	ec 01       	movw	r28, r24
    1886:	89 2b       	or	r24, r25
    1888:	91 f4       	brne	.+36     	; 0x18ae <Cmd_TEC_disable+0x4c>
	{
		for (uint8_t udx=0; udx < 3; udx++)	 temperature_disable_TEC(udx);
    188a:	80 e0       	ldi	r24, 0x00	; 0
    188c:	0e 94 a0 14 	call	0x2940	; 0x2940 <temperature_disable_TEC>
    1890:	81 e0       	ldi	r24, 0x01	; 1
    1892:	0e 94 a0 14 	call	0x2940	; 0x2940 <temperature_disable_TEC>
    1896:	82 e0       	ldi	r24, 0x02	; 2
    1898:	0e 94 a0 14 	call	0x2940	; 0x2940 <temperature_disable_TEC>
		UARTprintf("disabled all channel\r\n");
    189c:	82 eb       	ldi	r24, 0xB2	; 178
    189e:	92 e0       	ldi	r25, 0x02	; 2
    18a0:	9f 93       	push	r25
    18a2:	8f 93       	push	r24
    18a4:	0e 94 53 1f 	call	0x3ea6	; 0x3ea6 <UARTprintf>
		return CMDLINE_OK;
    18a8:	0f 90       	pop	r0
    18aa:	0f 90       	pop	r0
    18ac:	12 c0       	rjmp	.+36     	; 0x18d2 <Cmd_TEC_disable+0x70>
	}
	uint8_t channel = atoi(argv[1]);
    18ae:	c8 01       	movw	r24, r16
    18b0:	0e 94 ad 2f 	call	0x5f5a	; 0x5f5a <atoi>
	if (channel > 3)	return CMDLINE_INVALID_ARG;
    18b4:	84 30       	cpi	r24, 0x04	; 4
    18b6:	58 f4       	brcc	.+22     	; 0x18ce <Cmd_TEC_disable+0x6c>
	temperature_disable_TEC(channel);
    18b8:	0e 94 a0 14 	call	0x2940	; 0x2940 <temperature_disable_TEC>
	return CMDLINE_OK;
    18bc:	c0 e0       	ldi	r28, 0x00	; 0
    18be:	d0 e0       	ldi	r29, 0x00	; 0
    18c0:	08 c0       	rjmp	.+16     	; 0x18d2 <Cmd_TEC_disable+0x70>
//
//*****************************************************************************
int
Cmd_TEC_disable(int argc, char *argv[])
{
	if (argc < 2) return CMDLINE_TOO_FEW_ARGS;
    18c2:	c3 e0       	ldi	r28, 0x03	; 3
    18c4:	d0 e0       	ldi	r29, 0x00	; 0
    18c6:	05 c0       	rjmp	.+10     	; 0x18d2 <Cmd_TEC_disable+0x70>
	if (argc >2) return CMDLINE_TOO_MANY_ARGS;
    18c8:	c2 e0       	ldi	r28, 0x02	; 2
    18ca:	d0 e0       	ldi	r29, 0x00	; 0
    18cc:	02 c0       	rjmp	.+4      	; 0x18d2 <Cmd_TEC_disable+0x70>
		for (uint8_t udx=0; udx < 3; udx++)	 temperature_disable_TEC(udx);
		UARTprintf("disabled all channel\r\n");
		return CMDLINE_OK;
	}
	uint8_t channel = atoi(argv[1]);
	if (channel > 3)	return CMDLINE_INVALID_ARG;
    18ce:	c4 e0       	ldi	r28, 0x04	; 4
    18d0:	d0 e0       	ldi	r29, 0x00	; 0
	temperature_disable_TEC(channel);
	return CMDLINE_OK;
}
    18d2:	ce 01       	movw	r24, r28
    18d4:	df 91       	pop	r29
    18d6:	cf 91       	pop	r28
    18d8:	1f 91       	pop	r17
    18da:	0f 91       	pop	r16
    18dc:	08 95       	ret

000018de <Cmd_TEC_enable_auto_control>:
// Format: TEC_ena_control channel 
//
//*****************************************************************************
int
Cmd_TEC_enable_auto_control(int argc, char *argv[])
{
    18de:	cf 93       	push	r28
		  if (argc < 2) return CMDLINE_TOO_FEW_ARGS;
    18e0:	82 30       	cpi	r24, 0x02	; 2
    18e2:	91 05       	cpc	r25, r1
    18e4:	c4 f0       	brlt	.+48     	; 0x1916 <Cmd_TEC_enable_auto_control+0x38>
		  if (argc >2) return CMDLINE_TOO_MANY_ARGS;
    18e6:	03 97       	sbiw	r24, 0x03	; 3
    18e8:	cc f4       	brge	.+50     	; 0x191c <Cmd_TEC_enable_auto_control+0x3e>
    18ea:	fb 01       	movw	r30, r22
		  uint8_t channel = atoi(argv[1]);
    18ec:	82 81       	ldd	r24, Z+2	; 0x02
    18ee:	93 81       	ldd	r25, Z+3	; 0x03
    18f0:	0e 94 ad 2f 	call	0x5f5a	; 0x5f5a <atoi>
		  if (channel > 3)	return CMDLINE_INVALID_ARG;
    18f4:	84 30       	cpi	r24, 0x04	; 4
    18f6:	a8 f4       	brcc	.+42     	; 0x1922 <Cmd_TEC_enable_auto_control+0x44>
		  temperature_enable_auto_control_TEC(channel << 1);
    18f8:	c8 2f       	mov	r28, r24
    18fa:	cc 0f       	add	r28, r28
    18fc:	8c 2f       	mov	r24, r28
    18fe:	0e 94 e4 16 	call	0x2dc8	; 0x2dc8 <temperature_enable_auto_control_TEC>
		  temperature_disable_TEC(channel*2);
    1902:	8c 2f       	mov	r24, r28
    1904:	0e 94 a0 14 	call	0x2940	; 0x2940 <temperature_disable_TEC>
		  temperature_disable_TEC(channel*2 + 1);
    1908:	81 e0       	ldi	r24, 0x01	; 1
    190a:	8c 0f       	add	r24, r28
    190c:	0e 94 a0 14 	call	0x2940	; 0x2940 <temperature_disable_TEC>
		  return CMDLINE_OK;
    1910:	80 e0       	ldi	r24, 0x00	; 0
    1912:	90 e0       	ldi	r25, 0x00	; 0
    1914:	08 c0       	rjmp	.+16     	; 0x1926 <Cmd_TEC_enable_auto_control+0x48>
//
//*****************************************************************************
int
Cmd_TEC_enable_auto_control(int argc, char *argv[])
{
		  if (argc < 2) return CMDLINE_TOO_FEW_ARGS;
    1916:	83 e0       	ldi	r24, 0x03	; 3
    1918:	90 e0       	ldi	r25, 0x00	; 0
    191a:	05 c0       	rjmp	.+10     	; 0x1926 <Cmd_TEC_enable_auto_control+0x48>
		  if (argc >2) return CMDLINE_TOO_MANY_ARGS;
    191c:	82 e0       	ldi	r24, 0x02	; 2
    191e:	90 e0       	ldi	r25, 0x00	; 0
    1920:	02 c0       	rjmp	.+4      	; 0x1926 <Cmd_TEC_enable_auto_control+0x48>
		  uint8_t channel = atoi(argv[1]);
		  if (channel > 3)	return CMDLINE_INVALID_ARG;
    1922:	84 e0       	ldi	r24, 0x04	; 4
    1924:	90 e0       	ldi	r25, 0x00	; 0
		  temperature_enable_auto_control_TEC(channel << 1);
		  temperature_disable_TEC(channel*2);
		  temperature_disable_TEC(channel*2 + 1);
		  return CMDLINE_OK;
}
    1926:	cf 91       	pop	r28
    1928:	08 95       	ret

0000192a <Cmd_TEC_disable_auto_control>:
//
//*****************************************************************************
int
Cmd_TEC_disable_auto_control(int argc, char *argv[])
{
		  if (argc < 2) return CMDLINE_TOO_FEW_ARGS;
    192a:	82 30       	cpi	r24, 0x02	; 2
    192c:	91 05       	cpc	r25, r1
    192e:	7c f0       	brlt	.+30     	; 0x194e <Cmd_TEC_disable_auto_control+0x24>
		  if (argc >2) return CMDLINE_TOO_MANY_ARGS;
    1930:	03 97       	sbiw	r24, 0x03	; 3
    1932:	84 f4       	brge	.+32     	; 0x1954 <Cmd_TEC_disable_auto_control+0x2a>
    1934:	fb 01       	movw	r30, r22
		  uint8_t channel = atoi(argv[1]);
    1936:	82 81       	ldd	r24, Z+2	; 0x02
    1938:	93 81       	ldd	r25, Z+3	; 0x03
    193a:	0e 94 ad 2f 	call	0x5f5a	; 0x5f5a <atoi>
		  if (channel > 3)	return CMDLINE_INVALID_ARG;
    193e:	84 30       	cpi	r24, 0x04	; 4
    1940:	60 f4       	brcc	.+24     	; 0x195a <Cmd_TEC_disable_auto_control+0x30>
		  temperature_disable_auto_control_TEC(channel << 1);
    1942:	88 0f       	add	r24, r24
    1944:	0e 94 b4 14 	call	0x2968	; 0x2968 <temperature_disable_auto_control_TEC>
		  
		  return CMDLINE_OK;
    1948:	80 e0       	ldi	r24, 0x00	; 0
    194a:	90 e0       	ldi	r25, 0x00	; 0
    194c:	08 95       	ret
//
//*****************************************************************************
int
Cmd_TEC_disable_auto_control(int argc, char *argv[])
{
		  if (argc < 2) return CMDLINE_TOO_FEW_ARGS;
    194e:	83 e0       	ldi	r24, 0x03	; 3
    1950:	90 e0       	ldi	r25, 0x00	; 0
    1952:	08 95       	ret
		  if (argc >2) return CMDLINE_TOO_MANY_ARGS;
    1954:	82 e0       	ldi	r24, 0x02	; 2
    1956:	90 e0       	ldi	r25, 0x00	; 0
    1958:	08 95       	ret
		  uint8_t channel = atoi(argv[1]);
		  if (channel > 3)	return CMDLINE_INVALID_ARG;
    195a:	84 e0       	ldi	r24, 0x04	; 4
    195c:	90 e0       	ldi	r25, 0x00	; 0
		  temperature_disable_auto_control_TEC(channel << 1);
		  
		  return CMDLINE_OK;
}
    195e:	08 95       	ret

00001960 <Cmd_tec_get_status>:

int
Cmd_tec_get_status(int argc, char *argv[])
{

	if (argc >1) return CMDLINE_TOO_MANY_ARGS;
    1960:	02 97       	sbiw	r24, 0x02	; 2
    1962:	2c f4       	brge	.+10     	; 0x196e <Cmd_tec_get_status+0xe>
	temperature_get_status();
    1964:	0e 94 22 17 	call	0x2e44	; 0x2e44 <temperature_get_status>
	return CMDLINE_OK;
    1968:	80 e0       	ldi	r24, 0x00	; 0
    196a:	90 e0       	ldi	r25, 0x00	; 0
    196c:	08 95       	ret

int
Cmd_tec_get_status(int argc, char *argv[])
{

	if (argc >1) return CMDLINE_TOO_MANY_ARGS;
    196e:	82 e0       	ldi	r24, 0x02	; 2
    1970:	90 e0       	ldi	r25, 0x00	; 0
	temperature_get_status();
	return CMDLINE_OK;
	
}
    1972:	08 95       	ret

00001974 <Cmd_TEC_log_enable>:

int
Cmd_TEC_log_enable(int argc, char *argv[])
{

	if (argc >1) return CMDLINE_TOO_MANY_ARGS;
    1974:	02 97       	sbiw	r24, 0x02	; 2
    1976:	2c f4       	brge	.+10     	; 0x1982 <Cmd_TEC_log_enable+0xe>
	temperature_enable_log();
    1978:	0e 94 f3 17 	call	0x2fe6	; 0x2fe6 <temperature_enable_log>
	return CMDLINE_OK;
    197c:	80 e0       	ldi	r24, 0x00	; 0
    197e:	90 e0       	ldi	r25, 0x00	; 0
    1980:	08 95       	ret

int
Cmd_TEC_log_enable(int argc, char *argv[])
{

	if (argc >1) return CMDLINE_TOO_MANY_ARGS;
    1982:	82 e0       	ldi	r24, 0x02	; 2
    1984:	90 e0       	ldi	r25, 0x00	; 0
	temperature_enable_log();
	return CMDLINE_OK;
	
}
    1986:	08 95       	ret

00001988 <Cmd_TEC_log_disable>:

int
Cmd_TEC_log_disable(int argc, char *argv[])
{

	if (argc >1) return CMDLINE_TOO_MANY_ARGS;
    1988:	02 97       	sbiw	r24, 0x02	; 2
    198a:	2c f4       	brge	.+10     	; 0x1996 <Cmd_TEC_log_disable+0xe>
	temperature_disable_log();
    198c:	0e 94 f7 17 	call	0x2fee	; 0x2fee <temperature_disable_log>
	return CMDLINE_OK;
    1990:	80 e0       	ldi	r24, 0x00	; 0
    1992:	90 e0       	ldi	r25, 0x00	; 0
    1994:	08 95       	ret

int
Cmd_TEC_log_disable(int argc, char *argv[])
{

	if (argc >1) return CMDLINE_TOO_MANY_ARGS;
    1996:	82 e0       	ldi	r24, 0x02	; 2
    1998:	90 e0       	ldi	r25, 0x00	; 0
	temperature_disable_log();
	return CMDLINE_OK;
	
}
    199a:	08 95       	ret

0000199c <Cmd_TEC_set_output>:
//
//*****************************************************************************

int
Cmd_TEC_set_output(int argc, char *argv[])
{
    199c:	0f 93       	push	r16
    199e:	1f 93       	push	r17
    19a0:	cf 93       	push	r28
    19a2:	df 93       	push	r29

	if (argc < 4) return CMDLINE_TOO_FEW_ARGS;
    19a4:	84 30       	cpi	r24, 0x04	; 4
    19a6:	91 05       	cpc	r25, r1
    19a8:	dc f0       	brlt	.+54     	; 0x19e0 <Cmd_TEC_set_output+0x44>
	if (argc >4) return CMDLINE_TOO_MANY_ARGS;
    19aa:	05 97       	sbiw	r24, 0x05	; 5
    19ac:	e4 f4       	brge	.+56     	; 0x19e6 <Cmd_TEC_set_output+0x4a>
    19ae:	eb 01       	movw	r28, r22
	uint8_t _heatCool = atoi(argv[2]);
    19b0:	8c 81       	ldd	r24, Y+4	; 0x04
    19b2:	9d 81       	ldd	r25, Y+5	; 0x05
    19b4:	0e 94 ad 2f 	call	0x5f5a	; 0x5f5a <atoi>
    19b8:	08 2f       	mov	r16, r24
	uint8_t _channel = atoi(argv[1]);
    19ba:	8a 81       	ldd	r24, Y+2	; 0x02
    19bc:	9b 81       	ldd	r25, Y+3	; 0x03
    19be:	0e 94 ad 2f 	call	0x5f5a	; 0x5f5a <atoi>
    19c2:	18 2f       	mov	r17, r24
	uint16_t	_voltage = atoi(argv[3]);
    19c4:	8e 81       	ldd	r24, Y+6	; 0x06
    19c6:	9f 81       	ldd	r25, Y+7	; 0x07
    19c8:	0e 94 ad 2f 	call	0x5f5a	; 0x5f5a <atoi>
	if (_channel >=4 )	return CMDLINE_INVALID_ARG;
    19cc:	14 30       	cpi	r17, 0x04	; 4
    19ce:	70 f4       	brcc	.+28     	; 0x19ec <Cmd_TEC_set_output+0x50>
	temperature_set_TEC_output(_channel, _heatCool, _voltage);
    19d0:	ac 01       	movw	r20, r24
    19d2:	60 2f       	mov	r22, r16
    19d4:	81 2f       	mov	r24, r17
    19d6:	0e 94 c8 14 	call	0x2990	; 0x2990 <temperature_set_TEC_output>
	return CMDLINE_OK;
    19da:	80 e0       	ldi	r24, 0x00	; 0
    19dc:	90 e0       	ldi	r25, 0x00	; 0
    19de:	08 c0       	rjmp	.+16     	; 0x19f0 <Cmd_TEC_set_output+0x54>

int
Cmd_TEC_set_output(int argc, char *argv[])
{

	if (argc < 4) return CMDLINE_TOO_FEW_ARGS;
    19e0:	83 e0       	ldi	r24, 0x03	; 3
    19e2:	90 e0       	ldi	r25, 0x00	; 0
    19e4:	05 c0       	rjmp	.+10     	; 0x19f0 <Cmd_TEC_set_output+0x54>
	if (argc >4) return CMDLINE_TOO_MANY_ARGS;
    19e6:	82 e0       	ldi	r24, 0x02	; 2
    19e8:	90 e0       	ldi	r25, 0x00	; 0
    19ea:	02 c0       	rjmp	.+4      	; 0x19f0 <Cmd_TEC_set_output+0x54>
	uint8_t _heatCool = atoi(argv[2]);
	uint8_t _channel = atoi(argv[1]);
	uint16_t	_voltage = atoi(argv[3]);
	if (_channel >=4 )	return CMDLINE_INVALID_ARG;
    19ec:	84 e0       	ldi	r24, 0x04	; 4
    19ee:	90 e0       	ldi	r25, 0x00	; 0
	temperature_set_TEC_output(_channel, _heatCool, _voltage);
	return CMDLINE_OK;
	 
}
    19f0:	df 91       	pop	r29
    19f2:	cf 91       	pop	r28
    19f4:	1f 91       	pop	r17
    19f6:	0f 91       	pop	r16
    19f8:	08 95       	ret

000019fa <Cmd_get_temp_setpoint>:

int
Cmd_get_temp_setpoint(int argc, char *argv[])
{
    19fa:	cf 93       	push	r28
    19fc:	df 93       	push	r29
	if (argc < 2) return CMDLINE_TOO_FEW_ARGS;
    19fe:	82 30       	cpi	r24, 0x02	; 2
    1a00:	91 05       	cpc	r25, r1
    1a02:	04 f1       	brlt	.+64     	; 0x1a44 <Cmd_get_temp_setpoint+0x4a>
	if (argc >2) return CMDLINE_TOO_MANY_ARGS;
    1a04:	03 97       	sbiw	r24, 0x03	; 3
    1a06:	0c f5       	brge	.+66     	; 0x1a4a <Cmd_get_temp_setpoint+0x50>
    1a08:	fb 01       	movw	r30, r22
	uint8_t _channel = atoi(argv[1]);
    1a0a:	82 81       	ldd	r24, Z+2	; 0x02
    1a0c:	93 81       	ldd	r25, Z+3	; 0x03
    1a0e:	0e 94 ad 2f 	call	0x5f5a	; 0x5f5a <atoi>
    1a12:	ec 01       	movw	r28, r24
	uint16_t	_setpoint;
	if (_channel > 2)	return CMDLINE_INVALID_ARG;
    1a14:	83 30       	cpi	r24, 0x03	; 3
    1a16:	e0 f4       	brcc	.+56     	; 0x1a50 <Cmd_get_temp_setpoint+0x56>
	_setpoint = temperature_get_setpoint(_channel);
    1a18:	0e 94 07 17 	call	0x2e0e	; 0x2e0e <temperature_get_setpoint>
	UARTprintf("Setpoint channel[%d]: %d \r\n", _channel, _setpoint);
    1a1c:	9f 93       	push	r25
    1a1e:	8f 93       	push	r24
    1a20:	dd 27       	eor	r29, r29
    1a22:	df 93       	push	r29
    1a24:	cf 93       	push	r28
    1a26:	89 ec       	ldi	r24, 0xC9	; 201
    1a28:	92 e0       	ldi	r25, 0x02	; 2
    1a2a:	9f 93       	push	r25
    1a2c:	8f 93       	push	r24
    1a2e:	0e 94 53 1f 	call	0x3ea6	; 0x3ea6 <UARTprintf>
	return CMDLINE_OK;
    1a32:	0f 90       	pop	r0
    1a34:	0f 90       	pop	r0
    1a36:	0f 90       	pop	r0
    1a38:	0f 90       	pop	r0
    1a3a:	0f 90       	pop	r0
    1a3c:	0f 90       	pop	r0
    1a3e:	80 e0       	ldi	r24, 0x00	; 0
    1a40:	90 e0       	ldi	r25, 0x00	; 0
    1a42:	08 c0       	rjmp	.+16     	; 0x1a54 <Cmd_get_temp_setpoint+0x5a>
}

int
Cmd_get_temp_setpoint(int argc, char *argv[])
{
	if (argc < 2) return CMDLINE_TOO_FEW_ARGS;
    1a44:	83 e0       	ldi	r24, 0x03	; 3
    1a46:	90 e0       	ldi	r25, 0x00	; 0
    1a48:	05 c0       	rjmp	.+10     	; 0x1a54 <Cmd_get_temp_setpoint+0x5a>
	if (argc >2) return CMDLINE_TOO_MANY_ARGS;
    1a4a:	82 e0       	ldi	r24, 0x02	; 2
    1a4c:	90 e0       	ldi	r25, 0x00	; 0
    1a4e:	02 c0       	rjmp	.+4      	; 0x1a54 <Cmd_get_temp_setpoint+0x5a>
	uint8_t _channel = atoi(argv[1]);
	uint16_t	_setpoint;
	if (_channel > 2)	return CMDLINE_INVALID_ARG;
    1a50:	84 e0       	ldi	r24, 0x04	; 4
    1a52:	90 e0       	ldi	r25, 0x00	; 0
	_setpoint = temperature_get_setpoint(_channel);
	UARTprintf("Setpoint channel[%d]: %d \r\n", _channel, _setpoint);
	return CMDLINE_OK;
}
    1a54:	df 91       	pop	r29
    1a56:	cf 91       	pop	r28
    1a58:	08 95       	ret

00001a5a <Cmd_ringled_set_RGBW>:

int
Cmd_ringled_set_RGBW(int argc, char *argv[])
{
    1a5a:	ff 92       	push	r15
    1a5c:	0f 93       	push	r16
    1a5e:	1f 93       	push	r17
    1a60:	cf 93       	push	r28
    1a62:	df 93       	push	r29
	if (argc < 5) return CMDLINE_TOO_FEW_ARGS;
    1a64:	85 30       	cpi	r24, 0x05	; 5
    1a66:	91 05       	cpc	r25, r1
    1a68:	fc f0       	brlt	.+62     	; 0x1aa8 <Cmd_ringled_set_RGBW+0x4e>
	if (argc > 5) return CMDLINE_TOO_MANY_ARGS;
    1a6a:	06 97       	sbiw	r24, 0x06	; 6
    1a6c:	04 f5       	brge	.+64     	; 0x1aae <Cmd_ringled_set_RGBW+0x54>
    1a6e:	eb 01       	movw	r28, r22
	uint8_t _red = atoi(argv[1]);
    1a70:	8a 81       	ldd	r24, Y+2	; 0x02
    1a72:	9b 81       	ldd	r25, Y+3	; 0x03
    1a74:	0e 94 ad 2f 	call	0x5f5a	; 0x5f5a <atoi>
    1a78:	18 2f       	mov	r17, r24
	uint8_t _green = atoi(argv[2]);
    1a7a:	8c 81       	ldd	r24, Y+4	; 0x04
    1a7c:	9d 81       	ldd	r25, Y+5	; 0x05
    1a7e:	0e 94 ad 2f 	call	0x5f5a	; 0x5f5a <atoi>
    1a82:	08 2f       	mov	r16, r24
	uint8_t _blue = atoi(argv[3]);
    1a84:	8e 81       	ldd	r24, Y+6	; 0x06
    1a86:	9f 81       	ldd	r25, Y+7	; 0x07
    1a88:	0e 94 ad 2f 	call	0x5f5a	; 0x5f5a <atoi>
    1a8c:	f8 2e       	mov	r15, r24
	uint8_t _white = atoi(argv[4]);
    1a8e:	88 85       	ldd	r24, Y+8	; 0x08
    1a90:	99 85       	ldd	r25, Y+9	; 0x09
    1a92:	0e 94 ad 2f 	call	0x5f5a	; 0x5f5a <atoi>
	ringled_set_RGBW(_red, _green, _blue, _white);
    1a96:	28 2f       	mov	r18, r24
    1a98:	4f 2d       	mov	r20, r15
    1a9a:	60 2f       	mov	r22, r16
    1a9c:	81 2f       	mov	r24, r17
    1a9e:	0e 94 6d 25 	call	0x4ada	; 0x4ada <ringled_set_RGBW>
	return CMDLINE_OK;
    1aa2:	80 e0       	ldi	r24, 0x00	; 0
    1aa4:	90 e0       	ldi	r25, 0x00	; 0
    1aa6:	05 c0       	rjmp	.+10     	; 0x1ab2 <Cmd_ringled_set_RGBW+0x58>
}

int
Cmd_ringled_set_RGBW(int argc, char *argv[])
{
	if (argc < 5) return CMDLINE_TOO_FEW_ARGS;
    1aa8:	83 e0       	ldi	r24, 0x03	; 3
    1aaa:	90 e0       	ldi	r25, 0x00	; 0
    1aac:	02 c0       	rjmp	.+4      	; 0x1ab2 <Cmd_ringled_set_RGBW+0x58>
	if (argc > 5) return CMDLINE_TOO_MANY_ARGS;
    1aae:	82 e0       	ldi	r24, 0x02	; 2
    1ab0:	90 e0       	ldi	r25, 0x00	; 0
	uint8_t _green = atoi(argv[2]);
	uint8_t _blue = atoi(argv[3]);
	uint8_t _white = atoi(argv[4]);
	ringled_set_RGBW(_red, _green, _blue, _white);
	return CMDLINE_OK;
}
    1ab2:	df 91       	pop	r29
    1ab4:	cf 91       	pop	r28
    1ab6:	1f 91       	pop	r17
    1ab8:	0f 91       	pop	r16
    1aba:	ff 90       	pop	r15
    1abc:	08 95       	ret

00001abe <Cmd_ringled_get_RGBW>:

int
Cmd_ringled_get_RGBW(int argc, char *argv[])
{
	if (argc > 1) return CMDLINE_TOO_MANY_ARGS;
    1abe:	02 97       	sbiw	r24, 0x02	; 2
    1ac0:	dc f4       	brge	.+54     	; 0x1af8 <Cmd_ringled_get_RGBW+0x3a>
	rgbw_color RGB = ringled_get_RGBW();
    1ac2:	0e 94 85 25 	call	0x4b0a	; 0x4b0a <ringled_get_RGBW>
	UARTprintf("Ringled: RED = %d, GREEN = %d, BLUE = %d, WHITE = %d \r\n", RGB.red, RGB.green, RGB.blue, RGB.white);
    1ac6:	1f 92       	push	r1
    1ac8:	9f 93       	push	r25
    1aca:	1f 92       	push	r1
    1acc:	8f 93       	push	r24
    1ace:	1f 92       	push	r1
    1ad0:	7f 93       	push	r23
    1ad2:	1f 92       	push	r1
    1ad4:	6f 93       	push	r22
    1ad6:	85 ee       	ldi	r24, 0xE5	; 229
    1ad8:	92 e0       	ldi	r25, 0x02	; 2
    1ada:	9f 93       	push	r25
    1adc:	8f 93       	push	r24
    1ade:	0e 94 53 1f 	call	0x3ea6	; 0x3ea6 <UARTprintf>
	return CMDLINE_OK;
    1ae2:	8d b7       	in	r24, 0x3d	; 61
    1ae4:	9e b7       	in	r25, 0x3e	; 62
    1ae6:	0a 96       	adiw	r24, 0x0a	; 10
    1ae8:	0f b6       	in	r0, 0x3f	; 63
    1aea:	f8 94       	cli
    1aec:	9e bf       	out	0x3e, r25	; 62
    1aee:	0f be       	out	0x3f, r0	; 63
    1af0:	8d bf       	out	0x3d, r24	; 61
    1af2:	80 e0       	ldi	r24, 0x00	; 0
    1af4:	90 e0       	ldi	r25, 0x00	; 0
    1af6:	08 95       	ret
}

int
Cmd_ringled_get_RGBW(int argc, char *argv[])
{
	if (argc > 1) return CMDLINE_TOO_MANY_ARGS;
    1af8:	82 e0       	ldi	r24, 0x02	; 2
    1afa:	90 e0       	ldi	r25, 0x00	; 0
	rgbw_color RGB = ringled_get_RGBW();
	UARTprintf("Ringled: RED = %d, GREEN = %d, BLUE = %d, WHITE = %d \r\n", RGB.red, RGB.green, RGB.blue, RGB.white);
	return CMDLINE_OK;
}
    1afc:	08 95       	ret

00001afe <Cmd_IRled_set_bright>:

int
Cmd_IRled_set_bright(int argc, char *argv[])
{
    1afe:	cf 93       	push	r28
    1b00:	df 93       	push	r29
	if (argc < 2) return CMDLINE_TOO_FEW_ARGS;
    1b02:	82 30       	cpi	r24, 0x02	; 2
    1b04:	91 05       	cpc	r25, r1
    1b06:	ec f0       	brlt	.+58     	; 0x1b42 <Cmd_IRled_set_bright+0x44>
	if (argc > 2) return CMDLINE_TOO_MANY_ARGS;
    1b08:	03 97       	sbiw	r24, 0x03	; 3
    1b0a:	f4 f4       	brge	.+60     	; 0x1b48 <Cmd_IRled_set_bright+0x4a>
    1b0c:	eb 01       	movw	r28, r22
	
	uint8_t _DutyCyclePercent = atoi(argv[1]);
    1b0e:	8a 81       	ldd	r24, Y+2	; 0x02
    1b10:	9b 81       	ldd	r25, Y+3	; 0x03
    1b12:	0e 94 ad 2f 	call	0x5f5a	; 0x5f5a <atoi>
	if (_DutyCyclePercent > 100)
	{
		//UARTprintf("WARNING: Duty cycle ranges from 0 to 100 percent");
		_DutyCyclePercent = 100;
	}
	IR_led_set_DutyCyclesPercent(_DutyCyclePercent);
    1b16:	85 36       	cpi	r24, 0x65	; 101
    1b18:	08 f0       	brcs	.+2      	; 0x1b1c <Cmd_IRled_set_bright+0x1e>
    1b1a:	84 e6       	ldi	r24, 0x64	; 100
    1b1c:	0e 94 7a 13 	call	0x26f4	; 0x26f4 <IR_led_set_DutyCyclesPercent>
	UARTprintf("Led IR set brightness is %s %% \r\n",argv[1]);
    1b20:	8b 81       	ldd	r24, Y+3	; 0x03
    1b22:	8f 93       	push	r24
    1b24:	8a 81       	ldd	r24, Y+2	; 0x02
    1b26:	8f 93       	push	r24
    1b28:	8d e1       	ldi	r24, 0x1D	; 29
    1b2a:	93 e0       	ldi	r25, 0x03	; 3
    1b2c:	9f 93       	push	r25
    1b2e:	8f 93       	push	r24
    1b30:	0e 94 53 1f 	call	0x3ea6	; 0x3ea6 <UARTprintf>
	return CMDLINE_OK;
    1b34:	0f 90       	pop	r0
    1b36:	0f 90       	pop	r0
    1b38:	0f 90       	pop	r0
    1b3a:	0f 90       	pop	r0
    1b3c:	80 e0       	ldi	r24, 0x00	; 0
    1b3e:	90 e0       	ldi	r25, 0x00	; 0
    1b40:	05 c0       	rjmp	.+10     	; 0x1b4c <Cmd_IRled_set_bright+0x4e>
}

int
Cmd_IRled_set_bright(int argc, char *argv[])
{
	if (argc < 2) return CMDLINE_TOO_FEW_ARGS;
    1b42:	83 e0       	ldi	r24, 0x03	; 3
    1b44:	90 e0       	ldi	r25, 0x00	; 0
    1b46:	02 c0       	rjmp	.+4      	; 0x1b4c <Cmd_IRled_set_bright+0x4e>
	if (argc > 2) return CMDLINE_TOO_MANY_ARGS;
    1b48:	82 e0       	ldi	r24, 0x02	; 2
    1b4a:	90 e0       	ldi	r25, 0x00	; 0
		_DutyCyclePercent = 100;
	}
	IR_led_set_DutyCyclesPercent(_DutyCyclePercent);
	UARTprintf("Led IR set brightness is %s %% \r\n",argv[1]);
	return CMDLINE_OK;
}
    1b4c:	df 91       	pop	r29
    1b4e:	cf 91       	pop	r28
    1b50:	08 95       	ret

00001b52 <Cmd_IRled_get_bright>:

int
Cmd_IRled_get_bright(int argc, char *argv[])
{
	if (argc > 1) return CMDLINE_TOO_MANY_ARGS;
    1b52:	02 97       	sbiw	r24, 0x02	; 2
    1b54:	8c f4       	brge	.+34     	; 0x1b78 <Cmd_IRled_get_bright+0x26>
	uint8_t Current_DutyCyclePercent = IR_led_get_Current_DutyCyclesPercent();
    1b56:	0e 94 86 13 	call	0x270c	; 0x270c <IR_led_get_Current_DutyCyclesPercent>
	UARTprintf("Led IR's brightness is %d %% \r\n",Current_DutyCyclePercent);
    1b5a:	1f 92       	push	r1
    1b5c:	8f 93       	push	r24
    1b5e:	8f e3       	ldi	r24, 0x3F	; 63
    1b60:	93 e0       	ldi	r25, 0x03	; 3
    1b62:	9f 93       	push	r25
    1b64:	8f 93       	push	r24
    1b66:	0e 94 53 1f 	call	0x3ea6	; 0x3ea6 <UARTprintf>
	return CMDLINE_OK;
    1b6a:	0f 90       	pop	r0
    1b6c:	0f 90       	pop	r0
    1b6e:	0f 90       	pop	r0
    1b70:	0f 90       	pop	r0
    1b72:	80 e0       	ldi	r24, 0x00	; 0
    1b74:	90 e0       	ldi	r25, 0x00	; 0
    1b76:	08 95       	ret
}

int
Cmd_IRled_get_bright(int argc, char *argv[])
{
	if (argc > 1) return CMDLINE_TOO_MANY_ARGS;
    1b78:	82 e0       	ldi	r24, 0x02	; 2
    1b7a:	90 e0       	ldi	r25, 0x00	; 0
	uint8_t Current_DutyCyclePercent = IR_led_get_Current_DutyCyclesPercent();
	UARTprintf("Led IR's brightness is %d %% \r\n",Current_DutyCyclePercent);
	return CMDLINE_OK;
}
    1b7c:	08 95       	ret

00001b7e <Cmd_get_acceleration_gyroscope>:

int
Cmd_get_acceleration_gyroscope(int argc, char *argv[])
{
    1b7e:	0f 93       	push	r16
    1b80:	1f 93       	push	r17
    1b82:	cf 93       	push	r28
    1b84:	df 93       	push	r29
    1b86:	cd b7       	in	r28, 0x3d	; 61
    1b88:	de b7       	in	r29, 0x3e	; 62
    1b8a:	a0 97       	sbiw	r28, 0x20	; 32
    1b8c:	0f b6       	in	r0, 0x3f	; 63
    1b8e:	f8 94       	cli
    1b90:	de bf       	out	0x3e, r29	; 62
    1b92:	0f be       	out	0x3f, r0	; 63
    1b94:	cd bf       	out	0x3d, r28	; 61
	if (argc > 1) return CMDLINE_TOO_MANY_ARGS;
    1b96:	02 97       	sbiw	r24, 0x02	; 2
    1b98:	0c f0       	brlt	.+2      	; 0x1b9c <Cmd_get_acceleration_gyroscope+0x1e>
    1b9a:	59 c0       	rjmp	.+178    	; 0x1c4e <Cmd_get_acceleration_gyroscope+0xd0>
	Accel_Gyro_DataTypedef _accel_data = get_acceleration();
    1b9c:	0e 94 c1 09 	call	0x1382	; 0x1382 <get_acceleration>
    1ba0:	29 83       	std	Y+1, r18	; 0x01
    1ba2:	3a 83       	std	Y+2, r19	; 0x02
    1ba4:	4b 83       	std	Y+3, r20	; 0x03
    1ba6:	5c 83       	std	Y+4, r21	; 0x04
    1ba8:	6d 83       	std	Y+5, r22	; 0x05
    1baa:	7e 83       	std	Y+6, r23	; 0x06
	Accel_Gyro_DataTypedef _gyro_data = get_gyroscope();
    1bac:	0e 94 e2 09 	call	0x13c4	; 0x13c4 <get_gyroscope>
    1bb0:	2f 83       	std	Y+7, r18	; 0x07
    1bb2:	38 87       	std	Y+8, r19	; 0x08
    1bb4:	49 87       	std	Y+9, r20	; 0x09
    1bb6:	5a 87       	std	Y+10, r21	; 0x0a
    1bb8:	6b 87       	std	Y+11, r22	; 0x0b
    1bba:	7c 87       	std	Y+12, r23	; 0x0c
	char buffer[20];
	sprintf(buffer,"Acceleration %i %i %i \r\n", _accel_data.x, _accel_data.y, _accel_data.z);
    1bbc:	8e 81       	ldd	r24, Y+6	; 0x06
    1bbe:	8f 93       	push	r24
    1bc0:	8d 81       	ldd	r24, Y+5	; 0x05
    1bc2:	8f 93       	push	r24
    1bc4:	8c 81       	ldd	r24, Y+4	; 0x04
    1bc6:	8f 93       	push	r24
    1bc8:	8b 81       	ldd	r24, Y+3	; 0x03
    1bca:	8f 93       	push	r24
    1bcc:	8a 81       	ldd	r24, Y+2	; 0x02
    1bce:	8f 93       	push	r24
    1bd0:	89 81       	ldd	r24, Y+1	; 0x01
    1bd2:	8f 93       	push	r24
    1bd4:	8f e5       	ldi	r24, 0x5F	; 95
    1bd6:	93 e0       	ldi	r25, 0x03	; 3
    1bd8:	9f 93       	push	r25
    1bda:	8f 93       	push	r24
    1bdc:	8e 01       	movw	r16, r28
    1bde:	03 5f       	subi	r16, 0xF3	; 243
    1be0:	1f 4f       	sbci	r17, 0xFF	; 255
    1be2:	1f 93       	push	r17
    1be4:	0f 93       	push	r16
    1be6:	0e 94 06 31 	call	0x620c	; 0x620c <sprintf>
	usart0_send_array(buffer, strlen(buffer));
    1bea:	f8 01       	movw	r30, r16
    1bec:	01 90       	ld	r0, Z+
    1bee:	00 20       	and	r0, r0
    1bf0:	e9 f7       	brne	.-6      	; 0x1bec <Cmd_get_acceleration_gyroscope+0x6e>
    1bf2:	31 97       	sbiw	r30, 0x01	; 1
    1bf4:	bf 01       	movw	r22, r30
    1bf6:	60 1b       	sub	r22, r16
    1bf8:	71 0b       	sbc	r23, r17
    1bfa:	c8 01       	movw	r24, r16
    1bfc:	0e 94 80 1a 	call	0x3500	; 0x3500 <usart0_send_array>
	sprintf(buffer,"Gyroscope %i %i %i\r\n", _gyro_data.x, _gyro_data.y, _gyro_data.z);
    1c00:	8c 85       	ldd	r24, Y+12	; 0x0c
    1c02:	8f 93       	push	r24
    1c04:	8b 85       	ldd	r24, Y+11	; 0x0b
    1c06:	8f 93       	push	r24
    1c08:	8a 85       	ldd	r24, Y+10	; 0x0a
    1c0a:	8f 93       	push	r24
    1c0c:	89 85       	ldd	r24, Y+9	; 0x09
    1c0e:	8f 93       	push	r24
    1c10:	88 85       	ldd	r24, Y+8	; 0x08
    1c12:	8f 93       	push	r24
    1c14:	8f 81       	ldd	r24, Y+7	; 0x07
    1c16:	8f 93       	push	r24
    1c18:	88 e7       	ldi	r24, 0x78	; 120
    1c1a:	93 e0       	ldi	r25, 0x03	; 3
    1c1c:	9f 93       	push	r25
    1c1e:	8f 93       	push	r24
    1c20:	1f 93       	push	r17
    1c22:	0f 93       	push	r16
    1c24:	0e 94 06 31 	call	0x620c	; 0x620c <sprintf>
	usart0_send_array(buffer, strlen(buffer));
    1c28:	f8 01       	movw	r30, r16
    1c2a:	01 90       	ld	r0, Z+
    1c2c:	00 20       	and	r0, r0
    1c2e:	e9 f7       	brne	.-6      	; 0x1c2a <Cmd_get_acceleration_gyroscope+0xac>
    1c30:	31 97       	sbiw	r30, 0x01	; 1
    1c32:	bf 01       	movw	r22, r30
    1c34:	60 1b       	sub	r22, r16
    1c36:	71 0b       	sbc	r23, r17
    1c38:	c8 01       	movw	r24, r16
    1c3a:	0e 94 80 1a 	call	0x3500	; 0x3500 <usart0_send_array>
	return CMDLINE_OK;
    1c3e:	0f b6       	in	r0, 0x3f	; 63
    1c40:	f8 94       	cli
    1c42:	de bf       	out	0x3e, r29	; 62
    1c44:	0f be       	out	0x3f, r0	; 63
    1c46:	cd bf       	out	0x3d, r28	; 61
    1c48:	80 e0       	ldi	r24, 0x00	; 0
    1c4a:	90 e0       	ldi	r25, 0x00	; 0
    1c4c:	02 c0       	rjmp	.+4      	; 0x1c52 <Cmd_get_acceleration_gyroscope+0xd4>
}

int
Cmd_get_acceleration_gyroscope(int argc, char *argv[])
{
	if (argc > 1) return CMDLINE_TOO_MANY_ARGS;
    1c4e:	82 e0       	ldi	r24, 0x02	; 2
    1c50:	90 e0       	ldi	r25, 0x00	; 0
	sprintf(buffer,"Acceleration %i %i %i \r\n", _accel_data.x, _accel_data.y, _accel_data.z);
	usart0_send_array(buffer, strlen(buffer));
	sprintf(buffer,"Gyroscope %i %i %i\r\n", _gyro_data.x, _gyro_data.y, _gyro_data.z);
	usart0_send_array(buffer, strlen(buffer));
	return CMDLINE_OK;
}
    1c52:	a0 96       	adiw	r28, 0x20	; 32
    1c54:	0f b6       	in	r0, 0x3f	; 63
    1c56:	f8 94       	cli
    1c58:	de bf       	out	0x3e, r29	; 62
    1c5a:	0f be       	out	0x3f, r0	; 63
    1c5c:	cd bf       	out	0x3d, r28	; 61
    1c5e:	df 91       	pop	r29
    1c60:	cf 91       	pop	r28
    1c62:	1f 91       	pop	r17
    1c64:	0f 91       	pop	r16
    1c66:	08 95       	ret

00001c68 <Cmd_get_pressure>:

int
Cmd_get_pressure(int argc, char *argv[])
{
	if (argc > 1) return CMDLINE_TOO_MANY_ARGS;
    1c68:	02 97       	sbiw	r24, 0x02	; 2
    1c6a:	8c f4       	brge	.+34     	; 0x1c8e <Cmd_get_pressure+0x26>
	uint16_t _pressure = get_pressure();
    1c6c:	0e 94 63 14 	call	0x28c6	; 0x28c6 <get_pressure>
	UARTprintf("Press: %d\r\n", _pressure);
    1c70:	9f 93       	push	r25
    1c72:	8f 93       	push	r24
    1c74:	8d e8       	ldi	r24, 0x8D	; 141
    1c76:	93 e0       	ldi	r25, 0x03	; 3
    1c78:	9f 93       	push	r25
    1c7a:	8f 93       	push	r24
    1c7c:	0e 94 53 1f 	call	0x3ea6	; 0x3ea6 <UARTprintf>
	return CMDLINE_OK;
    1c80:	0f 90       	pop	r0
    1c82:	0f 90       	pop	r0
    1c84:	0f 90       	pop	r0
    1c86:	0f 90       	pop	r0
    1c88:	80 e0       	ldi	r24, 0x00	; 0
    1c8a:	90 e0       	ldi	r25, 0x00	; 0
    1c8c:	08 95       	ret
}

int
Cmd_get_pressure(int argc, char *argv[])
{
	if (argc > 1) return CMDLINE_TOO_MANY_ARGS;
    1c8e:	82 e0       	ldi	r24, 0x02	; 2
    1c90:	90 e0       	ldi	r25, 0x00	; 0
	uint16_t _pressure = get_pressure();
	UARTprintf("Press: %d\r\n", _pressure);
	return CMDLINE_OK;
}
    1c92:	08 95       	ret

00001c94 <Cmd_get_parameters>:

int
Cmd_get_parameters(int argc, char *argv[])
{
    1c94:	cf 92       	push	r12
    1c96:	df 92       	push	r13
    1c98:	ef 92       	push	r14
    1c9a:	ff 92       	push	r15
    1c9c:	0f 93       	push	r16
    1c9e:	1f 93       	push	r17
    1ca0:	cf 93       	push	r28
    1ca2:	df 93       	push	r29
    1ca4:	cd b7       	in	r28, 0x3d	; 61
    1ca6:	de b7       	in	r29, 0x3e	; 62
    1ca8:	a0 97       	sbiw	r28, 0x20	; 32
    1caa:	0f b6       	in	r0, 0x3f	; 63
    1cac:	f8 94       	cli
    1cae:	de bf       	out	0x3e, r29	; 62
    1cb0:	0f be       	out	0x3f, r0	; 63
    1cb2:	cd bf       	out	0x3d, r28	; 61
    1cb4:	00 e0       	ldi	r16, 0x00	; 0
    1cb6:	10 e0       	ldi	r17, 0x00	; 0
	char buffer[20];
	for (uint8_t i = 0; i < 4; i++)
	{
		sprintf(buffer, "NTC[%d]: %i",i , temperature_get_NTC(i));
    1cb8:	0f 2e       	mov	r0, r31
    1cba:	f0 e7       	ldi	r31, 0x70	; 112
    1cbc:	cf 2e       	mov	r12, r31
    1cbe:	f2 e0       	ldi	r31, 0x02	; 2
    1cc0:	df 2e       	mov	r13, r31
    1cc2:	f0 2d       	mov	r31, r0
    1cc4:	ce 01       	movw	r24, r28
    1cc6:	01 96       	adiw	r24, 0x01	; 1
    1cc8:	7c 01       	movw	r14, r24
    1cca:	80 2f       	mov	r24, r16
    1ccc:	0e 94 76 14 	call	0x28ec	; 0x28ec <temperature_get_NTC>
    1cd0:	9f 93       	push	r25
    1cd2:	8f 93       	push	r24
    1cd4:	1f 93       	push	r17
    1cd6:	0f 93       	push	r16
    1cd8:	df 92       	push	r13
    1cda:	cf 92       	push	r12
    1cdc:	ff 92       	push	r15
    1cde:	ef 92       	push	r14
    1ce0:	0e 94 06 31 	call	0x620c	; 0x620c <sprintf>
		usart0_send_array(buffer, strlen(buffer));
    1ce4:	f7 01       	movw	r30, r14
    1ce6:	01 90       	ld	r0, Z+
    1ce8:	00 20       	and	r0, r0
    1cea:	e9 f7       	brne	.-6      	; 0x1ce6 <Cmd_get_parameters+0x52>
    1cec:	31 97       	sbiw	r30, 0x01	; 1
    1cee:	bf 01       	movw	r22, r30
    1cf0:	6e 19       	sub	r22, r14
    1cf2:	7f 09       	sbc	r23, r15
    1cf4:	c7 01       	movw	r24, r14
    1cf6:	0e 94 80 1a 	call	0x3500	; 0x3500 <usart0_send_array>
    1cfa:	0f 5f       	subi	r16, 0xFF	; 255
    1cfc:	1f 4f       	sbci	r17, 0xFF	; 255

int
Cmd_get_parameters(int argc, char *argv[])
{
	char buffer[20];
	for (uint8_t i = 0; i < 4; i++)
    1cfe:	0f b6       	in	r0, 0x3f	; 63
    1d00:	f8 94       	cli
    1d02:	de bf       	out	0x3e, r29	; 62
    1d04:	0f be       	out	0x3f, r0	; 63
    1d06:	cd bf       	out	0x3d, r28	; 61
    1d08:	04 30       	cpi	r16, 0x04	; 4
    1d0a:	11 05       	cpc	r17, r1
    1d0c:	f1 f6       	brne	.-68     	; 0x1cca <Cmd_get_parameters+0x36>
	{
		sprintf(buffer, "NTC[%d]: %i",i , temperature_get_NTC(i));
		usart0_send_array(buffer, strlen(buffer));
	}
	UARTprintf("Status TEC:");
    1d0e:	89 e9       	ldi	r24, 0x99	; 153
    1d10:	93 e0       	ldi	r25, 0x03	; 3
    1d12:	9f 93       	push	r25
    1d14:	8f 93       	push	r24
    1d16:	0e 94 53 1f 	call	0x3ea6	; 0x3ea6 <UARTprintf>
	temperature_get_status();
    1d1a:	0e 94 22 17 	call	0x2e44	; 0x2e44 <temperature_get_status>
	rgbw_color RGBW = ringled_get_RGBW();
    1d1e:	0e 94 85 25 	call	0x4b0a	; 0x4b0a <ringled_get_RGBW>
	UARTprintf("RINLED: R=%d, G=%d, B=%d, W=%d\r\n", RGBW.red, RGBW.green, RGBW.blue, RGBW.white);
    1d22:	1f 92       	push	r1
    1d24:	9f 93       	push	r25
    1d26:	1f 92       	push	r1
    1d28:	8f 93       	push	r24
    1d2a:	1f 92       	push	r1
    1d2c:	7f 93       	push	r23
    1d2e:	1f 92       	push	r1
    1d30:	6f 93       	push	r22
    1d32:	85 ea       	ldi	r24, 0xA5	; 165
    1d34:	93 e0       	ldi	r25, 0x03	; 3
    1d36:	9f 93       	push	r25
    1d38:	8f 93       	push	r24
    1d3a:	0e 94 53 1f 	call	0x3ea6	; 0x3ea6 <UARTprintf>
	UARTprintf("IRLED: duty %d %%\r\n", IR_led_get_Current_DutyCyclesPercent());
    1d3e:	0e 94 86 13 	call	0x270c	; 0x270c <IR_led_get_Current_DutyCyclesPercent>
    1d42:	1f 92       	push	r1
    1d44:	8f 93       	push	r24
    1d46:	86 ec       	ldi	r24, 0xC6	; 198
    1d48:	93 e0       	ldi	r25, 0x03	; 3
    1d4a:	9f 93       	push	r25
    1d4c:	8f 93       	push	r24
    1d4e:	0e 94 53 1f 	call	0x3ea6	; 0x3ea6 <UARTprintf>
	
	// Accel and Gyro
	Accel_Gyro_DataTypedef _accel_data = get_acceleration();
    1d52:	0e 94 c1 09 	call	0x1382	; 0x1382 <get_acceleration>
    1d56:	2d 8b       	std	Y+21, r18	; 0x15
    1d58:	3e 8b       	std	Y+22, r19	; 0x16
    1d5a:	4f 8b       	std	Y+23, r20	; 0x17
    1d5c:	58 8f       	std	Y+24, r21	; 0x18
    1d5e:	69 8f       	std	Y+25, r22	; 0x19
    1d60:	7a 8f       	std	Y+26, r23	; 0x1a
	Accel_Gyro_DataTypedef _gyro_data = get_gyroscope();
    1d62:	0e 94 e2 09 	call	0x13c4	; 0x13c4 <get_gyroscope>
    1d66:	2b 8f       	std	Y+27, r18	; 0x1b
    1d68:	3c 8f       	std	Y+28, r19	; 0x1c
    1d6a:	4d 8f       	std	Y+29, r20	; 0x1d
    1d6c:	5e 8f       	std	Y+30, r21	; 0x1e
    1d6e:	6f 8f       	std	Y+31, r22	; 0x1f
    1d70:	78 a3       	std	Y+32, r23	; 0x20
	sprintf(buffer,"Acceleration %i %i %i \r\n", _accel_data.x, _accel_data.y, _accel_data.z);
    1d72:	8a 8d       	ldd	r24, Y+26	; 0x1a
    1d74:	8f 93       	push	r24
    1d76:	89 8d       	ldd	r24, Y+25	; 0x19
    1d78:	8f 93       	push	r24
    1d7a:	88 8d       	ldd	r24, Y+24	; 0x18
    1d7c:	8f 93       	push	r24
    1d7e:	8f 89       	ldd	r24, Y+23	; 0x17
    1d80:	8f 93       	push	r24
    1d82:	8e 89       	ldd	r24, Y+22	; 0x16
    1d84:	8f 93       	push	r24
    1d86:	8d 89       	ldd	r24, Y+21	; 0x15
    1d88:	8f 93       	push	r24
    1d8a:	8f e5       	ldi	r24, 0x5F	; 95
    1d8c:	93 e0       	ldi	r25, 0x03	; 3
    1d8e:	9f 93       	push	r25
    1d90:	8f 93       	push	r24
    1d92:	8e 01       	movw	r16, r28
    1d94:	0f 5f       	subi	r16, 0xFF	; 255
    1d96:	1f 4f       	sbci	r17, 0xFF	; 255
    1d98:	1f 93       	push	r17
    1d9a:	0f 93       	push	r16
    1d9c:	0e 94 06 31 	call	0x620c	; 0x620c <sprintf>
	usart0_send_array(buffer, strlen(buffer));
    1da0:	f8 01       	movw	r30, r16
    1da2:	01 90       	ld	r0, Z+
    1da4:	00 20       	and	r0, r0
    1da6:	e9 f7       	brne	.-6      	; 0x1da2 <Cmd_get_parameters+0x10e>
    1da8:	31 97       	sbiw	r30, 0x01	; 1
    1daa:	bf 01       	movw	r22, r30
    1dac:	60 1b       	sub	r22, r16
    1dae:	71 0b       	sbc	r23, r17
    1db0:	c8 01       	movw	r24, r16
    1db2:	0e 94 80 1a 	call	0x3500	; 0x3500 <usart0_send_array>
	sprintf(buffer,"Gyroscope %i %i %i\r\n", _gyro_data.x, _gyro_data.y, _gyro_data.z);
    1db6:	88 a1       	ldd	r24, Y+32	; 0x20
    1db8:	8f 93       	push	r24
    1dba:	8f 8d       	ldd	r24, Y+31	; 0x1f
    1dbc:	8f 93       	push	r24
    1dbe:	8e 8d       	ldd	r24, Y+30	; 0x1e
    1dc0:	8f 93       	push	r24
    1dc2:	8d 8d       	ldd	r24, Y+29	; 0x1d
    1dc4:	8f 93       	push	r24
    1dc6:	8c 8d       	ldd	r24, Y+28	; 0x1c
    1dc8:	8f 93       	push	r24
    1dca:	8b 8d       	ldd	r24, Y+27	; 0x1b
    1dcc:	8f 93       	push	r24
    1dce:	88 e7       	ldi	r24, 0x78	; 120
    1dd0:	93 e0       	ldi	r25, 0x03	; 3
    1dd2:	9f 93       	push	r25
    1dd4:	8f 93       	push	r24
    1dd6:	1f 93       	push	r17
    1dd8:	0f 93       	push	r16
    1dda:	0e 94 06 31 	call	0x620c	; 0x620c <sprintf>
	usart0_send_array(buffer, strlen(buffer));
    1dde:	f8 01       	movw	r30, r16
    1de0:	01 90       	ld	r0, Z+
    1de2:	00 20       	and	r0, r0
    1de4:	e9 f7       	brne	.-6      	; 0x1de0 <Cmd_get_parameters+0x14c>
    1de6:	31 97       	sbiw	r30, 0x01	; 1
    1de8:	bf 01       	movw	r22, r30
    1dea:	60 1b       	sub	r22, r16
    1dec:	71 0b       	sbc	r23, r17
    1dee:	0f b6       	in	r0, 0x3f	; 63
    1df0:	f8 94       	cli
    1df2:	de bf       	out	0x3e, r29	; 62
    1df4:	0f be       	out	0x3f, r0	; 63
    1df6:	cd bf       	out	0x3d, r28	; 61
    1df8:	c8 01       	movw	r24, r16
    1dfa:	0e 94 80 1a 	call	0x3500	; 0x3500 <usart0_send_array>
	
	// Pressure
	uint16_t _pressure_data = get_pressure();
    1dfe:	0e 94 63 14 	call	0x28c6	; 0x28c6 <get_pressure>
	UARTprintf("Press: %d\r\n", _pressure_data);
    1e02:	9f 93       	push	r25
    1e04:	8f 93       	push	r24
    1e06:	8d e8       	ldi	r24, 0x8D	; 141
    1e08:	93 e0       	ldi	r25, 0x03	; 3
    1e0a:	9f 93       	push	r25
    1e0c:	8f 93       	push	r24
    1e0e:	0e 94 53 1f 	call	0x3ea6	; 0x3ea6 <UARTprintf>
	
	return CMDLINE_OK;
    1e12:	0f 90       	pop	r0
    1e14:	0f 90       	pop	r0
    1e16:	0f 90       	pop	r0
    1e18:	0f 90       	pop	r0
}
    1e1a:	80 e0       	ldi	r24, 0x00	; 0
    1e1c:	90 e0       	ldi	r25, 0x00	; 0
    1e1e:	a0 96       	adiw	r28, 0x20	; 32
    1e20:	0f b6       	in	r0, 0x3f	; 63
    1e22:	f8 94       	cli
    1e24:	de bf       	out	0x3e, r29	; 62
    1e26:	0f be       	out	0x3f, r0	; 63
    1e28:	cd bf       	out	0x3d, r28	; 61
    1e2a:	df 91       	pop	r29
    1e2c:	cf 91       	pop	r28
    1e2e:	1f 91       	pop	r17
    1e30:	0f 91       	pop	r16
    1e32:	ff 90       	pop	r15
    1e34:	ef 90       	pop	r14
    1e36:	df 90       	pop	r13
    1e38:	cf 90       	pop	r12
    1e3a:	08 95       	ret

00001e3c <command_create_task>:
	command_send_splash();
}

void	command_create_task(void)
{
	SCH_TASK_CreateTask(&s_CommandTaskContext.taskHandle, &s_CommandTaskContext.taskProperty);
    1e3c:	68 e0       	ldi	r22, 0x08	; 8
    1e3e:	71 e0       	ldi	r23, 0x01	; 1
    1e40:	87 e0       	ldi	r24, 0x07	; 7
    1e42:	91 e0       	ldi	r25, 0x01	; 1
    1e44:	0e 94 0b 26 	call	0x4c16	; 0x4c16 <SCH_TASK_CreateTask>
    1e48:	08 95       	ret

00001e4a <command_send_splash>:
	{".......................................................\r\n"},
	{"\r\n"}
};

void	command_send_splash(void)
{
    1e4a:	0f 93       	push	r16
    1e4c:	1f 93       	push	r17
    1e4e:	cf 93       	push	r28
    1e50:	df 93       	push	r29
    1e52:	ce ee       	ldi	r28, 0xEE	; 238
    1e54:	d3 e0       	ldi	r29, 0x03	; 3
    1e56:	0a e0       	ldi	r16, 0x0A	; 10
    1e58:	1b e0       	ldi	r17, 0x0B	; 11
	for(uint8_t i = 0 ; i < 28 ; i++) 
		usart0_send_string_P(&SPLASH[i][0]);
    1e5a:	ce 01       	movw	r24, r28
    1e5c:	0e 94 99 1a 	call	0x3532	; 0x3532 <usart0_send_string_P>
    1e60:	cf 5b       	subi	r28, 0xBF	; 191
    1e62:	df 4f       	sbci	r29, 0xFF	; 255
	{"\r\n"}
};

void	command_send_splash(void)
{
	for(uint8_t i = 0 ; i < 28 ; i++) 
    1e64:	c0 17       	cp	r28, r16
    1e66:	d1 07       	cpc	r29, r17
    1e68:	c1 f7       	brne	.-16     	; 0x1e5a <command_send_splash+0x10>
		usart0_send_string_P(&SPLASH[i][0]);
	usart0_send_string("> ");
    1e6a:	8f e2       	ldi	r24, 0x2F	; 47
    1e6c:	9a e0       	ldi	r25, 0x0A	; 10
    1e6e:	0e 94 71 1a 	call	0x34e2	; 0x34e2 <usart0_send_string>
    1e72:	df 91       	pop	r29
    1e74:	cf 91       	pop	r28
    1e76:	1f 91       	pop	r17
    1e78:	0f 91       	pop	r16
    1e7a:	08 95       	ret

00001e7c <command_init>:
	}	
}

void	command_init(void)
{
	usart0_init();
    1e7c:	0e 94 45 1a 	call	0x348a	; 0x348a <usart0_init>
	p_CommandRingBuffer = uart_get_uart0_rx_buffer_address();
    1e80:	0e 94 ab 1a 	call	0x3556	; 0x3556 <uart_get_uart0_rx_buffer_address>
    1e84:	90 93 1e 0b 	sts	0x0B1E, r25	; 0x800b1e <p_CommandRingBuffer+0x1>
    1e88:	80 93 1d 0b 	sts	0x0B1D, r24	; 0x800b1d <p_CommandRingBuffer>
	memset((void *)s_commandBuffer, 0, sizeof(s_commandBuffer));
    1e8c:	80 e4       	ldi	r24, 0x40	; 64
    1e8e:	ed ed       	ldi	r30, 0xDD	; 221
    1e90:	fa e0       	ldi	r31, 0x0A	; 10
    1e92:	df 01       	movw	r26, r30
    1e94:	1d 92       	st	X+, r1
    1e96:	8a 95       	dec	r24
    1e98:	e9 f7       	brne	.-6      	; 0x1e94 <command_init+0x18>
	s_commandBufferIndex = 0;
    1e9a:	10 92 dc 0a 	sts	0x0ADC, r1	; 0x800adc <s_commandBufferIndex>
	usart0_send_string("IOU FIRMWARE V1.0.0 \r\n");
    1e9e:	8a ed       	ldi	r24, 0xDA	; 218
    1ea0:	93 e0       	ldi	r25, 0x03	; 3
    1ea2:	0e 94 71 1a 	call	0x34e2	; 0x34e2 <usart0_send_string>
	usart0_send_string("> ");
    1ea6:	8f e2       	ldi	r24, 0x2F	; 47
    1ea8:	9a e0       	ldi	r25, 0x0A	; 10
    1eaa:	0e 94 71 1a 	call	0x34e2	; 0x34e2 <usart0_send_string>
	command_send_splash();
    1eae:	0e 94 25 0f 	call	0x1e4a	; 0x1e4a <command_send_splash>
    1eb2:	08 95       	ret

00001eb4 <COPC_init>:
void copc_iou_tec_log_ena(void)
{
	return;
}
void copc_iou_tec_log_dis(void)
{
    1eb4:	0e 94 b0 1a 	call	0x3560	; 0x3560 <usart1_init>
    1eb8:	85 e0       	ldi	r24, 0x05	; 5
    1eba:	0e 94 c9 27 	call	0x4f92	; 0x4f92 <fsp_init>
    1ebe:	0e 94 00 1b 	call	0x3600	; 0x3600 <uart_get_uart1_rx_buffer_address>
    1ec2:	90 93 8b 0b 	sts	0x0B8B, r25	; 0x800b8b <p_COPCBuffer+0x1>
    1ec6:	80 93 8a 0b 	sts	0x0B8A, r24	; 0x800b8a <p_COPCBuffer>
    1eca:	8c e5       	ldi	r24, 0x5C	; 92
    1ecc:	9b e0       	ldi	r25, 0x0B	; 11
    1ece:	90 93 23 0b 	sts	0x0B23, r25	; 0x800b23 <s_pCOPC_Sfp_Payload+0x1>
    1ed2:	80 93 22 0b 	sts	0x0B22, r24	; 0x800b22 <s_pCOPC_Sfp_Payload>
    1ed6:	89 e2       	ldi	r24, 0x29	; 41
    1ed8:	9b e0       	ldi	r25, 0x0B	; 11
    1eda:	90 93 21 0b 	sts	0x0B21, r25	; 0x800b21 <s_pIOU_Sfp_Payload+0x1>
    1ede:	80 93 20 0b 	sts	0x0B20, r24	; 0x800b20 <s_pIOU_Sfp_Payload>
    1ee2:	08 95       	ret

00001ee4 <COPC_create_task>:
    1ee4:	0e 94 5a 0f 	call	0x1eb4	; 0x1eb4 <COPC_init>
    1ee8:	67 e9       	ldi	r22, 0x97	; 151
    1eea:	71 e0       	ldi	r23, 0x01	; 1
    1eec:	86 e9       	ldi	r24, 0x96	; 150
    1eee:	91 e0       	ldi	r25, 0x01	; 1
    1ef0:	0e 94 0b 26 	call	0x4c16	; 0x4c16 <SCH_TASK_CreateTask>
    1ef4:	08 95       	ret

00001ef6 <OK_Send>:
    1ef6:	cf 92       	push	r12
    1ef8:	df 92       	push	r13
    1efa:	ef 92       	push	r14
    1efc:	ff 92       	push	r15
    1efe:	0f 93       	push	r16
    1f00:	cf 93       	push	r28
    1f02:	df 93       	push	r29
    1f04:	cd b7       	in	r28, 0x3d	; 61
    1f06:	de b7       	in	r29, 0x3e	; 62
    1f08:	60 97       	sbiw	r28, 0x10	; 16
    1f0a:	0f b6       	in	r0, 0x3f	; 63
    1f0c:	f8 94       	cli
    1f0e:	de bf       	out	0x3e, r29	; 62
    1f10:	0f be       	out	0x3f, r0	; 63
    1f12:	cd bf       	out	0x3d, r28	; 61
    1f14:	6e 01       	movw	r12, r28
    1f16:	82 e0       	ldi	r24, 0x02	; 2
    1f18:	c8 0e       	add	r12, r24
    1f1a:	d1 1c       	adc	r13, r1
    1f1c:	8f e0       	ldi	r24, 0x0F	; 15
    1f1e:	f6 01       	movw	r30, r12
    1f20:	11 92       	st	Z+, r1
    1f22:	8a 95       	dec	r24
    1f24:	e9 f7       	brne	.-6      	; 0x1f20 <OK_Send+0x2a>
    1f26:	e0 91 22 0b 	lds	r30, 0x0B22	; 0x800b22 <s_pCOPC_Sfp_Payload>
    1f2a:	f0 91 23 0b 	lds	r31, 0x0B23	; 0x800b23 <s_pCOPC_Sfp_Payload+0x1>
    1f2e:	80 81       	ld	r24, Z
    1f30:	8a 83       	std	Y+2, r24	; 0x02
    1f32:	0f 2e       	mov	r0, r31
    1f34:	f4 e2       	ldi	r31, 0x24	; 36
    1f36:	ef 2e       	mov	r14, r31
    1f38:	fb e0       	ldi	r31, 0x0B	; 11
    1f3a:	ff 2e       	mov	r15, r31
    1f3c:	f0 2d       	mov	r31, r0
    1f3e:	00 e0       	ldi	r16, 0x00	; 0
    1f40:	21 e0       	ldi	r18, 0x01	; 1
    1f42:	41 e0       	ldi	r20, 0x01	; 1
    1f44:	b6 01       	movw	r22, r12
    1f46:	80 e0       	ldi	r24, 0x00	; 0
    1f48:	0e 94 08 28 	call	0x5010	; 0x5010 <fsp_gen_cmd_w_data_pkt>
    1f4c:	ae 01       	movw	r20, r28
    1f4e:	4f 5f       	subi	r20, 0xFF	; 255
    1f50:	5f 4f       	sbci	r21, 0xFF	; 255
    1f52:	b6 01       	movw	r22, r12
    1f54:	c7 01       	movw	r24, r14
    1f56:	0e 94 25 28 	call	0x504a	; 0x504a <fsp_encode>
    1f5a:	69 81       	ldd	r22, Y+1	; 0x01
    1f5c:	c6 01       	movw	r24, r12
    1f5e:	0e 94 e7 1a 	call	0x35ce	; 0x35ce <usart1_send_array>
    1f62:	60 96       	adiw	r28, 0x10	; 16
    1f64:	0f b6       	in	r0, 0x3f	; 63
    1f66:	f8 94       	cli
    1f68:	de bf       	out	0x3e, r29	; 62
    1f6a:	0f be       	out	0x3f, r0	; 63
    1f6c:	cd bf       	out	0x3d, r28	; 61
    1f6e:	df 91       	pop	r29
    1f70:	cf 91       	pop	r28
    1f72:	0f 91       	pop	r16
    1f74:	ff 90       	pop	r15
    1f76:	ef 90       	pop	r14
    1f78:	df 90       	pop	r13
    1f7a:	cf 90       	pop	r12
    1f7c:	08 95       	ret

00001f7e <copc_iou_set_temp>:
    1f7e:	e0 91 22 0b 	lds	r30, 0x0B22	; 0x800b22 <s_pCOPC_Sfp_Payload>
    1f82:	f0 91 23 0b 	lds	r31, 0x0B23	; 0x800b23 <s_pCOPC_Sfp_Payload+0x1>
    1f86:	61 81       	ldd	r22, Z+1	; 0x01
    1f88:	62 30       	cpi	r22, 0x02	; 2
    1f8a:	50 f4       	brcc	.+20     	; 0x1fa0 <copc_iou_set_temp+0x22>
    1f8c:	82 81       	ldd	r24, Z+2	; 0x02
    1f8e:	90 e0       	ldi	r25, 0x00	; 0
    1f90:	98 2f       	mov	r25, r24
    1f92:	88 27       	eor	r24, r24
    1f94:	23 81       	ldd	r18, Z+3	; 0x03
    1f96:	82 2b       	or	r24, r18
    1f98:	0e 94 6d 14 	call	0x28da	; 0x28da <temperature_set_point>
    1f9c:	0e 94 7b 0f 	call	0x1ef6	; 0x1ef6 <OK_Send>
    1fa0:	08 95       	ret

00001fa2 <copc_iou_tec_ena>:
    1fa2:	e0 91 22 0b 	lds	r30, 0x0B22	; 0x800b22 <s_pCOPC_Sfp_Payload>
    1fa6:	f0 91 23 0b 	lds	r31, 0x0B23	; 0x800b23 <s_pCOPC_Sfp_Payload+0x1>
    1faa:	81 81       	ldd	r24, Z+1	; 0x01
    1fac:	82 30       	cpi	r24, 0x02	; 2
    1fae:	20 f4       	brcc	.+8      	; 0x1fb8 <copc_iou_tec_ena+0x16>
    1fb0:	0e 94 8d 14 	call	0x291a	; 0x291a <temperature_enable_TEC>
    1fb4:	0e 94 7b 0f 	call	0x1ef6	; 0x1ef6 <OK_Send>
    1fb8:	08 95       	ret

00001fba <copc_iou_tec_dis>:
    1fba:	e0 91 22 0b 	lds	r30, 0x0B22	; 0x800b22 <s_pCOPC_Sfp_Payload>
    1fbe:	f0 91 23 0b 	lds	r31, 0x0B23	; 0x800b23 <s_pCOPC_Sfp_Payload+0x1>
    1fc2:	81 81       	ldd	r24, Z+1	; 0x01
    1fc4:	82 30       	cpi	r24, 0x02	; 2
    1fc6:	20 f4       	brcc	.+8      	; 0x1fd0 <copc_iou_tec_dis+0x16>
    1fc8:	0e 94 a0 14 	call	0x2940	; 0x2940 <temperature_disable_TEC>
    1fcc:	0e 94 7b 0f 	call	0x1ef6	; 0x1ef6 <OK_Send>
    1fd0:	08 95       	ret

00001fd2 <copc_iou_tec_ena_auto>:
    1fd2:	cf 93       	push	r28
    1fd4:	e0 91 22 0b 	lds	r30, 0x0B22	; 0x800b22 <s_pCOPC_Sfp_Payload>
    1fd8:	f0 91 23 0b 	lds	r31, 0x0B23	; 0x800b23 <s_pCOPC_Sfp_Payload+0x1>
    1fdc:	81 81       	ldd	r24, Z+1	; 0x01
    1fde:	82 30       	cpi	r24, 0x02	; 2
    1fe0:	70 f4       	brcc	.+28     	; 0x1ffe <copc_iou_tec_ena_auto+0x2c>
    1fe2:	c8 2f       	mov	r28, r24
    1fe4:	cc 0f       	add	r28, r28
    1fe6:	8c 2f       	mov	r24, r28
    1fe8:	0e 94 e4 16 	call	0x2dc8	; 0x2dc8 <temperature_enable_auto_control_TEC>
    1fec:	8c 2f       	mov	r24, r28
    1fee:	0e 94 a0 14 	call	0x2940	; 0x2940 <temperature_disable_TEC>
    1ff2:	81 e0       	ldi	r24, 0x01	; 1
    1ff4:	8c 0f       	add	r24, r28
    1ff6:	0e 94 a0 14 	call	0x2940	; 0x2940 <temperature_disable_TEC>
    1ffa:	0e 94 7b 0f 	call	0x1ef6	; 0x1ef6 <OK_Send>
    1ffe:	cf 91       	pop	r28
    2000:	08 95       	ret

00002002 <copc_iou_tec_dis_auto>:
    2002:	e0 91 22 0b 	lds	r30, 0x0B22	; 0x800b22 <s_pCOPC_Sfp_Payload>
    2006:	f0 91 23 0b 	lds	r31, 0x0B23	; 0x800b23 <s_pCOPC_Sfp_Payload+0x1>
    200a:	81 81       	ldd	r24, Z+1	; 0x01
    200c:	82 30       	cpi	r24, 0x02	; 2
    200e:	28 f4       	brcc	.+10     	; 0x201a <copc_iou_tec_dis_auto+0x18>
    2010:	88 0f       	add	r24, r24
    2012:	0e 94 b4 14 	call	0x2968	; 0x2968 <temperature_disable_auto_control_TEC>
    2016:	0e 94 7b 0f 	call	0x1ef6	; 0x1ef6 <OK_Send>
    201a:	08 95       	ret

0000201c <copc_iou_tec_set_output>:
    201c:	e0 91 22 0b 	lds	r30, 0x0B22	; 0x800b22 <s_pCOPC_Sfp_Payload>
    2020:	f0 91 23 0b 	lds	r31, 0x0B23	; 0x800b23 <s_pCOPC_Sfp_Payload+0x1>
    2024:	81 81       	ldd	r24, Z+1	; 0x01
    2026:	82 30       	cpi	r24, 0x02	; 2
    2028:	58 f4       	brcc	.+22     	; 0x2040 <copc_iou_tec_set_output+0x24>
    202a:	43 81       	ldd	r20, Z+3	; 0x03
    202c:	50 e0       	ldi	r21, 0x00	; 0
    202e:	54 2f       	mov	r21, r20
    2030:	44 27       	eor	r20, r20
    2032:	94 81       	ldd	r25, Z+4	; 0x04
    2034:	49 2b       	or	r20, r25
    2036:	62 81       	ldd	r22, Z+2	; 0x02
    2038:	0e 94 c8 14 	call	0x2990	; 0x2990 <temperature_set_TEC_output>
    203c:	0e 94 7b 0f 	call	0x1ef6	; 0x1ef6 <OK_Send>
    2040:	08 95       	ret

00002042 <copc_iou_tec_set_auto_vol>:
    2042:	e0 91 22 0b 	lds	r30, 0x0B22	; 0x800b22 <s_pCOPC_Sfp_Payload>
    2046:	f0 91 23 0b 	lds	r31, 0x0B23	; 0x800b23 <s_pCOPC_Sfp_Payload+0x1>
    204a:	81 81       	ldd	r24, Z+1	; 0x01
    204c:	82 30       	cpi	r24, 0x02	; 2
    204e:	50 f4       	brcc	.+20     	; 0x2064 <copc_iou_tec_set_auto_vol+0x22>
    2050:	62 81       	ldd	r22, Z+2	; 0x02
    2052:	70 e0       	ldi	r23, 0x00	; 0
    2054:	76 2f       	mov	r23, r22
    2056:	66 27       	eor	r22, r22
    2058:	93 81       	ldd	r25, Z+3	; 0x03
    205a:	69 2b       	or	r22, r25
    205c:	0e 94 19 17 	call	0x2e32	; 0x2e32 <temperature_set_auto_voltage>
    2060:	0e 94 7b 0f 	call	0x1ef6	; 0x1ef6 <OK_Send>
    2064:	08 95       	ret

00002066 <copc_iou_ringled_set_RGBW>:
	return;
}
void copc_iou_ringled_set_RGBW(void)
{
	rgbw_color RGBW;
	RGBW.red = s_pCOPC_Sfp_Payload->neoSetRGBCommandFrame.red;
    2066:	e0 91 22 0b 	lds	r30, 0x0B22	; 0x800b22 <s_pCOPC_Sfp_Payload>
    206a:	f0 91 23 0b 	lds	r31, 0x0B23	; 0x800b23 <s_pCOPC_Sfp_Payload+0x1>
	RGBW.green = s_pCOPC_Sfp_Payload->neoSetRGBCommandFrame.green;
	RGBW.blue = s_pCOPC_Sfp_Payload->neoSetRGBCommandFrame.blue;
	RGBW.white = s_pCOPC_Sfp_Payload->neoSetRGBCommandFrame.white;
	ringled_set_RGBW(RGBW.red, RGBW.green, RGBW.blue, RGBW.white);
    206e:	24 81       	ldd	r18, Z+4	; 0x04
    2070:	43 81       	ldd	r20, Z+3	; 0x03
    2072:	62 81       	ldd	r22, Z+2	; 0x02
    2074:	81 81       	ldd	r24, Z+1	; 0x01
    2076:	0e 94 6d 25 	call	0x4ada	; 0x4ada <ringled_set_RGBW>
	OK_Send();
    207a:	0e 94 7b 0f 	call	0x1ef6	; 0x1ef6 <OK_Send>
    207e:	08 95       	ret

00002080 <copc_iou_irled_set_bright>:
}

void copc_iou_irled_set_bright(void)
{
	uint8_t duty = s_pCOPC_Sfp_Payload->IrSetCommandFrame.duty;
    2080:	e0 91 22 0b 	lds	r30, 0x0B22	; 0x800b22 <s_pCOPC_Sfp_Payload>
    2084:	f0 91 23 0b 	lds	r31, 0x0B23	; 0x800b23 <s_pCOPC_Sfp_Payload+0x1>
    2088:	81 81       	ldd	r24, Z+1	; 0x01
	if (duty > 100) duty = 100;
	IR_led_set_DutyCyclesPercent(duty);
    208a:	85 36       	cpi	r24, 0x65	; 101
    208c:	08 f0       	brcs	.+2      	; 0x2090 <copc_iou_irled_set_bright+0x10>
    208e:	84 e6       	ldi	r24, 0x64	; 100
    2090:	0e 94 7a 13 	call	0x26f4	; 0x26f4 <IR_led_set_DutyCyclesPercent>
	OK_Send();
    2094:	0e 94 7b 0f 	call	0x1ef6	; 0x1ef6 <OK_Send>
    2098:	08 95       	ret

0000209a <copc_iou_get_temp>:
}

//Function send to COPC data in struct payload
void copc_iou_get_temp(void)
{
    209a:	ef 92       	push	r14
    209c:	ff 92       	push	r15
    209e:	0f 93       	push	r16
    20a0:	cf 93       	push	r28
    20a2:	df 93       	push	r29
    20a4:	cd b7       	in	r28, 0x3d	; 61
    20a6:	de b7       	in	r29, 0x3e	; 62
    20a8:	e3 97       	sbiw	r28, 0x33	; 51
    20aa:	0f b6       	in	r0, 0x3f	; 63
    20ac:	f8 94       	cli
    20ae:	de bf       	out	0x3e, r29	; 62
    20b0:	0f be       	out	0x3f, r0	; 63
    20b2:	cd bf       	out	0x3d, r28	; 61
	uint8_t device = s_pCOPC_Sfp_Payload->getTempCommandFrame.device;
    20b4:	e0 91 22 0b 	lds	r30, 0x0B22	; 0x800b22 <s_pCOPC_Sfp_Payload>
    20b8:	f0 91 23 0b 	lds	r31, 0x0B23	; 0x800b23 <s_pCOPC_Sfp_Payload+0x1>
    20bc:	21 81       	ldd	r18, Z+1	; 0x01
	uint8_t channel = s_pCOPC_Sfp_Payload->getTempCommandFrame.channel;
	uint16_t temp;
	uint8_t encode_frame[FSP_PKT_MAX_LENGTH];
	uint8_t frame_len;
	if (device > 2 || channel > (MAX_CHANNEL-1))
    20be:	23 30       	cpi	r18, 0x03	; 3
    20c0:	08 f0       	brcs	.+2      	; 0x20c4 <copc_iou_get_temp+0x2a>
    20c2:	41 c0       	rjmp	.+130    	; 0x2146 <copc_iou_get_temp+0xac>

//Function send to COPC data in struct payload
void copc_iou_get_temp(void)
{
	uint8_t device = s_pCOPC_Sfp_Payload->getTempCommandFrame.device;
	uint8_t channel = s_pCOPC_Sfp_Payload->getTempCommandFrame.channel;
    20c4:	82 81       	ldd	r24, Z+2	; 0x02
	uint16_t temp;
	uint8_t encode_frame[FSP_PKT_MAX_LENGTH];
	uint8_t frame_len;
	if (device > 2 || channel > (MAX_CHANNEL-1))
    20c6:	82 30       	cpi	r24, 0x02	; 2
    20c8:	f0 f5       	brcc	.+124    	; 0x2146 <copc_iou_get_temp+0xac>
		return;
	else
	{
		s_pIOU_Sfp_Payload->iouGetTempResponseFrame.Cmd = s_pCOPC_Sfp_Payload->commonFrame.Cmd;
    20ca:	a0 91 20 0b 	lds	r26, 0x0B20	; 0x800b20 <s_pIOU_Sfp_Payload>
    20ce:	b0 91 21 0b 	lds	r27, 0x0B21	; 0x800b21 <s_pIOU_Sfp_Payload+0x1>
    20d2:	40 81       	ld	r20, Z
    20d4:	4c 93       	st	X, r20
		s_pIOU_Sfp_Payload->iouGetTempResponseFrame.device = device;
    20d6:	11 96       	adiw	r26, 0x01	; 1
    20d8:	2c 93       	st	X, r18
    20da:	11 97       	sbiw	r26, 0x01	; 1
		s_pIOU_Sfp_Payload->iouGetTempResponseFrame.channel = channel;
    20dc:	12 96       	adiw	r26, 0x02	; 2
    20de:	8c 93       	st	X, r24
		if (device == 0)
    20e0:	21 11       	cpse	r18, r1
    20e2:	04 c0       	rjmp	.+8      	; 0x20ec <copc_iou_get_temp+0x52>
			temp = (uint16_t)temperature_get_NTC(channel);
    20e4:	0e 94 76 14 	call	0x28ec	; 0x28ec <temperature_get_NTC>
    20e8:	38 2f       	mov	r19, r24
    20ea:	0b c0       	rjmp	.+22     	; 0x2102 <copc_iou_get_temp+0x68>
		if (device == 1)
    20ec:	21 30       	cpi	r18, 0x01	; 1
    20ee:	21 f4       	brne	.+8      	; 0x20f8 <copc_iou_get_temp+0x5e>
			temp = (uint16_t)temperature_get_onewire(channel);
    20f0:	0e 94 7f 14 	call	0x28fe	; 0x28fe <temperature_get_onewire>
    20f4:	38 2f       	mov	r19, r24
    20f6:	05 c0       	rjmp	.+10     	; 0x2102 <copc_iou_get_temp+0x68>
		if (device == 2)
    20f8:	22 30       	cpi	r18, 0x02	; 2
    20fa:	19 f4       	brne	.+6      	; 0x2102 <copc_iou_get_temp+0x68>
			temp = (uint16_t)temperature_get_bmp390();
    20fc:	0e 94 88 14 	call	0x2910	; 0x2910 <temperature_get_bmp390>
    2100:	38 2f       	mov	r19, r24
		s_pIOU_Sfp_Payload->iouGetTempResponseFrame.temperature_high = (uint8_t)(temp >> 8);
    2102:	60 91 20 0b 	lds	r22, 0x0B20	; 0x800b20 <s_pIOU_Sfp_Payload>
    2106:	70 91 21 0b 	lds	r23, 0x0B21	; 0x800b21 <s_pIOU_Sfp_Payload+0x1>
    210a:	fb 01       	movw	r30, r22
    210c:	93 83       	std	Z+3, r25	; 0x03
		s_pIOU_Sfp_Payload->iouGetTempResponseFrame.temperature_low = (uint8_t)(temp);
    210e:	34 83       	std	Z+4, r19	; 0x04
		fsp_gen_pkt((void*)0, &s_pIOU_Sfp_Payload->iouGetTempResponseFrame, 5, FSP_ADR_COPC, FSP_PKT_TYPE_CMD_W_DATA, &s_IOU_FspPacket);
    2110:	0f 2e       	mov	r0, r31
    2112:	f4 e2       	ldi	r31, 0x24	; 36
    2114:	ef 2e       	mov	r14, r31
    2116:	fb e0       	ldi	r31, 0x0B	; 11
    2118:	ff 2e       	mov	r15, r31
    211a:	f0 2d       	mov	r31, r0
    211c:	07 e0       	ldi	r16, 0x07	; 7
    211e:	21 e0       	ldi	r18, 0x01	; 1
    2120:	45 e0       	ldi	r20, 0x05	; 5
    2122:	80 e0       	ldi	r24, 0x00	; 0
    2124:	90 e0       	ldi	r25, 0x00	; 0
    2126:	0e 94 ce 27 	call	0x4f9c	; 0x4f9c <fsp_gen_pkt>
 		fsp_encode(&s_IOU_FspPacket, encode_frame, &frame_len);
    212a:	ae 01       	movw	r20, r28
    212c:	4d 5c       	subi	r20, 0xCD	; 205
    212e:	5f 4f       	sbci	r21, 0xFF	; 255
    2130:	be 01       	movw	r22, r28
    2132:	6f 5f       	subi	r22, 0xFF	; 255
    2134:	7f 4f       	sbci	r23, 0xFF	; 255
    2136:	c7 01       	movw	r24, r14
    2138:	0e 94 25 28 	call	0x504a	; 0x504a <fsp_encode>
		usart1_send_array(encode_frame, frame_len);
    213c:	6b a9       	ldd	r22, Y+51	; 0x33
    213e:	ce 01       	movw	r24, r28
    2140:	01 96       	adiw	r24, 0x01	; 1
    2142:	0e 94 e7 1a 	call	0x35ce	; 0x35ce <usart1_send_array>
	}
}
    2146:	e3 96       	adiw	r28, 0x33	; 51
    2148:	0f b6       	in	r0, 0x3f	; 63
    214a:	f8 94       	cli
    214c:	de bf       	out	0x3e, r29	; 62
    214e:	0f be       	out	0x3f, r0	; 63
    2150:	cd bf       	out	0x3d, r28	; 61
    2152:	df 91       	pop	r29
    2154:	cf 91       	pop	r28
    2156:	0f 91       	pop	r16
    2158:	ff 90       	pop	r15
    215a:	ef 90       	pop	r14
    215c:	08 95       	ret

0000215e <copc_iou_get_temp_setpoint>:
void copc_iou_get_temp_setpoint(void)
{
    215e:	ef 92       	push	r14
    2160:	ff 92       	push	r15
    2162:	0f 93       	push	r16
    2164:	1f 93       	push	r17
    2166:	cf 93       	push	r28
    2168:	df 93       	push	r29
    216a:	cd b7       	in	r28, 0x3d	; 61
    216c:	de b7       	in	r29, 0x3e	; 62
    216e:	e3 97       	sbiw	r28, 0x33	; 51
    2170:	0f b6       	in	r0, 0x3f	; 63
    2172:	f8 94       	cli
    2174:	de bf       	out	0x3e, r29	; 62
    2176:	0f be       	out	0x3f, r0	; 63
    2178:	cd bf       	out	0x3d, r28	; 61
	uint8_t channel = s_pCOPC_Sfp_Payload->getTempSetpointCommandFrame.channel;
    217a:	e0 91 22 0b 	lds	r30, 0x0B22	; 0x800b22 <s_pCOPC_Sfp_Payload>
    217e:	f0 91 23 0b 	lds	r31, 0x0B23	; 0x800b23 <s_pCOPC_Sfp_Payload+0x1>
    2182:	11 81       	ldd	r17, Z+1	; 0x01
	if (channel > (MAX_CHANNEL-1))
    2184:	12 30       	cpi	r17, 0x02	; 2
    2186:	60 f5       	brcc	.+88     	; 0x21e0 <copc_iou_get_temp_setpoint+0x82>
		return;
	uint8_t encode_frame[FSP_PKT_MAX_LENGTH];
	uint8_t frame_len;
	uint16_t setpoint = (uint16_t)temperature_get_setpoint(channel);
    2188:	81 2f       	mov	r24, r17
    218a:	0e 94 07 17 	call	0x2e0e	; 0x2e0e <temperature_get_setpoint>
	
	s_pIOU_Sfp_Payload->iouGetTempSetpointResponseFrame.Cmd = s_pCOPC_Sfp_Payload->commonFrame.Cmd;
    218e:	e0 91 20 0b 	lds	r30, 0x0B20	; 0x800b20 <s_pIOU_Sfp_Payload>
    2192:	f0 91 21 0b 	lds	r31, 0x0B21	; 0x800b21 <s_pIOU_Sfp_Payload+0x1>
    2196:	a0 91 22 0b 	lds	r26, 0x0B22	; 0x800b22 <s_pCOPC_Sfp_Payload>
    219a:	b0 91 23 0b 	lds	r27, 0x0B23	; 0x800b23 <s_pCOPC_Sfp_Payload+0x1>
    219e:	2c 91       	ld	r18, X
    21a0:	20 83       	st	Z, r18
	s_pIOU_Sfp_Payload->iouGetTempSetpointResponseFrame.channel = channel;
    21a2:	11 83       	std	Z+1, r17	; 0x01
	s_pIOU_Sfp_Payload->iouGetTempSetpointResponseFrame.temperature_high = (uint8_t)(setpoint >> 8);
    21a4:	92 83       	std	Z+2, r25	; 0x02
	s_pIOU_Sfp_Payload->iouGetTempSetpointResponseFrame.temperature_low = (uint8_t)(setpoint);
    21a6:	83 83       	std	Z+3, r24	; 0x03
	
	fsp_gen_pkt((void*)0, &s_pIOU_Sfp_Payload->iouGetTempSetpointResponseFrame, 4, FSP_ADR_COPC, FSP_PKT_TYPE_CMD_W_DATA, &s_IOU_FspPacket);
    21a8:	0f 2e       	mov	r0, r31
    21aa:	f4 e2       	ldi	r31, 0x24	; 36
    21ac:	ef 2e       	mov	r14, r31
    21ae:	fb e0       	ldi	r31, 0x0B	; 11
    21b0:	ff 2e       	mov	r15, r31
    21b2:	f0 2d       	mov	r31, r0
    21b4:	07 e0       	ldi	r16, 0x07	; 7
    21b6:	21 e0       	ldi	r18, 0x01	; 1
    21b8:	44 e0       	ldi	r20, 0x04	; 4
    21ba:	bf 01       	movw	r22, r30
    21bc:	80 e0       	ldi	r24, 0x00	; 0
    21be:	90 e0       	ldi	r25, 0x00	; 0
    21c0:	0e 94 ce 27 	call	0x4f9c	; 0x4f9c <fsp_gen_pkt>
	fsp_encode(&s_IOU_FspPacket, encode_frame, &frame_len);
    21c4:	ae 01       	movw	r20, r28
    21c6:	4d 5c       	subi	r20, 0xCD	; 205
    21c8:	5f 4f       	sbci	r21, 0xFF	; 255
    21ca:	be 01       	movw	r22, r28
    21cc:	6f 5f       	subi	r22, 0xFF	; 255
    21ce:	7f 4f       	sbci	r23, 0xFF	; 255
    21d0:	c7 01       	movw	r24, r14
    21d2:	0e 94 25 28 	call	0x504a	; 0x504a <fsp_encode>
	usart1_send_array(encode_frame, frame_len);
    21d6:	6b a9       	ldd	r22, Y+51	; 0x33
    21d8:	ce 01       	movw	r24, r28
    21da:	01 96       	adiw	r24, 0x01	; 1
    21dc:	0e 94 e7 1a 	call	0x35ce	; 0x35ce <usart1_send_array>
}
    21e0:	e3 96       	adiw	r28, 0x33	; 51
    21e2:	0f b6       	in	r0, 0x3f	; 63
    21e4:	f8 94       	cli
    21e6:	de bf       	out	0x3e, r29	; 62
    21e8:	0f be       	out	0x3f, r0	; 63
    21ea:	cd bf       	out	0x3d, r28	; 61
    21ec:	df 91       	pop	r29
    21ee:	cf 91       	pop	r28
    21f0:	1f 91       	pop	r17
    21f2:	0f 91       	pop	r16
    21f4:	ff 90       	pop	r15
    21f6:	ef 90       	pop	r14
    21f8:	08 95       	ret

000021fa <copc_iou_ringled_get_RGBW>:
void copc_iou_ringled_get_RGBW(void)
{
    21fa:	ef 92       	push	r14
    21fc:	ff 92       	push	r15
    21fe:	0f 93       	push	r16
    2200:	cf 93       	push	r28
    2202:	df 93       	push	r29
    2204:	cd b7       	in	r28, 0x3d	; 61
    2206:	de b7       	in	r29, 0x3e	; 62
    2208:	e3 97       	sbiw	r28, 0x33	; 51
    220a:	0f b6       	in	r0, 0x3f	; 63
    220c:	f8 94       	cli
    220e:	de bf       	out	0x3e, r29	; 62
    2210:	0f be       	out	0x3f, r0	; 63
    2212:	cd bf       	out	0x3d, r28	; 61
	uint8_t encode_frame[FSP_PKT_MAX_LENGTH];
	uint8_t frame_len;
	rgbw_color RGBW = ringled_get_RGBW();
    2214:	0e 94 85 25 	call	0x4b0a	; 0x4b0a <ringled_get_RGBW>
	s_pIOU_Sfp_Payload->iouRingledGetRGBResponseFrame.Cmd = s_pCOPC_Sfp_Payload->commonFrame.Cmd;
    2218:	e0 91 20 0b 	lds	r30, 0x0B20	; 0x800b20 <s_pIOU_Sfp_Payload>
    221c:	f0 91 21 0b 	lds	r31, 0x0B21	; 0x800b21 <s_pIOU_Sfp_Payload+0x1>
    2220:	a0 91 22 0b 	lds	r26, 0x0B22	; 0x800b22 <s_pCOPC_Sfp_Payload>
    2224:	b0 91 23 0b 	lds	r27, 0x0B23	; 0x800b23 <s_pCOPC_Sfp_Payload+0x1>
    2228:	2c 91       	ld	r18, X
    222a:	20 83       	st	Z, r18
	s_pIOU_Sfp_Payload->iouRingledGetRGBResponseFrame.red = RGBW.red;
    222c:	61 83       	std	Z+1, r22	; 0x01
	s_pIOU_Sfp_Payload->iouRingledGetRGBResponseFrame.green = RGBW.green;
    222e:	72 83       	std	Z+2, r23	; 0x02
	s_pIOU_Sfp_Payload->iouRingledGetRGBResponseFrame.blue = RGBW.blue;
    2230:	83 83       	std	Z+3, r24	; 0x03
	s_pIOU_Sfp_Payload->iouRingledGetRGBResponseFrame.white = RGBW.white;
    2232:	94 83       	std	Z+4, r25	; 0x04
	fsp_gen_pkt((void*)0, &s_pIOU_Sfp_Payload->iouRingledGetRGBResponseFrame, 5, FSP_ADR_COPC, FSP_PKT_TYPE_CMD_W_DATA, &s_IOU_FspPacket);
    2234:	0f 2e       	mov	r0, r31
    2236:	f4 e2       	ldi	r31, 0x24	; 36
    2238:	ef 2e       	mov	r14, r31
    223a:	fb e0       	ldi	r31, 0x0B	; 11
    223c:	ff 2e       	mov	r15, r31
    223e:	f0 2d       	mov	r31, r0
    2240:	07 e0       	ldi	r16, 0x07	; 7
    2242:	21 e0       	ldi	r18, 0x01	; 1
    2244:	45 e0       	ldi	r20, 0x05	; 5
    2246:	bf 01       	movw	r22, r30
    2248:	80 e0       	ldi	r24, 0x00	; 0
    224a:	90 e0       	ldi	r25, 0x00	; 0
    224c:	0e 94 ce 27 	call	0x4f9c	; 0x4f9c <fsp_gen_pkt>
	fsp_encode(&s_IOU_FspPacket, encode_frame, &frame_len);
    2250:	ae 01       	movw	r20, r28
    2252:	4d 5c       	subi	r20, 0xCD	; 205
    2254:	5f 4f       	sbci	r21, 0xFF	; 255
    2256:	be 01       	movw	r22, r28
    2258:	6f 5f       	subi	r22, 0xFF	; 255
    225a:	7f 4f       	sbci	r23, 0xFF	; 255
    225c:	c7 01       	movw	r24, r14
    225e:	0e 94 25 28 	call	0x504a	; 0x504a <fsp_encode>
	usart1_send_array(encode_frame, frame_len);
    2262:	6b a9       	ldd	r22, Y+51	; 0x33
    2264:	ce 01       	movw	r24, r28
    2266:	01 96       	adiw	r24, 0x01	; 1
    2268:	0e 94 e7 1a 	call	0x35ce	; 0x35ce <usart1_send_array>
}
    226c:	e3 96       	adiw	r28, 0x33	; 51
    226e:	0f b6       	in	r0, 0x3f	; 63
    2270:	f8 94       	cli
    2272:	de bf       	out	0x3e, r29	; 62
    2274:	0f be       	out	0x3f, r0	; 63
    2276:	cd bf       	out	0x3d, r28	; 61
    2278:	df 91       	pop	r29
    227a:	cf 91       	pop	r28
    227c:	0f 91       	pop	r16
    227e:	ff 90       	pop	r15
    2280:	ef 90       	pop	r14
    2282:	08 95       	ret

00002284 <copc_iou_irled_get_bright>:
void copc_iou_irled_get_bright(void)
{
    2284:	ef 92       	push	r14
    2286:	ff 92       	push	r15
    2288:	0f 93       	push	r16
    228a:	cf 93       	push	r28
    228c:	df 93       	push	r29
    228e:	cd b7       	in	r28, 0x3d	; 61
    2290:	de b7       	in	r29, 0x3e	; 62
    2292:	e3 97       	sbiw	r28, 0x33	; 51
    2294:	0f b6       	in	r0, 0x3f	; 63
    2296:	f8 94       	cli
    2298:	de bf       	out	0x3e, r29	; 62
    229a:	0f be       	out	0x3f, r0	; 63
    229c:	cd bf       	out	0x3d, r28	; 61
	uint8_t encode_frame[FSP_PKT_MAX_LENGTH];
	uint8_t frame_len;
	uint8_t duty = IR_led_get_Current_DutyCyclesPercent();
    229e:	0e 94 86 13 	call	0x270c	; 0x270c <IR_led_get_Current_DutyCyclesPercent>
	s_pIOU_Sfp_Payload->iouIRledGetBrightResponseFrame.Cmd = s_pCOPC_Sfp_Payload->commonFrame.Cmd;
    22a2:	60 91 20 0b 	lds	r22, 0x0B20	; 0x800b20 <s_pIOU_Sfp_Payload>
    22a6:	70 91 21 0b 	lds	r23, 0x0B21	; 0x800b21 <s_pIOU_Sfp_Payload+0x1>
    22aa:	e0 91 22 0b 	lds	r30, 0x0B22	; 0x800b22 <s_pCOPC_Sfp_Payload>
    22ae:	f0 91 23 0b 	lds	r31, 0x0B23	; 0x800b23 <s_pCOPC_Sfp_Payload+0x1>
    22b2:	90 81       	ld	r25, Z
    22b4:	fb 01       	movw	r30, r22
    22b6:	90 83       	st	Z, r25
	s_pIOU_Sfp_Payload->iouIRledGetBrightResponseFrame.duty =duty;
    22b8:	81 83       	std	Z+1, r24	; 0x01
	fsp_gen_pkt((void*)0, &s_pIOU_Sfp_Payload->iouIRledGetBrightResponseFrame, 2, FSP_ADR_COPC, FSP_PKT_TYPE_CMD_W_DATA, &s_IOU_FspPacket);
    22ba:	0f 2e       	mov	r0, r31
    22bc:	f4 e2       	ldi	r31, 0x24	; 36
    22be:	ef 2e       	mov	r14, r31
    22c0:	fb e0       	ldi	r31, 0x0B	; 11
    22c2:	ff 2e       	mov	r15, r31
    22c4:	f0 2d       	mov	r31, r0
    22c6:	07 e0       	ldi	r16, 0x07	; 7
    22c8:	21 e0       	ldi	r18, 0x01	; 1
    22ca:	42 e0       	ldi	r20, 0x02	; 2
    22cc:	80 e0       	ldi	r24, 0x00	; 0
    22ce:	90 e0       	ldi	r25, 0x00	; 0
    22d0:	0e 94 ce 27 	call	0x4f9c	; 0x4f9c <fsp_gen_pkt>
	fsp_encode(&s_IOU_FspPacket, encode_frame, &frame_len);
    22d4:	ae 01       	movw	r20, r28
    22d6:	4d 5c       	subi	r20, 0xCD	; 205
    22d8:	5f 4f       	sbci	r21, 0xFF	; 255
    22da:	be 01       	movw	r22, r28
    22dc:	6f 5f       	subi	r22, 0xFF	; 255
    22de:	7f 4f       	sbci	r23, 0xFF	; 255
    22e0:	c7 01       	movw	r24, r14
    22e2:	0e 94 25 28 	call	0x504a	; 0x504a <fsp_encode>
	usart1_send_array(encode_frame, frame_len);
    22e6:	6b a9       	ldd	r22, Y+51	; 0x33
    22e8:	ce 01       	movw	r24, r28
    22ea:	01 96       	adiw	r24, 0x01	; 1
    22ec:	0e 94 e7 1a 	call	0x35ce	; 0x35ce <usart1_send_array>
}
    22f0:	e3 96       	adiw	r28, 0x33	; 51
    22f2:	0f b6       	in	r0, 0x3f	; 63
    22f4:	f8 94       	cli
    22f6:	de bf       	out	0x3e, r29	; 62
    22f8:	0f be       	out	0x3f, r0	; 63
    22fa:	cd bf       	out	0x3d, r28	; 61
    22fc:	df 91       	pop	r29
    22fe:	cf 91       	pop	r28
    2300:	0f 91       	pop	r16
    2302:	ff 90       	pop	r15
    2304:	ef 90       	pop	r14
    2306:	08 95       	ret

00002308 <copc_iou_get_accel_gyro>:
void copc_iou_get_accel_gyro(void)
{	
    2308:	cf 92       	push	r12
    230a:	df 92       	push	r13
    230c:	ef 92       	push	r14
    230e:	ff 92       	push	r15
    2310:	0f 93       	push	r16
    2312:	1f 93       	push	r17
    2314:	cf 93       	push	r28
    2316:	df 93       	push	r29
    2318:	cd b7       	in	r28, 0x3d	; 61
    231a:	de b7       	in	r29, 0x3e	; 62
    231c:	ef 97       	sbiw	r28, 0x3f	; 63
    231e:	0f b6       	in	r0, 0x3f	; 63
    2320:	f8 94       	cli
    2322:	de bf       	out	0x3e, r29	; 62
    2324:	0f be       	out	0x3f, r0	; 63
    2326:	cd bf       	out	0x3d, r28	; 61
	uint8_t encode_frame[FSP_PKT_MAX_LENGTH];
	uint8_t frame_len;
	Accel_Gyro_DataTypedef accel_data = get_acceleration();
    2328:	0e 94 c1 09 	call	0x1382	; 0x1382 <get_acceleration>
    232c:	d2 2e       	mov	r13, r18
    232e:	c3 2e       	mov	r12, r19
    2330:	f4 2e       	mov	r15, r20
    2332:	e5 2e       	mov	r14, r21
    2334:	16 2f       	mov	r17, r22
    2336:	07 2f       	mov	r16, r23
    2338:	2c ab       	std	Y+52, r18	; 0x34
    233a:	3d ab       	std	Y+53, r19	; 0x35
    233c:	4e ab       	std	Y+54, r20	; 0x36
    233e:	5f ab       	std	Y+55, r21	; 0x37
    2340:	68 af       	std	Y+56, r22	; 0x38
    2342:	79 af       	std	Y+57, r23	; 0x39
	Accel_Gyro_DataTypedef gyro_data = get_gyroscope();
    2344:	0e 94 e2 09 	call	0x13c4	; 0x13c4 <get_gyroscope>
    2348:	2a af       	std	Y+58, r18	; 0x3a
    234a:	3b af       	std	Y+59, r19	; 0x3b
    234c:	4c af       	std	Y+60, r20	; 0x3c
    234e:	5d af       	std	Y+61, r21	; 0x3d
    2350:	6e af       	std	Y+62, r22	; 0x3e
    2352:	7f af       	std	Y+63, r23	; 0x3f
	s_pIOU_Sfp_Payload->iouIRledGetBrightResponseFrame.Cmd = s_pCOPC_Sfp_Payload->commonFrame.Cmd;
    2354:	e0 91 20 0b 	lds	r30, 0x0B20	; 0x800b20 <s_pIOU_Sfp_Payload>
    2358:	f0 91 21 0b 	lds	r31, 0x0B21	; 0x800b21 <s_pIOU_Sfp_Payload+0x1>
    235c:	a0 91 22 0b 	lds	r26, 0x0B22	; 0x800b22 <s_pCOPC_Sfp_Payload>
    2360:	b0 91 23 0b 	lds	r27, 0x0B23	; 0x800b23 <s_pCOPC_Sfp_Payload+0x1>
    2364:	8c 91       	ld	r24, X
    2366:	80 83       	st	Z, r24
	s_pIOU_Sfp_Payload->iouGetAccelGyroResponseFrame.accel_x_high = (uint8_t)(accel_data.x >> 8);
    2368:	c1 82       	std	Z+1, r12	; 0x01
	s_pIOU_Sfp_Payload->iouGetAccelGyroResponseFrame.accel_x_low = (uint8_t)accel_data.x;
    236a:	d2 82       	std	Z+2, r13	; 0x02
	s_pIOU_Sfp_Payload->iouGetAccelGyroResponseFrame.accel_y_high = (uint8_t)(accel_data.y >> 8);
    236c:	e3 82       	std	Z+3, r14	; 0x03
	s_pIOU_Sfp_Payload->iouGetAccelGyroResponseFrame.accel_y_low = (uint8_t)accel_data.y;
    236e:	f4 82       	std	Z+4, r15	; 0x04
	s_pIOU_Sfp_Payload->iouGetAccelGyroResponseFrame.accel_z_high = (uint8_t)(accel_data.z >> 8);
    2370:	05 83       	std	Z+5, r16	; 0x05
	s_pIOU_Sfp_Payload->iouGetAccelGyroResponseFrame.accel_z_low = (uint8_t)accel_data.z;
    2372:	16 83       	std	Z+6, r17	; 0x06
	s_pIOU_Sfp_Payload->iouGetAccelGyroResponseFrame.gyro_x_high = (uint8_t)(gyro_data.x >> 8);
    2374:	37 83       	std	Z+7, r19	; 0x07
	s_pIOU_Sfp_Payload->iouGetAccelGyroResponseFrame.gyro_x_low = (uint8_t)gyro_data.x;
    2376:	20 87       	std	Z+8, r18	; 0x08
	s_pIOU_Sfp_Payload->iouGetAccelGyroResponseFrame.gyro_y_high = (uint8_t)(gyro_data.y >> 8);
    2378:	51 87       	std	Z+9, r21	; 0x09
	s_pIOU_Sfp_Payload->iouGetAccelGyroResponseFrame.gyro_y_low = (uint8_t)gyro_data.y;
    237a:	42 87       	std	Z+10, r20	; 0x0a
	s_pIOU_Sfp_Payload->iouGetAccelGyroResponseFrame.gyro_z_high = (uint8_t)(gyro_data.z >> 8);
    237c:	73 87       	std	Z+11, r23	; 0x0b
	s_pIOU_Sfp_Payload->iouGetAccelGyroResponseFrame.gyro_z_low = (uint8_t)gyro_data.z;
    237e:	64 87       	std	Z+12, r22	; 0x0c
	fsp_gen_pkt((void*)0, &s_pIOU_Sfp_Payload->iouGetAccelGyroResponseFrame, 13, FSP_ADR_COPC, FSP_PKT_TYPE_CMD_W_DATA, &s_IOU_FspPacket);
    2380:	0f 2e       	mov	r0, r31
    2382:	f4 e2       	ldi	r31, 0x24	; 36
    2384:	ef 2e       	mov	r14, r31
    2386:	fb e0       	ldi	r31, 0x0B	; 11
    2388:	ff 2e       	mov	r15, r31
    238a:	f0 2d       	mov	r31, r0
    238c:	07 e0       	ldi	r16, 0x07	; 7
    238e:	21 e0       	ldi	r18, 0x01	; 1
    2390:	4d e0       	ldi	r20, 0x0D	; 13
    2392:	bf 01       	movw	r22, r30
    2394:	80 e0       	ldi	r24, 0x00	; 0
    2396:	90 e0       	ldi	r25, 0x00	; 0
    2398:	0e 94 ce 27 	call	0x4f9c	; 0x4f9c <fsp_gen_pkt>
	fsp_encode(&s_IOU_FspPacket, encode_frame, &frame_len);
    239c:	ae 01       	movw	r20, r28
    239e:	4d 5c       	subi	r20, 0xCD	; 205
    23a0:	5f 4f       	sbci	r21, 0xFF	; 255
    23a2:	be 01       	movw	r22, r28
    23a4:	6f 5f       	subi	r22, 0xFF	; 255
    23a6:	7f 4f       	sbci	r23, 0xFF	; 255
    23a8:	c7 01       	movw	r24, r14
    23aa:	0e 94 25 28 	call	0x504a	; 0x504a <fsp_encode>
	usart1_send_array(encode_frame, frame_len);
    23ae:	6b a9       	ldd	r22, Y+51	; 0x33
    23b0:	ce 01       	movw	r24, r28
    23b2:	01 96       	adiw	r24, 0x01	; 1
    23b4:	0e 94 e7 1a 	call	0x35ce	; 0x35ce <usart1_send_array>
}
    23b8:	ef 96       	adiw	r28, 0x3f	; 63
    23ba:	0f b6       	in	r0, 0x3f	; 63
    23bc:	f8 94       	cli
    23be:	de bf       	out	0x3e, r29	; 62
    23c0:	0f be       	out	0x3f, r0	; 63
    23c2:	cd bf       	out	0x3d, r28	; 61
    23c4:	df 91       	pop	r29
    23c6:	cf 91       	pop	r28
    23c8:	1f 91       	pop	r17
    23ca:	0f 91       	pop	r16
    23cc:	ff 90       	pop	r15
    23ce:	ef 90       	pop	r14
    23d0:	df 90       	pop	r13
    23d2:	cf 90       	pop	r12
    23d4:	08 95       	ret

000023d6 <copc_iou_get_press>:
void copc_iou_get_press(void)
{
    23d6:	ef 92       	push	r14
    23d8:	ff 92       	push	r15
    23da:	0f 93       	push	r16
    23dc:	cf 93       	push	r28
    23de:	df 93       	push	r29
    23e0:	cd b7       	in	r28, 0x3d	; 61
    23e2:	de b7       	in	r29, 0x3e	; 62
    23e4:	e3 97       	sbiw	r28, 0x33	; 51
    23e6:	0f b6       	in	r0, 0x3f	; 63
    23e8:	f8 94       	cli
    23ea:	de bf       	out	0x3e, r29	; 62
    23ec:	0f be       	out	0x3f, r0	; 63
    23ee:	cd bf       	out	0x3d, r28	; 61
	uint8_t encode_frame[FSP_PKT_MAX_LENGTH];
	uint8_t frame_len;
	uint16_t pressure = get_pressure();
    23f0:	0e 94 63 14 	call	0x28c6	; 0x28c6 <get_pressure>
	s_pIOU_Sfp_Payload->iouGetPressResponseFrame.Cmd = s_pCOPC_Sfp_Payload->commonFrame.Cmd;
    23f4:	60 91 20 0b 	lds	r22, 0x0B20	; 0x800b20 <s_pIOU_Sfp_Payload>
    23f8:	70 91 21 0b 	lds	r23, 0x0B21	; 0x800b21 <s_pIOU_Sfp_Payload+0x1>
    23fc:	e0 91 22 0b 	lds	r30, 0x0B22	; 0x800b22 <s_pCOPC_Sfp_Payload>
    2400:	f0 91 23 0b 	lds	r31, 0x0B23	; 0x800b23 <s_pCOPC_Sfp_Payload+0x1>
    2404:	90 81       	ld	r25, Z
    2406:	fb 01       	movw	r30, r22
    2408:	90 83       	st	Z, r25
	s_pIOU_Sfp_Payload->iouGetPressResponseFrame.pressure_high = (uint8_t)(pressure >> 8);
	s_pIOU_Sfp_Payload->iouGetPressResponseFrame.pressure_high = (uint8_t)pressure;
    240a:	81 83       	std	Z+1, r24	; 0x01
	fsp_gen_pkt((void*)0, &s_pIOU_Sfp_Payload->iouGetPressResponseFrame, 3, FSP_ADR_COPC, FSP_PKT_TYPE_CMD_W_DATA, &s_IOU_FspPacket);
    240c:	0f 2e       	mov	r0, r31
    240e:	f4 e2       	ldi	r31, 0x24	; 36
    2410:	ef 2e       	mov	r14, r31
    2412:	fb e0       	ldi	r31, 0x0B	; 11
    2414:	ff 2e       	mov	r15, r31
    2416:	f0 2d       	mov	r31, r0
    2418:	07 e0       	ldi	r16, 0x07	; 7
    241a:	21 e0       	ldi	r18, 0x01	; 1
    241c:	43 e0       	ldi	r20, 0x03	; 3
    241e:	80 e0       	ldi	r24, 0x00	; 0
    2420:	90 e0       	ldi	r25, 0x00	; 0
    2422:	0e 94 ce 27 	call	0x4f9c	; 0x4f9c <fsp_gen_pkt>
	fsp_encode(&s_IOU_FspPacket, encode_frame, &frame_len);
    2426:	ae 01       	movw	r20, r28
    2428:	4d 5c       	subi	r20, 0xCD	; 205
    242a:	5f 4f       	sbci	r21, 0xFF	; 255
    242c:	be 01       	movw	r22, r28
    242e:	6f 5f       	subi	r22, 0xFF	; 255
    2430:	7f 4f       	sbci	r23, 0xFF	; 255
    2432:	c7 01       	movw	r24, r14
    2434:	0e 94 25 28 	call	0x504a	; 0x504a <fsp_encode>
	usart1_send_array(encode_frame, frame_len);
    2438:	6b a9       	ldd	r22, Y+51	; 0x33
    243a:	ce 01       	movw	r24, r28
    243c:	01 96       	adiw	r24, 0x01	; 1
    243e:	0e 94 e7 1a 	call	0x35ce	; 0x35ce <usart1_send_array>
}
    2442:	e3 96       	adiw	r28, 0x33	; 51
    2444:	0f b6       	in	r0, 0x3f	; 63
    2446:	f8 94       	cli
    2448:	de bf       	out	0x3e, r29	; 62
    244a:	0f be       	out	0x3f, r0	; 63
    244c:	cd bf       	out	0x3d, r28	; 61
    244e:	df 91       	pop	r29
    2450:	cf 91       	pop	r28
    2452:	0f 91       	pop	r16
    2454:	ff 90       	pop	r15
    2456:	ef 90       	pop	r14
    2458:	08 95       	ret

0000245a <copc_iou_get_param>:

void copc_iou_get_param(void)
{
    245a:	ef 92       	push	r14
    245c:	ff 92       	push	r15
    245e:	0f 93       	push	r16
    2460:	1f 93       	push	r17
    2462:	cf 93       	push	r28
    2464:	df 93       	push	r29
    2466:	cd b7       	in	r28, 0x3d	; 61
    2468:	de b7       	in	r29, 0x3e	; 62
    246a:	e3 97       	sbiw	r28, 0x33	; 51
    246c:	0f b6       	in	r0, 0x3f	; 63
    246e:	f8 94       	cli
    2470:	de bf       	out	0x3e, r29	; 62
    2472:	0f be       	out	0x3f, r0	; 63
    2474:	cd bf       	out	0x3d, r28	; 61
	uint8_t encode_frame[FSP_PKT_MAX_LENGTH];
	uint8_t frame_len;
	s_pIOU_Sfp_Payload->iouGetParamResponseFrame.Cmd = s_pCOPC_Sfp_Payload->commonFrame.Cmd;
    2476:	e0 91 22 0b 	lds	r30, 0x0B22	; 0x800b22 <s_pCOPC_Sfp_Payload>
    247a:	f0 91 23 0b 	lds	r31, 0x0B23	; 0x800b23 <s_pCOPC_Sfp_Payload+0x1>
    247e:	80 81       	ld	r24, Z
    2480:	e0 91 20 0b 	lds	r30, 0x0B20	; 0x800b20 <s_pIOU_Sfp_Payload>
    2484:	f0 91 21 0b 	lds	r31, 0x0B21	; 0x800b21 <s_pIOU_Sfp_Payload+0x1>
    2488:	80 83       	st	Z, r24
	// GET TEMP NTC
	uint16_t temp = temperature_get_NTC(0);
    248a:	80 e0       	ldi	r24, 0x00	; 0
    248c:	0e 94 76 14 	call	0x28ec	; 0x28ec <temperature_get_NTC>
	s_pIOU_Sfp_Payload->iouGetParamResponseFrame.Temp_NTC_channel_0_high = (uint8_t)(temp >> 8);
    2490:	e0 91 20 0b 	lds	r30, 0x0B20	; 0x800b20 <s_pIOU_Sfp_Payload>
    2494:	f0 91 21 0b 	lds	r31, 0x0B21	; 0x800b21 <s_pIOU_Sfp_Payload+0x1>
    2498:	91 83       	std	Z+1, r25	; 0x01
	s_pIOU_Sfp_Payload->iouGetParamResponseFrame.Temp_NTC_channel_0_low = (uint8_t)temp;
    249a:	82 83       	std	Z+2, r24	; 0x02
	temp = temperature_get_NTC(1);
    249c:	81 e0       	ldi	r24, 0x01	; 1
    249e:	0e 94 76 14 	call	0x28ec	; 0x28ec <temperature_get_NTC>
	s_pIOU_Sfp_Payload->iouGetParamResponseFrame.Temp_NTC_channel_1_high = (uint8_t)(temp >> 8);
    24a2:	e0 91 20 0b 	lds	r30, 0x0B20	; 0x800b20 <s_pIOU_Sfp_Payload>
    24a6:	f0 91 21 0b 	lds	r31, 0x0B21	; 0x800b21 <s_pIOU_Sfp_Payload+0x1>
    24aa:	93 83       	std	Z+3, r25	; 0x03
	s_pIOU_Sfp_Payload->iouGetParamResponseFrame.Temp_NTC_channel_1_low = (uint8_t)temp;
    24ac:	84 83       	std	Z+4, r24	; 0x04
	temp = temperature_get_NTC(2);
    24ae:	82 e0       	ldi	r24, 0x02	; 2
    24b0:	0e 94 76 14 	call	0x28ec	; 0x28ec <temperature_get_NTC>
	s_pIOU_Sfp_Payload->iouGetParamResponseFrame.Temp_NTC_channel_2_high = (uint8_t)(temp >> 8);
    24b4:	e0 91 20 0b 	lds	r30, 0x0B20	; 0x800b20 <s_pIOU_Sfp_Payload>
    24b8:	f0 91 21 0b 	lds	r31, 0x0B21	; 0x800b21 <s_pIOU_Sfp_Payload+0x1>
    24bc:	95 83       	std	Z+5, r25	; 0x05
	s_pIOU_Sfp_Payload->iouGetParamResponseFrame.Temp_NTC_channel_2_low = (uint8_t)temp;
    24be:	86 83       	std	Z+6, r24	; 0x06
	temp = temperature_get_NTC(3);
    24c0:	83 e0       	ldi	r24, 0x03	; 3
    24c2:	0e 94 76 14 	call	0x28ec	; 0x28ec <temperature_get_NTC>
	s_pIOU_Sfp_Payload->iouGetParamResponseFrame.Temp_NTC_channel_3_high = (uint8_t)(temp >> 8);
    24c6:	e0 91 20 0b 	lds	r30, 0x0B20	; 0x800b20 <s_pIOU_Sfp_Payload>
    24ca:	f0 91 21 0b 	lds	r31, 0x0B21	; 0x800b21 <s_pIOU_Sfp_Payload+0x1>
    24ce:	97 83       	std	Z+7, r25	; 0x07
	s_pIOU_Sfp_Payload->iouGetParamResponseFrame.Temp_NTC_channel_3_low = (uint8_t)temp;
    24d0:	80 87       	std	Z+8, r24	; 0x08
	// GET TEMP ONEWIRE
	temp = temperature_get_onewire(0);
    24d2:	80 e0       	ldi	r24, 0x00	; 0
    24d4:	0e 94 7f 14 	call	0x28fe	; 0x28fe <temperature_get_onewire>
	s_pIOU_Sfp_Payload->iouGetParamResponseFrame.Temp_onewire_channel_0_high = (uint8_t)(temp >> 8);
    24d8:	e0 91 20 0b 	lds	r30, 0x0B20	; 0x800b20 <s_pIOU_Sfp_Payload>
    24dc:	f0 91 21 0b 	lds	r31, 0x0B21	; 0x800b21 <s_pIOU_Sfp_Payload+0x1>
    24e0:	91 87       	std	Z+9, r25	; 0x09
	s_pIOU_Sfp_Payload->iouGetParamResponseFrame.Temp_onewire_channel_0_low = (uint8_t)temp;
    24e2:	82 87       	std	Z+10, r24	; 0x0a
	temp = temperature_get_onewire(1);
    24e4:	81 e0       	ldi	r24, 0x01	; 1
    24e6:	0e 94 7f 14 	call	0x28fe	; 0x28fe <temperature_get_onewire>
	s_pIOU_Sfp_Payload->iouGetParamResponseFrame.Temp_onewire_channel_1_high = (uint8_t)(temp >> 8);
    24ea:	e0 91 20 0b 	lds	r30, 0x0B20	; 0x800b20 <s_pIOU_Sfp_Payload>
    24ee:	f0 91 21 0b 	lds	r31, 0x0B21	; 0x800b21 <s_pIOU_Sfp_Payload+0x1>
    24f2:	93 87       	std	Z+11, r25	; 0x0b
	s_pIOU_Sfp_Payload->iouGetParamResponseFrame.Temp_onewire_channel_1_low = (uint8_t)temp;
    24f4:	84 87       	std	Z+12, r24	; 0x0c
	// GET TEMP BMP390
	temp = temperature_get_bmp390();
    24f6:	0e 94 88 14 	call	0x2910	; 0x2910 <temperature_get_bmp390>
	s_pIOU_Sfp_Payload->iouGetParamResponseFrame.Temp_i2c_sensor_high = (uint8_t)(temp >> 8);
    24fa:	e0 91 20 0b 	lds	r30, 0x0B20	; 0x800b20 <s_pIOU_Sfp_Payload>
    24fe:	f0 91 21 0b 	lds	r31, 0x0B21	; 0x800b21 <s_pIOU_Sfp_Payload+0x1>
    2502:	95 87       	std	Z+13, r25	; 0x0d
	s_pIOU_Sfp_Payload->iouGetParamResponseFrame.Temp_i2c_sensor_low = (uint8_t)temp;
    2504:	86 87       	std	Z+14, r24	; 0x0e
	// GET TEMP SETPOINT
	temp = (uint16_t)temperature_get_setpoint(0);
    2506:	80 e0       	ldi	r24, 0x00	; 0
    2508:	0e 94 07 17 	call	0x2e0e	; 0x2e0e <temperature_get_setpoint>
	s_pIOU_Sfp_Payload->iouGetParamResponseFrame.Temp_setpoint_channel_0_high = (uint8_t)(temp >> 8);
    250c:	e0 91 20 0b 	lds	r30, 0x0B20	; 0x800b20 <s_pIOU_Sfp_Payload>
    2510:	f0 91 21 0b 	lds	r31, 0x0B21	; 0x800b21 <s_pIOU_Sfp_Payload+0x1>
    2514:	97 87       	std	Z+15, r25	; 0x0f
	s_pIOU_Sfp_Payload->iouGetParamResponseFrame.Temp_setpoint_channel_0_low = (uint8_t)temp;
    2516:	80 8b       	std	Z+16, r24	; 0x10
	temp = (uint16_t)temperature_get_setpoint(1);
    2518:	81 e0       	ldi	r24, 0x01	; 1
    251a:	0e 94 07 17 	call	0x2e0e	; 0x2e0e <temperature_get_setpoint>
	s_pIOU_Sfp_Payload->iouGetParamResponseFrame.Temp_setpoint_channel_1_high = (uint8_t)(temp >> 8);
    251e:	e0 91 20 0b 	lds	r30, 0x0B20	; 0x800b20 <s_pIOU_Sfp_Payload>
    2522:	f0 91 21 0b 	lds	r31, 0x0B21	; 0x800b21 <s_pIOU_Sfp_Payload+0x1>
    2526:	91 8b       	std	Z+17, r25	; 0x11
	s_pIOU_Sfp_Payload->iouGetParamResponseFrame.Temp_setpoint_channel_1_low = (uint8_t)temp;
    2528:	82 8b       	std	Z+18, r24	; 0x12
	temp = (uint16_t)temperature_get_setpoint(2);
    252a:	82 e0       	ldi	r24, 0x02	; 2
    252c:	0e 94 07 17 	call	0x2e0e	; 0x2e0e <temperature_get_setpoint>
	s_pIOU_Sfp_Payload->iouGetParamResponseFrame.Temp_setpoint_channel_2_high = (uint8_t)(temp >> 8);
    2530:	e0 91 20 0b 	lds	r30, 0x0B20	; 0x800b20 <s_pIOU_Sfp_Payload>
    2534:	f0 91 21 0b 	lds	r31, 0x0B21	; 0x800b21 <s_pIOU_Sfp_Payload+0x1>
    2538:	93 8b       	std	Z+19, r25	; 0x13
	s_pIOU_Sfp_Payload->iouGetParamResponseFrame.Temp_setpoint_channel_2_low = (uint8_t)temp;
    253a:	84 8b       	std	Z+20, r24	; 0x14
	temp = (uint16_t)temperature_get_setpoint(3);
    253c:	83 e0       	ldi	r24, 0x03	; 3
    253e:	0e 94 07 17 	call	0x2e0e	; 0x2e0e <temperature_get_setpoint>
	s_pIOU_Sfp_Payload->iouGetParamResponseFrame.Temp_setpoint_channel_3_high = (uint8_t)(temp >> 8);
    2542:	e0 91 20 0b 	lds	r30, 0x0B20	; 0x800b20 <s_pIOU_Sfp_Payload>
    2546:	f0 91 21 0b 	lds	r31, 0x0B21	; 0x800b21 <s_pIOU_Sfp_Payload+0x1>
    254a:	95 8b       	std	Z+21, r25	; 0x15
	s_pIOU_Sfp_Payload->iouGetParamResponseFrame.Temp_setpoint_channel_3_low = (uint8_t)temp;
    254c:	86 8b       	std	Z+22, r24	; 0x16
	// GET VOLTAGE OUTPUT TEC
	uint16_t voltage = temperature_get_voltage(0);
    254e:	80 e0       	ldi	r24, 0x00	; 0
    2550:	0e 94 10 17 	call	0x2e20	; 0x2e20 <temperature_get_voltage>
	s_pIOU_Sfp_Payload->iouGetParamResponseFrame.Voltage_out_tec_channel_0_high = (uint8_t)(voltage >> 8);
    2554:	e0 91 20 0b 	lds	r30, 0x0B20	; 0x800b20 <s_pIOU_Sfp_Payload>
    2558:	f0 91 21 0b 	lds	r31, 0x0B21	; 0x800b21 <s_pIOU_Sfp_Payload+0x1>
    255c:	97 8b       	std	Z+23, r25	; 0x17
	s_pIOU_Sfp_Payload->iouGetParamResponseFrame.Voltage_out_tec_channel_0_low = (uint8_t)voltage;
    255e:	80 8f       	std	Z+24, r24	; 0x18
	voltage = temperature_get_voltage(1);
    2560:	81 e0       	ldi	r24, 0x01	; 1
    2562:	0e 94 10 17 	call	0x2e20	; 0x2e20 <temperature_get_voltage>
	s_pIOU_Sfp_Payload->iouGetParamResponseFrame.Voltage_out_tec_channel_1_high = (uint8_t)(voltage >> 8);
    2566:	e0 91 20 0b 	lds	r30, 0x0B20	; 0x800b20 <s_pIOU_Sfp_Payload>
    256a:	f0 91 21 0b 	lds	r31, 0x0B21	; 0x800b21 <s_pIOU_Sfp_Payload+0x1>
    256e:	91 8f       	std	Z+25, r25	; 0x19
	s_pIOU_Sfp_Payload->iouGetParamResponseFrame.Voltage_out_tec_channel_1_low = (uint8_t)voltage;
    2570:	82 8f       	std	Z+26, r24	; 0x1a
	voltage = temperature_get_voltage(2);
    2572:	82 e0       	ldi	r24, 0x02	; 2
    2574:	0e 94 10 17 	call	0x2e20	; 0x2e20 <temperature_get_voltage>
	s_pIOU_Sfp_Payload->iouGetParamResponseFrame.Voltage_out_tec_channel_2_high = (uint8_t)(voltage >> 8);
    2578:	e0 91 20 0b 	lds	r30, 0x0B20	; 0x800b20 <s_pIOU_Sfp_Payload>
    257c:	f0 91 21 0b 	lds	r31, 0x0B21	; 0x800b21 <s_pIOU_Sfp_Payload+0x1>
    2580:	93 8f       	std	Z+27, r25	; 0x1b
	s_pIOU_Sfp_Payload->iouGetParamResponseFrame.Voltage_out_tec_channel_2_low = (uint8_t)voltage;
    2582:	84 8f       	std	Z+28, r24	; 0x1c
	voltage = temperature_get_voltage(3);
    2584:	83 e0       	ldi	r24, 0x03	; 3
    2586:	0e 94 10 17 	call	0x2e20	; 0x2e20 <temperature_get_voltage>
	s_pIOU_Sfp_Payload->iouGetParamResponseFrame.Voltage_out_tec_channel_3_high = (uint8_t)(voltage >> 8);
    258a:	e0 91 20 0b 	lds	r30, 0x0B20	; 0x800b20 <s_pIOU_Sfp_Payload>
    258e:	f0 91 21 0b 	lds	r31, 0x0B21	; 0x800b21 <s_pIOU_Sfp_Payload+0x1>
    2592:	95 8f       	std	Z+29, r25	; 0x1d
	s_pIOU_Sfp_Payload->iouGetParamResponseFrame.Voltage_out_tec_channel_3_low = (uint8_t)voltage;
    2594:	86 8f       	std	Z+30, r24	; 0x1e
	// GET NEO LED DATA
	rgbw_color RGBW = ringled_get_RGBW();
    2596:	0e 94 85 25 	call	0x4b0a	; 0x4b0a <ringled_get_RGBW>
	s_pIOU_Sfp_Payload->iouGetParamResponseFrame.Neo_led_R = (uint8_t)RGBW.red;
    259a:	00 91 20 0b 	lds	r16, 0x0B20	; 0x800b20 <s_pIOU_Sfp_Payload>
    259e:	10 91 21 0b 	lds	r17, 0x0B21	; 0x800b21 <s_pIOU_Sfp_Payload+0x1>
    25a2:	f8 01       	movw	r30, r16
    25a4:	67 8f       	std	Z+31, r22	; 0x1f
	s_pIOU_Sfp_Payload->iouGetParamResponseFrame.Neo_led_G = (uint8_t)RGBW.green;
    25a6:	70 a3       	std	Z+32, r23	; 0x20
	s_pIOU_Sfp_Payload->iouGetParamResponseFrame.Neo_led_B = (uint8_t)RGBW.blue;
    25a8:	81 a3       	std	Z+33, r24	; 0x21
	s_pIOU_Sfp_Payload->iouGetParamResponseFrame.Neo_led_W = (uint8_t)RGBW.white;
    25aa:	92 a3       	std	Z+34, r25	; 0x22
	// GET IR LED BRIGHT
	s_pIOU_Sfp_Payload->iouGetParamResponseFrame.IRled_duty = (uint8_t)IR_led_get_Current_DutyCyclesPercent();
    25ac:	0e 94 86 13 	call	0x270c	; 0x270c <IR_led_get_Current_DutyCyclesPercent>
    25b0:	f8 01       	movw	r30, r16
    25b2:	83 a3       	std	Z+35, r24	; 0x23
	// DECODE FRAME
	fsp_gen_pkt((void*)0, &s_pIOU_Sfp_Payload->iouGetParamResponseFrame, 36, FSP_ADR_COPC, FSP_PKT_TYPE_CMD_W_DATA, &s_IOU_FspPacket);
    25b4:	60 91 20 0b 	lds	r22, 0x0B20	; 0x800b20 <s_pIOU_Sfp_Payload>
    25b8:	70 91 21 0b 	lds	r23, 0x0B21	; 0x800b21 <s_pIOU_Sfp_Payload+0x1>
    25bc:	0f 2e       	mov	r0, r31
    25be:	f4 e2       	ldi	r31, 0x24	; 36
    25c0:	ef 2e       	mov	r14, r31
    25c2:	fb e0       	ldi	r31, 0x0B	; 11
    25c4:	ff 2e       	mov	r15, r31
    25c6:	f0 2d       	mov	r31, r0
    25c8:	07 e0       	ldi	r16, 0x07	; 7
    25ca:	21 e0       	ldi	r18, 0x01	; 1
    25cc:	44 e2       	ldi	r20, 0x24	; 36
    25ce:	80 e0       	ldi	r24, 0x00	; 0
    25d0:	90 e0       	ldi	r25, 0x00	; 0
    25d2:	0e 94 ce 27 	call	0x4f9c	; 0x4f9c <fsp_gen_pkt>
	fsp_encode(&s_IOU_FspPacket, encode_frame, &frame_len);
    25d6:	ae 01       	movw	r20, r28
    25d8:	4d 5c       	subi	r20, 0xCD	; 205
    25da:	5f 4f       	sbci	r21, 0xFF	; 255
    25dc:	be 01       	movw	r22, r28
    25de:	6f 5f       	subi	r22, 0xFF	; 255
    25e0:	7f 4f       	sbci	r23, 0xFF	; 255
    25e2:	c7 01       	movw	r24, r14
    25e4:	0e 94 25 28 	call	0x504a	; 0x504a <fsp_encode>
	usart1_send_array(encode_frame, frame_len);
    25e8:	6b a9       	ldd	r22, Y+51	; 0x33
    25ea:	ce 01       	movw	r24, r28
    25ec:	01 96       	adiw	r24, 0x01	; 1
    25ee:	0e 94 e7 1a 	call	0x35ce	; 0x35ce <usart1_send_array>
}
    25f2:	e3 96       	adiw	r28, 0x33	; 51
    25f4:	0f b6       	in	r0, 0x3f	; 63
    25f6:	f8 94       	cli
    25f8:	de bf       	out	0x3e, r29	; 62
    25fa:	0f be       	out	0x3f, r0	; 63
    25fc:	cd bf       	out	0x3d, r28	; 61
    25fe:	df 91       	pop	r29
    2600:	cf 91       	pop	r28
    2602:	1f 91       	pop	r17
    2604:	0f 91       	pop	r16
    2606:	ff 90       	pop	r15
    2608:	ef 90       	pop	r14
    260a:	08 95       	ret

0000260c <COPC_process_command>:
	}
}

void COPC_process_command(fsp_packet_t	*s_COPC_FspPacket)
{
	s_pIOU_Sfp_Payload->commonFrame.Cmd = s_pCOPC_Sfp_Payload->commonFrame.Cmd;
    260c:	e0 91 22 0b 	lds	r30, 0x0B22	; 0x800b22 <s_pCOPC_Sfp_Payload>
    2610:	f0 91 23 0b 	lds	r31, 0x0B23	; 0x800b23 <s_pCOPC_Sfp_Payload+0x1>
    2614:	80 81       	ld	r24, Z
    2616:	a0 91 20 0b 	lds	r26, 0x0B20	; 0x800b20 <s_pIOU_Sfp_Payload>
    261a:	b0 91 21 0b 	lds	r27, 0x0B21	; 0x800b21 <s_pIOU_Sfp_Payload+0x1>
    261e:	8c 93       	st	X, r24
	switch (s_pCOPC_Sfp_Payload->commonFrame.Cmd)
    2620:	e0 81       	ld	r30, Z
    2622:	8e 2f       	mov	r24, r30
    2624:	90 e0       	ldi	r25, 0x00	; 0
    2626:	fc 01       	movw	r30, r24
    2628:	31 97       	sbiw	r30, 0x01	; 1
    262a:	e3 31       	cpi	r30, 0x13	; 19
    262c:	f1 05       	cpc	r31, r1
    262e:	98 f5       	brcc	.+102    	; 0x2696 <COPC_process_command+0x8a>
    2630:	ea 5b       	subi	r30, 0xBA	; 186
    2632:	ff 4f       	sbci	r31, 0xFF	; 255
    2634:	0c 94 56 2f 	jmp	0x5eac	; 0x5eac <__tablejump2__>
	{
		case FSP_CMD_CODE_IOU_SET_TEMP:
			copc_iou_set_temp();
    2638:	0e 94 bf 0f 	call	0x1f7e	; 0x1f7e <copc_iou_set_temp>
			break;
    263c:	08 95       	ret
		case FSP_CMD_CODE_IOU_GET_TEMP:
			copc_iou_get_temp();
    263e:	0e 94 4d 10 	call	0x209a	; 0x209a <copc_iou_get_temp>
			break;
    2642:	08 95       	ret
		case FSP_CMD_CODE_IOU_GET_TEMP_SETPOINT:
			copc_iou_get_temp_setpoint();
    2644:	0e 94 af 10 	call	0x215e	; 0x215e <copc_iou_get_temp_setpoint>
			break;
    2648:	08 95       	ret
		case FSP_CMD_CODE_IOU_TEC_ENA:
			copc_iou_tec_ena();
    264a:	0e 94 d1 0f 	call	0x1fa2	; 0x1fa2 <copc_iou_tec_ena>
			break;
    264e:	08 95       	ret
		case FSP_CMD_CODE_IOU_TEC_DIS:
			copc_iou_tec_dis();
    2650:	0e 94 dd 0f 	call	0x1fba	; 0x1fba <copc_iou_tec_dis>
			break;
    2654:	08 95       	ret
		case FSP_CMD_CODE_IOU_TEC_ENA_AUTO:
			copc_iou_tec_ena_auto();
    2656:	0e 94 e9 0f 	call	0x1fd2	; 0x1fd2 <copc_iou_tec_ena_auto>
			break;
    265a:	08 95       	ret
		case FSP_CMD_CODE_IOU_TEC_DIS_AUTO:
			copc_iou_tec_dis_auto();
    265c:	0e 94 01 10 	call	0x2002	; 0x2002 <copc_iou_tec_dis_auto>
			break;
    2660:	08 95       	ret
		case FSP_CMD_CODE_IOU_TEC_SET_OUTPUT:
			copc_iou_tec_set_output();
    2662:	0e 94 0e 10 	call	0x201c	; 0x201c <copc_iou_tec_set_output>
			break;
    2666:	08 95       	ret
		case FSP_CMD_CODE_IOU_TEC_AUTO_VOL:
			copc_iou_tec_set_auto_vol();
    2668:	0e 94 21 10 	call	0x2042	; 0x2042 <copc_iou_tec_set_auto_vol>
			break;
    266c:	08 95       	ret
		case FSP_CMD_CODE_IOU_TEC_LOG_ENA:
			break;
		case FSP_CMD_CODE_IOU_TEC_LOG_DIS:
			break;
		case FSP_CMD_CODE_IOU_RINGLED_SET_RGBW:
			copc_iou_ringled_set_RGBW();
    266e:	0e 94 33 10 	call	0x2066	; 0x2066 <copc_iou_ringled_set_RGBW>
			break;
    2672:	08 95       	ret
		case FSP_CMD_CODE_IOU_RINGLED_GET_RGBW:
			copc_iou_ringled_get_RGBW();
    2674:	0e 94 fd 10 	call	0x21fa	; 0x21fa <copc_iou_ringled_get_RGBW>
			break;
    2678:	08 95       	ret
		case FSP_CMD_CODE_IOU_IRLED_SET_BRIGHT:
			copc_iou_irled_set_bright();
    267a:	0e 94 40 10 	call	0x2080	; 0x2080 <copc_iou_irled_set_bright>
			break;
    267e:	08 95       	ret
		case FSP_CMD_CODE_IOU_IRLED_GET_BRIGHT:
			copc_iou_irled_get_bright();
    2680:	0e 94 42 11 	call	0x2284	; 0x2284 <copc_iou_irled_get_bright>
			break;
    2684:	08 95       	ret
		case FSP_CMD_CODE_IOU_GET_ACCEL_GYRO:
			copc_iou_get_accel_gyro();
    2686:	0e 94 84 11 	call	0x2308	; 0x2308 <copc_iou_get_accel_gyro>
			break;
    268a:	08 95       	ret
		case FSP_CMD_CODE_IOU_GET_PRESS:
			copc_iou_get_press();
    268c:	0e 94 eb 11 	call	0x23d6	; 0x23d6 <copc_iou_get_press>
			break;
    2690:	08 95       	ret
		case FSP_CMD_CODE_IOU_GET_PARAMETERS:
			copc_iou_get_param();
    2692:	0e 94 2d 12 	call	0x245a	; 0x245a <copc_iou_get_param>
    2696:	08 95       	ret

00002698 <COPC_task_update>:
}

static void COPC_task_update(void)
{
	char rxData;
	while (!rbuffer_empty(p_COPCBuffer))
    2698:	1d c0       	rjmp	.+58     	; 0x26d4 <COPC_task_update+0x3c>
	{
		rxData = rbuffer_remove(p_COPCBuffer);
    269a:	80 91 8a 0b 	lds	r24, 0x0B8A	; 0x800b8a <p_COPCBuffer>
    269e:	90 91 8b 0b 	lds	r25, 0x0B8B	; 0x800b8b <p_COPCBuffer+0x1>
    26a2:	0e 94 30 1a 	call	0x3460	; 0x3460 <rbuffer_remove>
		if(rxData == FSP_PKT_ESC)	
		{
			swap_byte = 1;
			break;
		}
		if(swap_byte)
    26a6:	90 91 1f 0b 	lds	r25, 0x0B1F	; 0x800b1f <swap_byte>
    26aa:	91 11       	cpse	r25, r1
		{
			swap_byte = 0;
    26ac:	10 92 1f 0b 	sts	0x0B1F, r1	; 0x800b1f <swap_byte>
			if(rxData == FSP_PKT_TSOD)	rxData = FSP_PKT_SOD;
			if(rxData == FSP_PKT_TESC)	rxData = FSP_PKT_ESC;
			if(rxData == FSP_PKT_TEOF)	rxData = FSP_PKT_EOF;
		}
		switch ( fsp_decode(rxData,&s_COPC_FspPacket))
    26b0:	67 e5       	ldi	r22, 0x57	; 87
    26b2:	7b e0       	ldi	r23, 0x0B	; 11
    26b4:	0e 94 0c 29 	call	0x5218	; 0x5218 <fsp_decode>
    26b8:	81 30       	cpi	r24, 0x01	; 1
    26ba:	19 f0       	breq	.+6      	; 0x26c2 <COPC_task_update+0x2a>
    26bc:	83 30       	cpi	r24, 0x03	; 3
    26be:	31 f0       	breq	.+12     	; 0x26cc <COPC_task_update+0x34>
    26c0:	09 c0       	rjmp	.+18     	; 0x26d4 <COPC_task_update+0x3c>
		{
			//process command
            case FSP_PKT_NOT_READY:
				break;
            case FSP_PKT_READY:
				COPC_process_command(&s_COPC_FspPacket);          
    26c2:	87 e5       	ldi	r24, 0x57	; 87
    26c4:	9b e0       	ldi	r25, 0x0B	; 11
    26c6:	0e 94 06 13 	call	0x260c	; 0x260c <COPC_process_command>
	            break;
    26ca:	04 c0       	rjmp	.+8      	; 0x26d4 <COPC_task_update+0x3c>
            case FSP_PKT_INVALID:
	            break;
            case FSP_PKT_WRONG_ADR:
				usart0_send_string("Wrong module address \r\n");
    26cc:	80 e0       	ldi	r24, 0x00	; 0
    26ce:	9a e0       	ldi	r25, 0x0A	; 10
    26d0:	0e 94 71 1a 	call	0x34e2	; 0x34e2 <usart0_send_string>
}

static void COPC_task_update(void)
{
	char rxData;
	while (!rbuffer_empty(p_COPCBuffer))
    26d4:	80 91 8a 0b 	lds	r24, 0x0B8A	; 0x800b8a <p_COPCBuffer>
    26d8:	90 91 8b 0b 	lds	r25, 0x0B8B	; 0x800b8b <p_COPCBuffer+0x1>
    26dc:	0e 94 14 1a 	call	0x3428	; 0x3428 <rbuffer_empty>
    26e0:	88 23       	and	r24, r24
    26e2:	d9 f2       	breq	.-74     	; 0x269a <COPC_task_update+0x2>
	            break;
            default:
	           break;
		}
	}
}
    26e4:	08 95       	ret

000026e6 <IR_led_init>:
static IR_Led_CurrentDutyCyclePercentTypedef_t		IR_led_DutyCycle_status = 0;

void IR_led_init(void)
{
	#ifdef	IOU_HW_V1_0_0
		pwm1_init(IR_LED_PIN, 1000, 0);
    26e6:	40 e0       	ldi	r20, 0x00	; 0
    26e8:	68 ee       	ldi	r22, 0xE8	; 232
    26ea:	73 e0       	ldi	r23, 0x03	; 3
    26ec:	86 e0       	ldi	r24, 0x06	; 6
    26ee:	0e 94 20 18 	call	0x3040	; 0x3040 <pwm1_init>
    26f2:	08 95       	ret

000026f4 <IR_led_set_DutyCyclesPercent>:
		pwm2_init(IR_LED_PIN, 1000, 0);
	#endif
}

void IR_led_set_DutyCyclesPercent(uint8_t _DutyCyclesPercent)
{
    26f4:	cf 93       	push	r28
    26f6:	c8 2f       	mov	r28, r24
    26f8:	85 36       	cpi	r24, 0x65	; 101
    26fa:	08 f0       	brcs	.+2      	; 0x26fe <IR_led_set_DutyCyclesPercent+0xa>
    26fc:	c4 e6       	ldi	r28, 0x64	; 100
	if (_DutyCyclesPercent > 100) _DutyCyclesPercent = 100;
	#ifdef	IOU_HW_V1_0_0
		pwm1_set_DutyCyclePercent(_DutyCyclesPercent);
    26fe:	8c 2f       	mov	r24, r28
    2700:	0e 94 64 18 	call	0x30c8	; 0x30c8 <pwm1_set_DutyCyclePercent>
		
	#ifdef	IOU_HW_V1_2_0
		pwm2_set_DutyCyclePercent(_DutyCyclesPercent);
	#endif
	
	IR_led_DutyCycle_status = _DutyCyclesPercent;
    2704:	c0 93 8c 0b 	sts	0x0B8C, r28	; 0x800b8c <IR_led_DutyCycle_status>
}
    2708:	cf 91       	pop	r28
    270a:	08 95       	ret

0000270c <IR_led_get_Current_DutyCyclesPercent>:

uint8_t IR_led_get_Current_DutyCyclesPercent(void)
{
	return (uint8_t)IR_led_DutyCycle_status;
    270c:	80 91 8c 0b 	lds	r24, 0x0B8C	; 0x800b8c <IR_led_DutyCycle_status>
    2710:	08 95       	ret

00002712 <ringled_update>:
	SCH_TASK_CreateTask(&s_ringled_task_context.taskHandle, &s_ringled_task_context.taskProperty);
}

void	ringled_update(void)
{
	ringled_show(colorMap, LED_COUNT);
    2712:	6a e0       	ldi	r22, 0x0A	; 10
    2714:	8e e2       	ldi	r24, 0x2E	; 46
    2716:	9c e0       	ldi	r25, 0x0C	; 12
    2718:	0e 94 20 25 	call	0x4a40	; 0x4a40 <ringled_show>
    271c:	08 95       	ret

0000271e <ringled_create_task>:
	}
};

void	ringled_create_task(void)
{
	SCH_TASK_CreateTask(&s_ringled_task_context.taskHandle, &s_ringled_task_context.taskProperty);
    271e:	6e e9       	ldi	r22, 0x9E	; 158
    2720:	71 e0       	ldi	r23, 0x01	; 1
    2722:	8d e9       	ldi	r24, 0x9D	; 157
    2724:	91 e0       	ldi	r25, 0x01	; 1
    2726:	0e 94 0b 26 	call	0x4c16	; 0x4c16 <SCH_TASK_CreateTask>
    272a:	08 95       	ret

0000272c <status_led_led1_off>:
	
}

static void status_led_led1_off(void)
{
	LED1_DATA_PORT |= ((1 << LED1_PIN));	
    272c:	e2 e6       	ldi	r30, 0x62	; 98
    272e:	f0 e0       	ldi	r31, 0x00	; 0
    2730:	80 81       	ld	r24, Z
    2732:	84 60       	ori	r24, 0x04	; 4
    2734:	80 83       	st	Z, r24
    2736:	08 95       	ret

00002738 <status_led_update>:
{
	LED2_DATA_PORT &= ~((1 << LED2_PIN));
}
void	status_led_update(void)
{
	switch (*s_led_display_status.s_pIOU_Status) {
    2738:	e0 91 8e 0b 	lds	r30, 0x0B8E	; 0x800b8e <s_led_display_status+0x1>
    273c:	f0 91 8f 0b 	lds	r31, 0x0B8F	; 0x800b8f <s_led_display_status+0x2>
    2740:	80 81       	ld	r24, Z
    2742:	88 23       	and	r24, r24
    2744:	19 f0       	breq	.+6      	; 0x274c <status_led_update+0x14>
    2746:	81 30       	cpi	r24, 0x01	; 1
    2748:	c9 f1       	breq	.+114    	; 0x27bc <status_led_update+0x84>
    274a:	08 95       	ret
	}
}
static	void	status_led_powerup(void)
{
		{
			if ((s_led_display_status.led1 == 1) && (s_led_display_status.led1 == 1))	//both ON
    274c:	80 91 8d 0b 	lds	r24, 0x0B8D	; 0x800b8d <s_led_display_status>
    2750:	80 ff       	sbrs	r24, 0
    2752:	1a c0       	rjmp	.+52     	; 0x2788 <status_led_update+0x50>
			{
				if (SCH_TIM_HasCompleted(SCH_TIM_LED))
    2754:	80 e0       	ldi	r24, 0x00	; 0
    2756:	0e 94 fe 25 	call	0x4bfc	; 0x4bfc <SCH_TIM_HasCompleted>
    275a:	88 23       	and	r24, r24
    275c:	09 f4       	brne	.+2      	; 0x2760 <status_led_update+0x28>
    275e:	45 c0       	rjmp	.+138    	; 0x27ea <status_led_update+0xb2>
				{
					s_led_display_status.led1 = 0;
    2760:	ed e8       	ldi	r30, 0x8D	; 141
    2762:	fb e0       	ldi	r31, 0x0B	; 11
    2764:	80 81       	ld	r24, Z
    2766:	8e 7f       	andi	r24, 0xFE	; 254
    2768:	80 83       	st	Z, r24
					s_led_display_status.led1 = 0;
					status_led_led1_off();
    276a:	0e 94 96 13 	call	0x272c	; 0x272c <status_led_led1_off>
	LED1_DATA_PORT &= ~((1 << LED1_PIN));
}

static void status_led_led2_off(void)
{
	LED2_DATA_PORT |= ((1 << LED2_PIN));
    276e:	e2 e6       	ldi	r30, 0x62	; 98
    2770:	f0 e0       	ldi	r31, 0x00	; 0
    2772:	80 81       	ld	r24, Z
    2774:	88 60       	ori	r24, 0x08	; 8
    2776:	80 83       	st	Z, r24
				{
					s_led_display_status.led1 = 0;
					s_led_display_status.led1 = 0;
					status_led_led1_off();
					status_led_led2_off();
					SCH_TIM_Start(SCH_TIM_LED,POWERUP_PERIOD);	//restart
    2778:	44 ef       	ldi	r20, 0xF4	; 244
    277a:	51 e0       	ldi	r21, 0x01	; 1
    277c:	60 e0       	ldi	r22, 0x00	; 0
    277e:	70 e0       	ldi	r23, 0x00	; 0
    2780:	80 e0       	ldi	r24, 0x00	; 0
    2782:	0e 94 f3 25 	call	0x4be6	; 0x4be6 <SCH_TIM_Start>
    2786:	08 95       	ret
				}
			}
			else if ((s_led_display_status.led1 == 0) && (s_led_display_status.led1 == 0))	//both OFF
			{
				if (SCH_TIM_HasCompleted(SCH_TIM_LED))
    2788:	80 e0       	ldi	r24, 0x00	; 0
    278a:	0e 94 fe 25 	call	0x4bfc	; 0x4bfc <SCH_TIM_HasCompleted>
    278e:	88 23       	and	r24, r24
    2790:	61 f1       	breq	.+88     	; 0x27ea <status_led_update+0xb2>
				{
					s_led_display_status.led1 = 1;
    2792:	ed e8       	ldi	r30, 0x8D	; 141
    2794:	fb e0       	ldi	r31, 0x0B	; 11
    2796:	80 81       	ld	r24, Z
    2798:	81 60       	ori	r24, 0x01	; 1
    279a:	80 83       	st	Z, r24
	LED1_DATA_PORT |= ((1 << LED1_PIN));	
}

static void status_led_led1_on(void)
{
	LED1_DATA_PORT &= ~((1 << LED1_PIN));
    279c:	e2 e6       	ldi	r30, 0x62	; 98
    279e:	f0 e0       	ldi	r31, 0x00	; 0
    27a0:	80 81       	ld	r24, Z
    27a2:	8b 7f       	andi	r24, 0xFB	; 251
    27a4:	80 83       	st	Z, r24
	LED2_DATA_PORT |= ((1 << LED2_PIN));
}

static void status_led_led2_on(void)
{
	LED2_DATA_PORT &= ~((1 << LED2_PIN));
    27a6:	80 81       	ld	r24, Z
    27a8:	87 7f       	andi	r24, 0xF7	; 247
    27aa:	80 83       	st	Z, r24
				{
					s_led_display_status.led1 = 1;
					s_led_display_status.led1 = 1;
					status_led_led1_on();
					status_led_led2_on();
					SCH_TIM_Start(SCH_TIM_LED,POWERUP_PERIOD);	//restart					
    27ac:	44 ef       	ldi	r20, 0xF4	; 244
    27ae:	51 e0       	ldi	r21, 0x01	; 1
    27b0:	60 e0       	ldi	r22, 0x00	; 0
    27b2:	70 e0       	ldi	r23, 0x00	; 0
    27b4:	80 e0       	ldi	r24, 0x00	; 0
    27b6:	0e 94 f3 25 	call	0x4be6	; 0x4be6 <SCH_TIM_Start>
    27ba:	08 95       	ret
		}
}

static	void	status_led_normal(void)
{
	if (s_led_display_status.led1 == 1)
    27bc:	80 91 8d 0b 	lds	r24, 0x0B8D	; 0x800b8d <s_led_display_status>
    27c0:	80 ff       	sbrs	r24, 0
    27c2:	13 c0       	rjmp	.+38     	; 0x27ea <status_led_update+0xb2>
	{
		if (SCH_TIM_HasCompleted(SCH_TIM_LED))
    27c4:	80 e0       	ldi	r24, 0x00	; 0
    27c6:	0e 94 fe 25 	call	0x4bfc	; 0x4bfc <SCH_TIM_HasCompleted>
    27ca:	88 23       	and	r24, r24
    27cc:	71 f0       	breq	.+28     	; 0x27ea <status_led_update+0xb2>
			{
				s_led_display_status.led1 = 0;
    27ce:	ed e8       	ldi	r30, 0x8D	; 141
    27d0:	fb e0       	ldi	r31, 0x0B	; 11
    27d2:	80 81       	ld	r24, Z
    27d4:	8e 7f       	andi	r24, 0xFE	; 254
    27d6:	80 83       	st	Z, r24
				status_led_led1_off();
    27d8:	0e 94 96 13 	call	0x272c	; 0x272c <status_led_led1_off>
				SCH_TIM_Start(SCH_TIM_LED,POWER_NORMAL_OFF_PERIOD);	//restart
    27dc:	48 eb       	ldi	r20, 0xB8	; 184
    27de:	5b e0       	ldi	r21, 0x0B	; 11
    27e0:	60 e0       	ldi	r22, 0x00	; 0
    27e2:	70 e0       	ldi	r23, 0x00	; 0
    27e4:	80 e0       	ldi	r24, 0x00	; 0
    27e6:	0e 94 f3 25 	call	0x4be6	; 0x4be6 <SCH_TIM_Start>
    27ea:	08 95       	ret

000027ec <status_led_init>:
static void status_led_led2_off(void);
static	void	status_led_powerup(void);


void status_led_init(void)
{
    27ec:	cf 93       	push	r28
    27ee:	df 93       	push	r29
	LED1_DIR_PORT |= (1 << LED1_PIN);
    27f0:	e1 e6       	ldi	r30, 0x61	; 97
    27f2:	f0 e0       	ldi	r31, 0x00	; 0
    27f4:	80 81       	ld	r24, Z
    27f6:	84 60       	ori	r24, 0x04	; 4
    27f8:	80 83       	st	Z, r24
	LED1_DATA_PORT &= ~((1 << LED1_PIN));
    27fa:	c2 e6       	ldi	r28, 0x62	; 98
    27fc:	d0 e0       	ldi	r29, 0x00	; 0
    27fe:	88 81       	ld	r24, Y
    2800:	8b 7f       	andi	r24, 0xFB	; 251
    2802:	88 83       	st	Y, r24
	LED2_DIR_PORT |= (1 << LED2_PIN);
    2804:	80 81       	ld	r24, Z
    2806:	88 60       	ori	r24, 0x08	; 8
    2808:	80 83       	st	Z, r24
	LED2_DATA_PORT &= ~((1 << LED2_PIN));
    280a:	88 81       	ld	r24, Y
    280c:	87 7f       	andi	r24, 0xF7	; 247
    280e:	88 83       	st	Y, r24
	s_led_display_status.led1 = 0;
    2810:	ed e8       	ldi	r30, 0x8D	; 141
    2812:	fb e0       	ldi	r31, 0x0B	; 11
    2814:	80 81       	ld	r24, Z
	s_led_display_status.led2 = 0;
    2816:	8e 7f       	andi	r24, 0xFE	; 254
    2818:	8d 7f       	andi	r24, 0xFD	; 253
    281a:	80 83       	st	Z, r24
	s_led_display_status.s_pIOU_Status = &IOU_data.IOU_State_Data;
    281c:	86 e6       	ldi	r24, 0x66	; 102
    281e:	9d e0       	ldi	r25, 0x0D	; 13
    2820:	92 83       	std	Z+2, r25	; 0x02
    2822:	81 83       	std	Z+1, r24	; 0x01
	status_led_led1_off();
    2824:	0e 94 96 13 	call	0x272c	; 0x272c <status_led_led1_off>
	LED1_DATA_PORT &= ~((1 << LED1_PIN));
}

static void status_led_led2_off(void)
{
	LED2_DATA_PORT |= ((1 << LED2_PIN));
    2828:	88 81       	ld	r24, Y
    282a:	88 60       	ori	r24, 0x08	; 8
    282c:	88 83       	st	Y, r24
	s_led_display_status.led2 = 0;
	s_led_display_status.s_pIOU_Status = &IOU_data.IOU_State_Data;
	status_led_led1_off();
	status_led_led2_off();
	
}
    282e:	df 91       	pop	r29
    2830:	cf 91       	pop	r28
    2832:	08 95       	ret

00002834 <status_led_create_task>:
	}
}

void	status_led_create_task(void)
{
	SCH_TASK_CreateTask(&s_task_context.taskHandle, &s_task_context.taskProperty);
    2834:	65 ea       	ldi	r22, 0xA5	; 165
    2836:	71 e0       	ldi	r23, 0x01	; 1
    2838:	84 ea       	ldi	r24, 0xA4	; 164
    283a:	91 e0       	ldi	r25, 0x01	; 1
    283c:	0e 94 0b 26 	call	0x4c16	; 0x4c16 <SCH_TASK_CreateTask>
    2840:	08 95       	ret

00002842 <main>:
#include "ir_led.h"
#include "TPL5010.h"

int main(void)
{
	SCH_Initialize();
    2842:	0e 94 d3 25 	call	0x4ba6	; 0x4ba6 <SCH_Initialize>
	command_init();
    2846:	0e 94 3e 0f 	call	0x1e7c	; 0x1e7c <command_init>
	watchdog_init();
    284a:	0e 94 fd 17 	call	0x2ffa	; 0x2ffa <watchdog_init>
	watchdog_create_timer();
    284e:	0e 94 00 18 	call	0x3000	; 0x3000 <watchdog_create_timer>
	status_led_init();
    2852:	0e 94 f6 13 	call	0x27ec	; 0x27ec <status_led_init>
	temperature_init();
    2856:	0e 94 0c 15 	call	0x2a18	; 0x2a18 <temperature_init>
	ringled_init();
    285a:	0e 94 65 25 	call	0x4aca	; 0x4aca <ringled_init>
	IR_led_init();
    285e:	0e 94 73 13 	call	0x26e6	; 0x26e6 <IR_led_init>
 	COPC_init();
    2862:	0e 94 5a 0f 	call	0x1eb4	; 0x1eb4 <COPC_init>
//	TPL5010_done_pulse;
	
	SCH_StartSchedular();
    2866:	0e 94 0c 27 	call	0x4e18	; 0x4e18 <SCH_StartSchedular>
	status_led_create_task();
    286a:	0e 94 1a 14 	call	0x2834	; 0x2834 <status_led_create_task>
	command_create_task();
    286e:	0e 94 1e 0f 	call	0x1e3c	; 0x1e3c <command_create_task>
	temperature_create_task();
    2872:	0e 94 66 14 	call	0x28cc	; 0x28cc <temperature_create_task>
	ringled_create_task();
    2876:	0e 94 8f 13 	call	0x271e	; 0x271e <ringled_create_task>
	COPC_create_task();
    287a:	0e 94 72 0f 	call	0x1ee4	; 0x1ee4 <COPC_create_task>
	if (Accel_and_Gyro_init())
    287e:	0e 94 ad 09 	call	0x135a	; 0x135a <Accel_and_Gyro_init>
    2882:	81 11       	cpse	r24, r1
		Accel_and_Gyro_create_task();
    2884:	0e 94 ba 09 	call	0x1374	; 0x1374 <Accel_and_Gyro_create_task>
	if (Pressure_init())
    2888:	0e 94 4f 14 	call	0x289e	; 0x289e <Pressure_init>
    288c:	81 11       	cpse	r24, r1
		Pressure_create_task();
    288e:	0e 94 5c 14 	call	0x28b8	; 0x28b8 <Pressure_create_task>
	while (1)
	{
		SCH_HandleScheduledTask();
    2892:	0e 94 0f 27 	call	0x4e1e	; 0x4e1e <SCH_HandleScheduledTask>
    2896:	fd cf       	rjmp	.-6      	; 0x2892 <main+0x50>

00002898 <pressure_update>:
	}
};

void pressure_update(void)
{
	BMP390_temp_press_update();
    2898:	0e 94 19 23 	call	0x4632	; 0x4632 <BMP390_temp_press_update>
    289c:	08 95       	ret

0000289e <Pressure_init>:
}

bool Pressure_init(void)
{
    289e:	cf 93       	push	r28
	if (!BMP390_init())
    28a0:	0e 94 30 21 	call	0x4260	; 0x4260 <BMP390_init>
    28a4:	c8 2f       	mov	r28, r24
    28a6:	81 11       	cpse	r24, r1
    28a8:	04 c0       	rjmp	.+8      	; 0x28b2 <Pressure_init+0x14>
	{
		usart0_send_string("BMP390 is unavailble \r\n> ");
    28aa:	88 e1       	ldi	r24, 0x18	; 24
    28ac:	9a e0       	ldi	r25, 0x0A	; 10
    28ae:	0e 94 71 1a 	call	0x34e2	; 0x34e2 <usart0_send_string>
		return false;
	}
	return true;
}
    28b2:	8c 2f       	mov	r24, r28
    28b4:	cf 91       	pop	r28
    28b6:	08 95       	ret

000028b8 <Pressure_create_task>:

void Pressure_create_task(void)
{
	SCH_TASK_CreateTask(&s_pressure_task_context.taskHandle, &s_pressure_task_context.taskProperty);
    28b8:	6c ea       	ldi	r22, 0xAC	; 172
    28ba:	71 e0       	ldi	r23, 0x01	; 1
    28bc:	8b ea       	ldi	r24, 0xAB	; 171
    28be:	91 e0       	ldi	r25, 0x01	; 1
    28c0:	0e 94 0b 26 	call	0x4c16	; 0x4c16 <SCH_TASK_CreateTask>
    28c4:	08 95       	ret

000028c6 <get_pressure>:
}

uint16_t get_pressure(void)
{
	return (uint16_t)get_BMP390_pressure();
    28c6:	0e 94 34 23 	call	0x4668	; 0x4668 <get_BMP390_pressure>
}
    28ca:	08 95       	ret

000028cc <temperature_create_task>:
	
}

void	temperature_create_task(void)
{
	SCH_TASK_CreateTask(&s_temperature_task_context .taskHandle, &s_temperature_task_context .taskProperty);
    28cc:	6f ed       	ldi	r22, 0xDF	; 223
    28ce:	71 e0       	ldi	r23, 0x01	; 1
    28d0:	8e ed       	ldi	r24, 0xDE	; 222
    28d2:	91 e0       	ldi	r25, 0x01	; 1
    28d4:	0e 94 0b 26 	call	0x4c16	; 0x4c16 <SCH_TASK_CreateTask>
    28d8:	08 95       	ret

000028da <temperature_set_point>:
}

void	temperature_set_point(uint16_t	setpoint, uint8_t channel)
{
	s_Temperature_CurrentState.channel_temperature_setpoint[channel] = setpoint;
    28da:	e6 2f       	mov	r30, r22
    28dc:	f0 e0       	ldi	r31, 0x00	; 0
    28de:	ee 0f       	add	r30, r30
    28e0:	ff 1f       	adc	r31, r31
    28e2:	e0 54       	subi	r30, 0x40	; 64
    28e4:	fe 4f       	sbci	r31, 0xFE	; 254
    28e6:	91 83       	std	Z+1, r25	; 0x01
    28e8:	80 83       	st	Z, r24
    28ea:	08 95       	ret

000028ec <temperature_get_NTC>:
}

int16_t	temperature_get_NTC(uint8_t	channel)
{
	return s_Temperature_CurrentState.NTC_channel_temperature[channel];
    28ec:	e8 2f       	mov	r30, r24
    28ee:	f0 e0       	ldi	r31, 0x00	; 0
    28f0:	ee 0f       	add	r30, r30
    28f2:	ff 1f       	adc	r31, r31
    28f4:	ee 54       	subi	r30, 0x4E	; 78
    28f6:	fe 4f       	sbci	r31, 0xFE	; 254
}
    28f8:	80 81       	ld	r24, Z
    28fa:	91 81       	ldd	r25, Z+1	; 0x01
    28fc:	08 95       	ret

000028fe <temperature_get_onewire>:

int16_t	temperature_get_onewire(uint8_t	channel)
{
	return s_Temperature_CurrentState.onewire_channel_temperature[channel];
    28fe:	e8 2f       	mov	r30, r24
    2900:	f0 e0       	ldi	r31, 0x00	; 0
    2902:	ee 0f       	add	r30, r30
    2904:	ff 1f       	adc	r31, r31
    2906:	e6 54       	subi	r30, 0x46	; 70
    2908:	fe 4f       	sbci	r31, 0xFE	; 254
}
    290a:	80 81       	ld	r24, Z
    290c:	91 81       	ldd	r25, Z+1	; 0x01
    290e:	08 95       	ret

00002910 <temperature_get_bmp390>:

int16_t	temperature_get_bmp390(void)
{
	return s_Temperature_CurrentState.i2c_sensor_temperature;
}
    2910:	80 91 be 01 	lds	r24, 0x01BE	; 0x8001be <s_Temperature_CurrentState+0xc>
    2914:	90 91 bf 01 	lds	r25, 0x01BF	; 0x8001bf <s_Temperature_CurrentState+0xd>
    2918:	08 95       	ret

0000291a <temperature_enable_TEC>:

void	temperature_enable_TEC(uint8_t	channel)
{
    291a:	cf 93       	push	r28
    291c:	c8 2f       	mov	r28, r24
	TEC_enable(channel);
    291e:	0e 94 97 25 	call	0x4b2e	; 0x4b2e <TEC_enable>
	s_Temperature_CurrentState.TEC_status |= (1 << (2*channel));
    2922:	e2 eb       	ldi	r30, 0xB2	; 178
    2924:	f1 e0       	ldi	r31, 0x01	; 1
    2926:	cc 0f       	add	r28, r28
    2928:	81 e0       	ldi	r24, 0x01	; 1
    292a:	90 e0       	ldi	r25, 0x00	; 0
    292c:	02 c0       	rjmp	.+4      	; 0x2932 <temperature_enable_TEC+0x18>
    292e:	88 0f       	add	r24, r24
    2930:	99 1f       	adc	r25, r25
    2932:	ca 95       	dec	r28
    2934:	e2 f7       	brpl	.-8      	; 0x292e <temperature_enable_TEC+0x14>
    2936:	96 8d       	ldd	r25, Z+30	; 0x1e
    2938:	89 2b       	or	r24, r25
    293a:	86 8f       	std	Z+30, r24	; 0x1e
}
    293c:	cf 91       	pop	r28
    293e:	08 95       	ret

00002940 <temperature_disable_TEC>:

void	temperature_disable_TEC(uint8_t	channel)
{
    2940:	cf 93       	push	r28
    2942:	c8 2f       	mov	r28, r24
	TEC_shutdown(channel);
    2944:	0e 94 b1 25 	call	0x4b62	; 0x4b62 <TEC_shutdown>
	s_Temperature_CurrentState.TEC_status &= ~ (1 << (2*channel));
    2948:	e2 eb       	ldi	r30, 0xB2	; 178
    294a:	f1 e0       	ldi	r31, 0x01	; 1
    294c:	cc 0f       	add	r28, r28
    294e:	81 e0       	ldi	r24, 0x01	; 1
    2950:	90 e0       	ldi	r25, 0x00	; 0
    2952:	02 c0       	rjmp	.+4      	; 0x2958 <temperature_disable_TEC+0x18>
    2954:	88 0f       	add	r24, r24
    2956:	99 1f       	adc	r25, r25
    2958:	ca 95       	dec	r28
    295a:	e2 f7       	brpl	.-8      	; 0x2954 <temperature_disable_TEC+0x14>
    295c:	80 95       	com	r24
    295e:	96 8d       	ldd	r25, Z+30	; 0x1e
    2960:	89 23       	and	r24, r25
    2962:	86 8f       	std	Z+30, r24	; 0x1e
}
    2964:	cf 91       	pop	r28
    2966:	08 95       	ret

00002968 <temperature_disable_auto_control_TEC>:
	temperature_set_TEC_output(channel , s_Temperature_CurrentState.mode[channel>>1],s_Temperature_CurrentState.TEC_output_voltage[channel] );	
}

void	temperature_disable_auto_control_TEC(uint8_t channel)
{
	s_Temperature_CurrentState.TEC_status &=  ~(1 << (2*channel + 1));
    2968:	e2 eb       	ldi	r30, 0xB2	; 178
    296a:	f1 e0       	ldi	r31, 0x01	; 1
    296c:	90 e0       	ldi	r25, 0x00	; 0
    296e:	88 0f       	add	r24, r24
    2970:	99 1f       	adc	r25, r25
    2972:	01 96       	adiw	r24, 0x01	; 1
    2974:	21 e0       	ldi	r18, 0x01	; 1
    2976:	30 e0       	ldi	r19, 0x00	; 0
    2978:	a9 01       	movw	r20, r18
    297a:	02 c0       	rjmp	.+4      	; 0x2980 <temperature_disable_auto_control_TEC+0x18>
    297c:	44 0f       	add	r20, r20
    297e:	55 1f       	adc	r21, r21
    2980:	8a 95       	dec	r24
    2982:	e2 f7       	brpl	.-8      	; 0x297c <temperature_disable_auto_control_TEC+0x14>
    2984:	ca 01       	movw	r24, r20
    2986:	80 95       	com	r24
    2988:	96 8d       	ldd	r25, Z+30	; 0x1e
    298a:	89 23       	and	r24, r25
    298c:	86 8f       	std	Z+30, r24	; 0x1e
    298e:	08 95       	ret

00002990 <temperature_set_TEC_output>:
// set the output of the TEC manually
//@param	channel: 0-3
//@param	HeatCool: 0 HEAT, 1 COOL
//@voltage	Real Voltage multiply with 100
void    temperature_set_TEC_output(uint8_t channel, uint8_t HeatCool, uint16_t	voltage)
{
    2990:	0f 93       	push	r16
    2992:	1f 93       	push	r17
    2994:	cf 93       	push	r28
    2996:	df 93       	push	r29
    2998:	08 2f       	mov	r16, r24
    299a:	16 2f       	mov	r17, r22
	s_Temperature_CurrentState.TEC_output_voltage[channel] = voltage;
    299c:	c8 2f       	mov	r28, r24
    299e:	d0 e0       	ldi	r29, 0x00	; 0
    29a0:	fe 01       	movw	r30, r28
    29a2:	ee 0f       	add	r30, r30
    29a4:	ff 1f       	adc	r31, r31
    29a6:	e8 53       	subi	r30, 0x38	; 56
    29a8:	fe 4f       	sbci	r31, 0xFE	; 254
    29aa:	51 83       	std	Z+1, r21	; 0x01
    29ac:	40 83       	st	Z, r20
	uint32_t	_delta = ((uint32_t)voltage * 4096) / 1150;
    29ae:	ca 01       	movw	r24, r20
    29b0:	a0 e0       	ldi	r26, 0x00	; 0
    29b2:	b0 e0       	ldi	r27, 0x00	; 0
    29b4:	bc 01       	movw	r22, r24
    29b6:	cd 01       	movw	r24, r26
    29b8:	05 2e       	mov	r0, r21
    29ba:	5c e0       	ldi	r21, 0x0C	; 12
    29bc:	66 0f       	add	r22, r22
    29be:	77 1f       	adc	r23, r23
    29c0:	88 1f       	adc	r24, r24
    29c2:	99 1f       	adc	r25, r25
    29c4:	5a 95       	dec	r21
    29c6:	d1 f7       	brne	.-12     	; 0x29bc <temperature_set_TEC_output+0x2c>
    29c8:	50 2d       	mov	r21, r0
    29ca:	2e e7       	ldi	r18, 0x7E	; 126
    29cc:	34 e0       	ldi	r19, 0x04	; 4
    29ce:	40 e0       	ldi	r20, 0x00	; 0
    29d0:	50 e0       	ldi	r21, 0x00	; 0
    29d2:	0e 94 34 2f 	call	0x5e68	; 0x5e68 <__udivmodsi4>
	uint32_t	_adcVal ;
	if (HeatCool == HEATING)		//want HEAT
    29d6:	11 30       	cpi	r17, 0x01	; 1
    29d8:	69 f4       	brne	.+26     	; 0x29f4 <temperature_set_TEC_output+0x64>
	{
		_adcVal = DAC_at_2_5 - _delta;
    29da:	80 e0       	ldi	r24, 0x00	; 0
    29dc:	98 e0       	ldi	r25, 0x08	; 8
    29de:	a0 e0       	ldi	r26, 0x00	; 0
    29e0:	b0 e0       	ldi	r27, 0x00	; 0
    29e2:	82 1b       	sub	r24, r18
    29e4:	93 0b       	sbc	r25, r19
    29e6:	a4 0b       	sbc	r26, r20
    29e8:	b5 0b       	sbc	r27, r21
		s_Temperature_CurrentState.mode[channel] = HEATING;
    29ea:	ce 54       	subi	r28, 0x4E	; 78
    29ec:	de 4f       	sbci	r29, 0xFE	; 254
    29ee:	21 e0       	ldi	r18, 0x01	; 1
    29f0:	28 a7       	std	Y+40, r18	; 0x28
    29f2:	08 c0       	rjmp	.+16     	; 0x2a04 <temperature_set_TEC_output+0x74>
	}
	else
	{
		_adcVal = DAC_at_2_5 + _delta;
    29f4:	da 01       	movw	r26, r20
    29f6:	c9 01       	movw	r24, r18
    29f8:	98 5f       	subi	r25, 0xF8	; 248
    29fa:	af 4f       	sbci	r26, 0xFF	; 255
    29fc:	bf 4f       	sbci	r27, 0xFF	; 255
		s_Temperature_CurrentState.mode[channel] = COOLING;
    29fe:	ce 54       	subi	r28, 0x4E	; 78
    2a00:	de 4f       	sbci	r29, 0xFE	; 254
    2a02:	18 a6       	std	Y+40, r1	; 0x28
	}

	MCP4291_set_output((uint16_t)_adcVal, 0, 0, 1, channel);
    2a04:	21 e0       	ldi	r18, 0x01	; 1
    2a06:	40 e0       	ldi	r20, 0x00	; 0
    2a08:	60 e0       	ldi	r22, 0x00	; 0
    2a0a:	0e 94 83 24 	call	0x4906	; 0x4906 <MCP4291_set_output>
}
    2a0e:	df 91       	pop	r29
    2a10:	cf 91       	pop	r28
    2a12:	1f 91       	pop	r17
    2a14:	0f 91       	pop	r16
    2a16:	08 95       	ret

00002a18 <temperature_init>:
};

static	uint16_t	sTemperatureTimeCount[2] = {0,0};
static	uint8_t		sPrintLog = 0;
void	temperature_init(void)
{
    2a18:	cf 93       	push	r28
	uint8_t	idx;
	init_adc();
    2a1a:	0e 94 0b 18 	call	0x3016	; 0x3016 <init_adc>
	TEC_init();
    2a1e:	0e 94 8e 25 	call	0x4b1c	; 0x4b1c <TEC_init>
	MCP4921_init();
    2a22:	0e 94 57 24 	call	0x48ae	; 0x48ae <MCP4921_init>
	SPI_Init();
    2a26:	0e 94 7c 18 	call	0x30f8	; 0x30f8 <SPI_Init>
	for(idx =0; idx < 4; idx ++)	
    2a2a:	c0 e0       	ldi	r28, 0x00	; 0
	{
		TEC_shutdown(idx);
    2a2c:	8c 2f       	mov	r24, r28
    2a2e:	0e 94 b1 25 	call	0x4b62	; 0x4b62 <TEC_shutdown>
		temperature_set_TEC_output(idx, HEATING, TEC_OUT_DEFAULT);
    2a32:	42 e3       	ldi	r20, 0x32	; 50
    2a34:	50 e0       	ldi	r21, 0x00	; 0
    2a36:	61 e0       	ldi	r22, 0x01	; 1
    2a38:	8c 2f       	mov	r24, r28
    2a3a:	0e 94 c8 14 	call	0x2990	; 0x2990 <temperature_set_TEC_output>
	uint8_t	idx;
	init_adc();
	TEC_init();
	MCP4921_init();
	SPI_Init();
	for(idx =0; idx < 4; idx ++)	
    2a3e:	cf 5f       	subi	r28, 0xFF	; 255
    2a40:	c4 30       	cpi	r28, 0x04	; 4
    2a42:	a1 f7       	brne	.-24     	; 0x2a2c <temperature_init+0x14>
	{
		TEC_shutdown(idx);
		temperature_set_TEC_output(idx, HEATING, TEC_OUT_DEFAULT);
	}
}
    2a44:	cf 91       	pop	r28
    2a46:	08 95       	ret

00002a48 <temperature_TEC_hysteris_control_heating>:

}

//if double output is enabled, turn on both output 0 and 1 if temperature is measuring based on NTC channel 0
void	temperature_TEC_hysteris_control_heating(uint16_t	NTC_temperature, uint8_t NTC_channel, uint8_t	double_output)
{
    2a48:	ef 92       	push	r14
    2a4a:	ff 92       	push	r15
    2a4c:	0f 93       	push	r16
    2a4e:	1f 93       	push	r17
    2a50:	cf 93       	push	r28
    2a52:	df 93       	push	r29
    2a54:	f6 2e       	mov	r15, r22
    2a56:	e4 2e       	mov	r14, r20
		//		if NTC channel and automatic control
//		UARTprintf("TEC  %d is controlling heating\r\n", NTC_channel);
//		UARTprintf("NTCchannel is %d\r\n",NTC_channel);
			if (!(s_Temperature_CurrentState.TEC_status & (1<<(NTC_channel *2 * 2))))		//TEC is disabling
    2a58:	c6 2f       	mov	r28, r22
    2a5a:	d0 e0       	ldi	r29, 0x00	; 0
    2a5c:	8e 01       	movw	r16, r28
    2a5e:	00 0f       	add	r16, r16
    2a60:	11 1f       	adc	r17, r17
    2a62:	00 0f       	add	r16, r16
    2a64:	11 1f       	adc	r17, r17
    2a66:	20 91 d0 01 	lds	r18, 0x01D0	; 0x8001d0 <s_Temperature_CurrentState+0x1e>
    2a6a:	30 e0       	ldi	r19, 0x00	; 0
    2a6c:	00 2e       	mov	r0, r16
    2a6e:	02 c0       	rjmp	.+4      	; 0x2a74 <temperature_TEC_hysteris_control_heating+0x2c>
    2a70:	35 95       	asr	r19
    2a72:	27 95       	ror	r18
    2a74:	0a 94       	dec	r0
    2a76:	e2 f7       	brpl	.-8      	; 0x2a70 <temperature_TEC_hysteris_control_heating+0x28>
    2a78:	20 fd       	sbrc	r18, 0
    2a7a:	8b c0       	rjmp	.+278    	; 0x2b92 <temperature_TEC_hysteris_control_heating+0x14a>
			{
//				UARTprintf("TEC %d is disabling\r\n", NTC_channel);
				if (NTC_temperature < s_Temperature_CurrentState.channel_temperature_setpoint[NTC_channel] - TEMPERATURE_HYSTERIS)
    2a7c:	fe 01       	movw	r30, r28
    2a7e:	ee 0f       	add	r30, r30
    2a80:	ff 1f       	adc	r31, r31
    2a82:	e0 54       	subi	r30, 0x40	; 64
    2a84:	fe 4f       	sbci	r31, 0xFE	; 254
    2a86:	40 81       	ld	r20, Z
    2a88:	51 81       	ldd	r21, Z+1	; 0x01
    2a8a:	9a 01       	movw	r18, r20
    2a8c:	22 50       	subi	r18, 0x02	; 2
    2a8e:	31 09       	sbc	r19, r1
    2a90:	82 17       	cp	r24, r18
    2a92:	93 07       	cpc	r25, r19
    2a94:	38 f5       	brcc	.+78     	; 0x2ae4 <temperature_TEC_hysteris_control_heating+0x9c>
				{
					TEC_enable(NTC_channel*2);
    2a96:	ff 0c       	add	r15, r15
    2a98:	8f 2d       	mov	r24, r15
    2a9a:	0e 94 97 25 	call	0x4b2e	; 0x4b2e <TEC_enable>
					s_Temperature_CurrentState.TEC_status |= 1 << (NTC_channel *2* 2);
    2a9e:	e2 eb       	ldi	r30, 0xB2	; 178
    2aa0:	f1 e0       	ldi	r31, 0x01	; 1
    2aa2:	81 e0       	ldi	r24, 0x01	; 1
    2aa4:	90 e0       	ldi	r25, 0x00	; 0
    2aa6:	00 2e       	mov	r0, r16
    2aa8:	02 c0       	rjmp	.+4      	; 0x2aae <temperature_TEC_hysteris_control_heating+0x66>
    2aaa:	88 0f       	add	r24, r24
    2aac:	99 1f       	adc	r25, r25
    2aae:	0a 94       	dec	r0
    2ab0:	e2 f7       	brpl	.-8      	; 0x2aaa <temperature_TEC_hysteris_control_heating+0x62>
    2ab2:	96 8d       	ldd	r25, Z+30	; 0x1e
    2ab4:	89 2b       	or	r24, r25
    2ab6:	86 8f       	std	Z+30, r24	; 0x1e
					if (double_output)
    2ab8:	ee 20       	and	r14, r14
    2aba:	09 f4       	brne	.+2      	; 0x2abe <temperature_TEC_hysteris_control_heating+0x76>
    2abc:	9c c0       	rjmp	.+312    	; 0x2bf6 <temperature_TEC_hysteris_control_heating+0x1ae>
					{
						TEC_enable(NTC_channel*2 + 1);
    2abe:	81 e0       	ldi	r24, 0x01	; 1
    2ac0:	8f 0d       	add	r24, r15
    2ac2:	0e 94 97 25 	call	0x4b2e	; 0x4b2e <TEC_enable>
						s_Temperature_CurrentState.TEC_status |= 1 << ((NTC_channel*2+1)*2);
    2ac6:	e2 eb       	ldi	r30, 0xB2	; 178
    2ac8:	f1 e0       	ldi	r31, 0x01	; 1
    2aca:	0e 5f       	subi	r16, 0xFE	; 254
    2acc:	1f 4f       	sbci	r17, 0xFF	; 255
    2ace:	81 e0       	ldi	r24, 0x01	; 1
    2ad0:	90 e0       	ldi	r25, 0x00	; 0
    2ad2:	02 c0       	rjmp	.+4      	; 0x2ad8 <temperature_TEC_hysteris_control_heating+0x90>
    2ad4:	88 0f       	add	r24, r24
    2ad6:	99 1f       	adc	r25, r25
    2ad8:	0a 95       	dec	r16
    2ada:	e2 f7       	brpl	.-8      	; 0x2ad4 <temperature_TEC_hysteris_control_heating+0x8c>
    2adc:	96 8d       	ldd	r25, Z+30	; 0x1e
    2ade:	89 2b       	or	r24, r25
    2ae0:	86 8f       	std	Z+30, r24	; 0x1e
    2ae2:	89 c0       	rjmp	.+274    	; 0x2bf6 <temperature_TEC_hysteris_control_heating+0x1ae>
					}
					
				}
				else  // Temperature is higher than setpoint  but TEC is disabled
				if (NTC_temperature >  (s_Temperature_CurrentState.channel_temperature_setpoint[NTC_channel] - TEMPERATURE_HYSTERIS)) 
    2ae4:	28 17       	cp	r18, r24
    2ae6:	39 07       	cpc	r19, r25
    2ae8:	08 f0       	brcs	.+2      	; 0x2aec <temperature_TEC_hysteris_control_heating+0xa4>
    2aea:	85 c0       	rjmp	.+266    	; 0x2bf6 <temperature_TEC_hysteris_control_heating+0x1ae>
				{
//					check if temperature is still increasing, add to the time count
					if ((NTC_temperature >  s_Temperature_CurrentState.NTC_channel_temperature[NTC_channel])  ||(NTC_temperature >  (s_Temperature_CurrentState.channel_temperature_setpoint[NTC_channel] + TEMPERATURE_MAX_ERROR)))
    2aec:	fe 01       	movw	r30, r28
    2aee:	ee 0f       	add	r30, r30
    2af0:	ff 1f       	adc	r31, r31
    2af2:	ee 54       	subi	r30, 0x4E	; 78
    2af4:	fe 4f       	sbci	r31, 0xFE	; 254
    2af6:	20 81       	ld	r18, Z
    2af8:	31 81       	ldd	r19, Z+1	; 0x01
    2afa:	28 17       	cp	r18, r24
    2afc:	39 07       	cpc	r19, r25
    2afe:	30 f0       	brcs	.+12     	; 0x2b0c <temperature_TEC_hysteris_control_heating+0xc4>
    2b00:	42 5e       	subi	r20, 0xE2	; 226
    2b02:	5f 4f       	sbci	r21, 0xFF	; 255
    2b04:	48 17       	cp	r20, r24
    2b06:	59 07       	cpc	r21, r25
    2b08:	08 f0       	brcs	.+2      	; 0x2b0c <temperature_TEC_hysteris_control_heating+0xc4>
    2b0a:	75 c0       	rjmp	.+234    	; 0x2bf6 <temperature_TEC_hysteris_control_heating+0x1ae>
					{
						sTemperatureTimeCount[NTC_channel]++;
    2b0c:	fe 01       	movw	r30, r28
    2b0e:	ee 0f       	add	r30, r30
    2b10:	ff 1f       	adc	r31, r31
    2b12:	ef 56       	subi	r30, 0x6F	; 111
    2b14:	f4 4f       	sbci	r31, 0xF4	; 244
    2b16:	80 81       	ld	r24, Z
    2b18:	91 81       	ldd	r25, Z+1	; 0x01
    2b1a:	01 96       	adiw	r24, 0x01	; 1
    2b1c:	91 83       	std	Z+1, r25	; 0x01
    2b1e:	80 83       	st	Z, r24
//						if the temperature keep increasing without the TEC turned on, switch to COOL mode
						if (sTemperatureTimeCount[NTC_channel] > INCREASE_DECREASE_TIMES)
    2b20:	85 3f       	cpi	r24, 0xF5	; 245
    2b22:	91 40       	sbci	r25, 0x01	; 1
    2b24:	08 f4       	brcc	.+2      	; 0x2b28 <temperature_TEC_hysteris_control_heating+0xe0>
    2b26:	67 c0       	rjmp	.+206    	; 0x2bf6 <temperature_TEC_hysteris_control_heating+0x1ae>
						{
							s_Temperature_CurrentState.mode[NTC_channel] = COOLING;
    2b28:	fe 01       	movw	r30, r28
    2b2a:	ee 54       	subi	r30, 0x4E	; 78
    2b2c:	fe 4f       	sbci	r31, 0xFE	; 254
    2b2e:	10 a6       	std	Z+40, r1	; 0x28
							sTemperatureTimeCount[NTC_channel] = 0;
    2b30:	fe 01       	movw	r30, r28
    2b32:	ee 0f       	add	r30, r30
    2b34:	ff 1f       	adc	r31, r31
    2b36:	ef 56       	subi	r30, 0x6F	; 111
    2b38:	f4 4f       	sbci	r31, 0xF4	; 244
    2b3a:	11 82       	std	Z+1, r1	; 0x01
    2b3c:	10 82       	st	Z, r1
							if ((sPrintLog)) UARTprintf("LOG:NTC channel %d Switch to COOLING mode \r\n", NTC_channel);
    2b3e:	80 91 90 0b 	lds	r24, 0x0B90	; 0x800b90 <sPrintLog>
    2b42:	88 23       	and	r24, r24
    2b44:	61 f0       	breq	.+24     	; 0x2b5e <temperature_TEC_hysteris_control_heating+0x116>
    2b46:	1f 92       	push	r1
    2b48:	ff 92       	push	r15
    2b4a:	82 e3       	ldi	r24, 0x32	; 50
    2b4c:	9a e0       	ldi	r25, 0x0A	; 10
    2b4e:	9f 93       	push	r25
    2b50:	8f 93       	push	r24
    2b52:	0e 94 53 1f 	call	0x3ea6	; 0x3ea6 <UARTprintf>
    2b56:	0f 90       	pop	r0
    2b58:	0f 90       	pop	r0
    2b5a:	0f 90       	pop	r0
    2b5c:	0f 90       	pop	r0
							temperature_set_TEC_output(NTC_channel * 2 , COOLING,s_Temperature_CurrentState.TEC_output_voltage[NTC_channel * 2] );
    2b5e:	cc 0f       	add	r28, r28
    2b60:	dd 1f       	adc	r29, r29
    2b62:	ff 0c       	add	r15, r15
    2b64:	fe 01       	movw	r30, r28
    2b66:	ee 0f       	add	r30, r30
    2b68:	ff 1f       	adc	r31, r31
    2b6a:	e8 53       	subi	r30, 0x38	; 56
    2b6c:	fe 4f       	sbci	r31, 0xFE	; 254
    2b6e:	40 81       	ld	r20, Z
    2b70:	51 81       	ldd	r21, Z+1	; 0x01
    2b72:	60 e0       	ldi	r22, 0x00	; 0
    2b74:	8f 2d       	mov	r24, r15
    2b76:	0e 94 c8 14 	call	0x2990	; 0x2990 <temperature_set_TEC_output>
							temperature_set_TEC_output(NTC_channel * 2 + 1, COOLING,s_Temperature_CurrentState.TEC_output_voltage[NTC_channel * 2 +1] );
    2b7a:	cc 0f       	add	r28, r28
    2b7c:	dd 1f       	adc	r29, r29
    2b7e:	c6 53       	subi	r28, 0x36	; 54
    2b80:	de 4f       	sbci	r29, 0xFE	; 254
    2b82:	48 81       	ld	r20, Y
    2b84:	59 81       	ldd	r21, Y+1	; 0x01
    2b86:	60 e0       	ldi	r22, 0x00	; 0
    2b88:	81 e0       	ldi	r24, 0x01	; 1
    2b8a:	8f 0d       	add	r24, r15
    2b8c:	0e 94 c8 14 	call	0x2990	; 0x2990 <temperature_set_TEC_output>
    2b90:	32 c0       	rjmp	.+100    	; 0x2bf6 <temperature_TEC_hysteris_control_heating+0x1ae>
			}
				
				else  //TEC is enabling
				{
//					UARTprintf("TEC %d is enabling\r\n", NTC_channel);
				if (NTC_temperature > s_Temperature_CurrentState.channel_temperature_setpoint[NTC_channel] + TEMPERATURE_HYSTERIS)
    2b92:	cc 0f       	add	r28, r28
    2b94:	dd 1f       	adc	r29, r29
    2b96:	c0 54       	subi	r28, 0x40	; 64
    2b98:	de 4f       	sbci	r29, 0xFE	; 254
    2b9a:	28 81       	ld	r18, Y
    2b9c:	39 81       	ldd	r19, Y+1	; 0x01
    2b9e:	2e 5f       	subi	r18, 0xFE	; 254
    2ba0:	3f 4f       	sbci	r19, 0xFF	; 255
    2ba2:	28 17       	cp	r18, r24
    2ba4:	39 07       	cpc	r19, r25
    2ba6:	38 f5       	brcc	.+78     	; 0x2bf6 <temperature_TEC_hysteris_control_heating+0x1ae>
				{
//					UARTprintf("TEC %d shutdown\r\n", NTC_channel);
					TEC_shutdown(NTC_channel*2);
    2ba8:	ff 0c       	add	r15, r15
    2baa:	8f 2d       	mov	r24, r15
    2bac:	0e 94 b1 25 	call	0x4b62	; 0x4b62 <TEC_shutdown>
					s_Temperature_CurrentState.TEC_status &= ~(1 << (NTC_channel * 2 *2));
    2bb0:	e2 eb       	ldi	r30, 0xB2	; 178
    2bb2:	f1 e0       	ldi	r31, 0x01	; 1
    2bb4:	81 e0       	ldi	r24, 0x01	; 1
    2bb6:	90 e0       	ldi	r25, 0x00	; 0
    2bb8:	00 2e       	mov	r0, r16
    2bba:	02 c0       	rjmp	.+4      	; 0x2bc0 <temperature_TEC_hysteris_control_heating+0x178>
    2bbc:	88 0f       	add	r24, r24
    2bbe:	99 1f       	adc	r25, r25
    2bc0:	0a 94       	dec	r0
    2bc2:	e2 f7       	brpl	.-8      	; 0x2bbc <temperature_TEC_hysteris_control_heating+0x174>
    2bc4:	80 95       	com	r24
    2bc6:	96 8d       	ldd	r25, Z+30	; 0x1e
    2bc8:	89 23       	and	r24, r25
    2bca:	86 8f       	std	Z+30, r24	; 0x1e
					if (double_output)
    2bcc:	ee 20       	and	r14, r14
    2bce:	99 f0       	breq	.+38     	; 0x2bf6 <temperature_TEC_hysteris_control_heating+0x1ae>
					{
						TEC_shutdown(NTC_channel*2 + 1);
    2bd0:	81 e0       	ldi	r24, 0x01	; 1
    2bd2:	8f 0d       	add	r24, r15
    2bd4:	0e 94 b1 25 	call	0x4b62	; 0x4b62 <TEC_shutdown>
						s_Temperature_CurrentState.TEC_status &= ~(1 << ((NTC_channel * 2 + 1) *2));
    2bd8:	e2 eb       	ldi	r30, 0xB2	; 178
    2bda:	f1 e0       	ldi	r31, 0x01	; 1
    2bdc:	0e 5f       	subi	r16, 0xFE	; 254
    2bde:	1f 4f       	sbci	r17, 0xFF	; 255
    2be0:	81 e0       	ldi	r24, 0x01	; 1
    2be2:	90 e0       	ldi	r25, 0x00	; 0
    2be4:	02 c0       	rjmp	.+4      	; 0x2bea <temperature_TEC_hysteris_control_heating+0x1a2>
    2be6:	88 0f       	add	r24, r24
    2be8:	99 1f       	adc	r25, r25
    2bea:	0a 95       	dec	r16
    2bec:	e2 f7       	brpl	.-8      	; 0x2be6 <temperature_TEC_hysteris_control_heating+0x19e>
    2bee:	80 95       	com	r24
    2bf0:	96 8d       	ldd	r25, Z+30	; 0x1e
    2bf2:	89 23       	and	r24, r25
    2bf4:	86 8f       	std	Z+30, r24	; 0x1e
					
				}										
				}
			
		
}
    2bf6:	df 91       	pop	r29
    2bf8:	cf 91       	pop	r28
    2bfa:	1f 91       	pop	r17
    2bfc:	0f 91       	pop	r16
    2bfe:	ff 90       	pop	r15
    2c00:	ef 90       	pop	r14
    2c02:	08 95       	ret

00002c04 <temperature_TEC_hysteris_control_cooling>:

//if double output is enabled, turn on both output 0 and 1 if temperature is measuring based on NTC channel 0
//if double output is enabled, turn on both output 0 and 1 if temperature is measuring based on NTC channel 0
void	temperature_TEC_hysteris_control_cooling(uint16_t	NTC_temperature, uint8_t NTC_channel, uint8_t	double_output)
{
    2c04:	ef 92       	push	r14
    2c06:	ff 92       	push	r15
    2c08:	0f 93       	push	r16
    2c0a:	1f 93       	push	r17
    2c0c:	cf 93       	push	r28
    2c0e:	df 93       	push	r29
    2c10:	f6 2e       	mov	r15, r22
    2c12:	e4 2e       	mov	r14, r20
	//		if NTC channel and automatic control
//	UARTprintf("TEC %d is controlling cooling\r\n", NTC_channel);
	if (!(s_Temperature_CurrentState.TEC_status & (1<<(NTC_channel *2*2))))		//TEC is disabling
    2c14:	c6 2f       	mov	r28, r22
    2c16:	d0 e0       	ldi	r29, 0x00	; 0
    2c18:	8e 01       	movw	r16, r28
    2c1a:	00 0f       	add	r16, r16
    2c1c:	11 1f       	adc	r17, r17
    2c1e:	00 0f       	add	r16, r16
    2c20:	11 1f       	adc	r17, r17
    2c22:	20 91 d0 01 	lds	r18, 0x01D0	; 0x8001d0 <s_Temperature_CurrentState+0x1e>
    2c26:	30 e0       	ldi	r19, 0x00	; 0
    2c28:	00 2e       	mov	r0, r16
    2c2a:	02 c0       	rjmp	.+4      	; 0x2c30 <temperature_TEC_hysteris_control_cooling+0x2c>
    2c2c:	35 95       	asr	r19
    2c2e:	27 95       	ror	r18
    2c30:	0a 94       	dec	r0
    2c32:	e2 f7       	brpl	.-8      	; 0x2c2c <temperature_TEC_hysteris_control_cooling+0x28>
    2c34:	20 fd       	sbrc	r18, 0
    2c36:	8f c0       	rjmp	.+286    	; 0x2d56 <temperature_TEC_hysteris_control_cooling+0x152>
	{
//		UARTprintf("TEC is disabling\r\n");
		if (NTC_temperature > s_Temperature_CurrentState.channel_temperature_setpoint[NTC_channel] + TEMPERATURE_HYSTERIS)
    2c38:	fe 01       	movw	r30, r28
    2c3a:	ee 0f       	add	r30, r30
    2c3c:	ff 1f       	adc	r31, r31
    2c3e:	e0 54       	subi	r30, 0x40	; 64
    2c40:	fe 4f       	sbci	r31, 0xFE	; 254
    2c42:	20 81       	ld	r18, Z
    2c44:	31 81       	ldd	r19, Z+1	; 0x01
    2c46:	a9 01       	movw	r20, r18
    2c48:	4e 5f       	subi	r20, 0xFE	; 254
    2c4a:	5f 4f       	sbci	r21, 0xFF	; 255
    2c4c:	48 17       	cp	r20, r24
    2c4e:	59 07       	cpc	r21, r25
    2c50:	38 f5       	brcc	.+78     	; 0x2ca0 <temperature_TEC_hysteris_control_cooling+0x9c>
		{
			TEC_enable(NTC_channel*2);
    2c52:	ff 0c       	add	r15, r15
    2c54:	8f 2d       	mov	r24, r15
    2c56:	0e 94 97 25 	call	0x4b2e	; 0x4b2e <TEC_enable>
			s_Temperature_CurrentState.TEC_status |= 1 << (NTC_channel * 2 *2);
    2c5a:	e2 eb       	ldi	r30, 0xB2	; 178
    2c5c:	f1 e0       	ldi	r31, 0x01	; 1
    2c5e:	81 e0       	ldi	r24, 0x01	; 1
    2c60:	90 e0       	ldi	r25, 0x00	; 0
    2c62:	00 2e       	mov	r0, r16
    2c64:	02 c0       	rjmp	.+4      	; 0x2c6a <temperature_TEC_hysteris_control_cooling+0x66>
    2c66:	88 0f       	add	r24, r24
    2c68:	99 1f       	adc	r25, r25
    2c6a:	0a 94       	dec	r0
    2c6c:	e2 f7       	brpl	.-8      	; 0x2c66 <temperature_TEC_hysteris_control_cooling+0x62>
    2c6e:	96 8d       	ldd	r25, Z+30	; 0x1e
    2c70:	89 2b       	or	r24, r25
    2c72:	86 8f       	std	Z+30, r24	; 0x1e
			if (double_output)
    2c74:	ee 20       	and	r14, r14
    2c76:	09 f4       	brne	.+2      	; 0x2c7a <temperature_TEC_hysteris_control_cooling+0x76>
    2c78:	a0 c0       	rjmp	.+320    	; 0x2dba <temperature_TEC_hysteris_control_cooling+0x1b6>
			{
				TEC_enable(NTC_channel*2 + 1);
    2c7a:	81 e0       	ldi	r24, 0x01	; 1
    2c7c:	8f 0d       	add	r24, r15
    2c7e:	0e 94 97 25 	call	0x4b2e	; 0x4b2e <TEC_enable>
				s_Temperature_CurrentState.TEC_status |= 1 << ((NTC_channel*2+1)*2);
    2c82:	e2 eb       	ldi	r30, 0xB2	; 178
    2c84:	f1 e0       	ldi	r31, 0x01	; 1
    2c86:	0e 5f       	subi	r16, 0xFE	; 254
    2c88:	1f 4f       	sbci	r17, 0xFF	; 255
    2c8a:	81 e0       	ldi	r24, 0x01	; 1
    2c8c:	90 e0       	ldi	r25, 0x00	; 0
    2c8e:	02 c0       	rjmp	.+4      	; 0x2c94 <temperature_TEC_hysteris_control_cooling+0x90>
    2c90:	88 0f       	add	r24, r24
    2c92:	99 1f       	adc	r25, r25
    2c94:	0a 95       	dec	r16
    2c96:	e2 f7       	brpl	.-8      	; 0x2c90 <temperature_TEC_hysteris_control_cooling+0x8c>
    2c98:	96 8d       	ldd	r25, Z+30	; 0x1e
    2c9a:	89 2b       	or	r24, r25
    2c9c:	86 8f       	std	Z+30, r24	; 0x1e
    2c9e:	8d c0       	rjmp	.+282    	; 0x2dba <temperature_TEC_hysteris_control_cooling+0x1b6>
			}
			
		}
		else  // Temperature is lower than setpoint  but TEC is disabled
		if (NTC_temperature <  (s_Temperature_CurrentState.channel_temperature_setpoint[NTC_channel] - TEMPERATURE_HYSTERIS))
    2ca0:	a9 01       	movw	r20, r18
    2ca2:	42 50       	subi	r20, 0x02	; 2
    2ca4:	51 09       	sbc	r21, r1
    2ca6:	84 17       	cp	r24, r20
    2ca8:	95 07       	cpc	r25, r21
    2caa:	08 f0       	brcs	.+2      	; 0x2cae <temperature_TEC_hysteris_control_cooling+0xaa>
    2cac:	86 c0       	rjmp	.+268    	; 0x2dba <temperature_TEC_hysteris_control_cooling+0x1b6>
		{
			//					check if temperature is still increasing, add to the time count
			if ((NTC_temperature <  s_Temperature_CurrentState.NTC_channel_temperature[NTC_channel])  ||(NTC_temperature <  (s_Temperature_CurrentState.channel_temperature_setpoint[NTC_channel] - TEMPERATURE_MAX_ERROR)))
    2cae:	fe 01       	movw	r30, r28
    2cb0:	ee 0f       	add	r30, r30
    2cb2:	ff 1f       	adc	r31, r31
    2cb4:	ee 54       	subi	r30, 0x4E	; 78
    2cb6:	fe 4f       	sbci	r31, 0xFE	; 254
    2cb8:	40 81       	ld	r20, Z
    2cba:	51 81       	ldd	r21, Z+1	; 0x01
    2cbc:	84 17       	cp	r24, r20
    2cbe:	95 07       	cpc	r25, r21
    2cc0:	30 f0       	brcs	.+12     	; 0x2cce <temperature_TEC_hysteris_control_cooling+0xca>
    2cc2:	2e 51       	subi	r18, 0x1E	; 30
    2cc4:	31 09       	sbc	r19, r1
    2cc6:	82 17       	cp	r24, r18
    2cc8:	93 07       	cpc	r25, r19
    2cca:	08 f0       	brcs	.+2      	; 0x2cce <temperature_TEC_hysteris_control_cooling+0xca>
    2ccc:	76 c0       	rjmp	.+236    	; 0x2dba <temperature_TEC_hysteris_control_cooling+0x1b6>
			{
				sTemperatureTimeCount[NTC_channel]++;
    2cce:	fe 01       	movw	r30, r28
    2cd0:	ee 0f       	add	r30, r30
    2cd2:	ff 1f       	adc	r31, r31
    2cd4:	ef 56       	subi	r30, 0x6F	; 111
    2cd6:	f4 4f       	sbci	r31, 0xF4	; 244
    2cd8:	80 81       	ld	r24, Z
    2cda:	91 81       	ldd	r25, Z+1	; 0x01
    2cdc:	01 96       	adiw	r24, 0x01	; 1
    2cde:	91 83       	std	Z+1, r25	; 0x01
    2ce0:	80 83       	st	Z, r24
				//						if the temperature keep increasing without the TEC turned on, switch to COOL mode
				if (sTemperatureTimeCount[NTC_channel] > INCREASE_DECREASE_TIMES)
    2ce2:	85 3f       	cpi	r24, 0xF5	; 245
    2ce4:	91 40       	sbci	r25, 0x01	; 1
    2ce6:	08 f4       	brcc	.+2      	; 0x2cea <temperature_TEC_hysteris_control_cooling+0xe6>
    2ce8:	68 c0       	rjmp	.+208    	; 0x2dba <temperature_TEC_hysteris_control_cooling+0x1b6>
				{
					s_Temperature_CurrentState.mode[NTC_channel] = HEATING;
    2cea:	81 e0       	ldi	r24, 0x01	; 1
    2cec:	fe 01       	movw	r30, r28
    2cee:	ee 54       	subi	r30, 0x4E	; 78
    2cf0:	fe 4f       	sbci	r31, 0xFE	; 254
    2cf2:	80 a7       	std	Z+40, r24	; 0x28
					sTemperatureTimeCount[NTC_channel] = 0;
    2cf4:	fe 01       	movw	r30, r28
    2cf6:	ee 0f       	add	r30, r30
    2cf8:	ff 1f       	adc	r31, r31
    2cfa:	ef 56       	subi	r30, 0x6F	; 111
    2cfc:	f4 4f       	sbci	r31, 0xF4	; 244
    2cfe:	11 82       	std	Z+1, r1	; 0x01
    2d00:	10 82       	st	Z, r1
					if ((sPrintLog)) UARTprintf("LOG: NTC channel %d Switch to HEATING mode\r\n",NTC_channel);
    2d02:	80 91 90 0b 	lds	r24, 0x0B90	; 0x800b90 <sPrintLog>
    2d06:	88 23       	and	r24, r24
    2d08:	61 f0       	breq	.+24     	; 0x2d22 <temperature_TEC_hysteris_control_cooling+0x11e>
    2d0a:	1f 92       	push	r1
    2d0c:	ff 92       	push	r15
    2d0e:	8f e5       	ldi	r24, 0x5F	; 95
    2d10:	9a e0       	ldi	r25, 0x0A	; 10
    2d12:	9f 93       	push	r25
    2d14:	8f 93       	push	r24
    2d16:	0e 94 53 1f 	call	0x3ea6	; 0x3ea6 <UARTprintf>
    2d1a:	0f 90       	pop	r0
    2d1c:	0f 90       	pop	r0
    2d1e:	0f 90       	pop	r0
    2d20:	0f 90       	pop	r0
					temperature_set_TEC_output(NTC_channel * 2 , HEATING,s_Temperature_CurrentState.TEC_output_voltage[NTC_channel * 2] );
    2d22:	cc 0f       	add	r28, r28
    2d24:	dd 1f       	adc	r29, r29
    2d26:	ff 0c       	add	r15, r15
    2d28:	fe 01       	movw	r30, r28
    2d2a:	ee 0f       	add	r30, r30
    2d2c:	ff 1f       	adc	r31, r31
    2d2e:	e8 53       	subi	r30, 0x38	; 56
    2d30:	fe 4f       	sbci	r31, 0xFE	; 254
    2d32:	40 81       	ld	r20, Z
    2d34:	51 81       	ldd	r21, Z+1	; 0x01
    2d36:	61 e0       	ldi	r22, 0x01	; 1
    2d38:	8f 2d       	mov	r24, r15
    2d3a:	0e 94 c8 14 	call	0x2990	; 0x2990 <temperature_set_TEC_output>
					temperature_set_TEC_output(NTC_channel * 2 + 1, HEATING,s_Temperature_CurrentState.TEC_output_voltage[NTC_channel * 2 +1] );
    2d3e:	cc 0f       	add	r28, r28
    2d40:	dd 1f       	adc	r29, r29
    2d42:	c6 53       	subi	r28, 0x36	; 54
    2d44:	de 4f       	sbci	r29, 0xFE	; 254
    2d46:	48 81       	ld	r20, Y
    2d48:	59 81       	ldd	r21, Y+1	; 0x01
    2d4a:	61 e0       	ldi	r22, 0x01	; 1
    2d4c:	81 e0       	ldi	r24, 0x01	; 1
    2d4e:	8f 0d       	add	r24, r15
    2d50:	0e 94 c8 14 	call	0x2990	; 0x2990 <temperature_set_TEC_output>
    2d54:	32 c0       	rjmp	.+100    	; 0x2dba <temperature_TEC_hysteris_control_cooling+0x1b6>
	}
	
	else  //TEC is enabling
	{
//		UARTprintf("TEC %d is enabling\r\n",NTC_channel);
		if (NTC_temperature < s_Temperature_CurrentState.channel_temperature_setpoint[NTC_channel] - TEMPERATURE_HYSTERIS)
    2d56:	cc 0f       	add	r28, r28
    2d58:	dd 1f       	adc	r29, r29
    2d5a:	c0 54       	subi	r28, 0x40	; 64
    2d5c:	de 4f       	sbci	r29, 0xFE	; 254
    2d5e:	28 81       	ld	r18, Y
    2d60:	39 81       	ldd	r19, Y+1	; 0x01
    2d62:	22 50       	subi	r18, 0x02	; 2
    2d64:	31 09       	sbc	r19, r1
    2d66:	82 17       	cp	r24, r18
    2d68:	93 07       	cpc	r25, r19
    2d6a:	38 f5       	brcc	.+78     	; 0x2dba <temperature_TEC_hysteris_control_cooling+0x1b6>
		{
//			UARTprintf("TEC shutdown\r\n");
			TEC_shutdown(NTC_channel*2);
    2d6c:	ff 0c       	add	r15, r15
    2d6e:	8f 2d       	mov	r24, r15
    2d70:	0e 94 b1 25 	call	0x4b62	; 0x4b62 <TEC_shutdown>
			s_Temperature_CurrentState.TEC_status &= ~(1 << (NTC_channel * 2 *2));
    2d74:	e2 eb       	ldi	r30, 0xB2	; 178
    2d76:	f1 e0       	ldi	r31, 0x01	; 1
    2d78:	81 e0       	ldi	r24, 0x01	; 1
    2d7a:	90 e0       	ldi	r25, 0x00	; 0
    2d7c:	00 2e       	mov	r0, r16
    2d7e:	02 c0       	rjmp	.+4      	; 0x2d84 <temperature_TEC_hysteris_control_cooling+0x180>
    2d80:	88 0f       	add	r24, r24
    2d82:	99 1f       	adc	r25, r25
    2d84:	0a 94       	dec	r0
    2d86:	e2 f7       	brpl	.-8      	; 0x2d80 <temperature_TEC_hysteris_control_cooling+0x17c>
    2d88:	80 95       	com	r24
    2d8a:	96 8d       	ldd	r25, Z+30	; 0x1e
    2d8c:	89 23       	and	r24, r25
    2d8e:	86 8f       	std	Z+30, r24	; 0x1e
			if (double_output)
    2d90:	ee 20       	and	r14, r14
    2d92:	99 f0       	breq	.+38     	; 0x2dba <temperature_TEC_hysteris_control_cooling+0x1b6>
			{
				TEC_shutdown(NTC_channel*2 + 1);
    2d94:	81 e0       	ldi	r24, 0x01	; 1
    2d96:	8f 0d       	add	r24, r15
    2d98:	0e 94 b1 25 	call	0x4b62	; 0x4b62 <TEC_shutdown>
				s_Temperature_CurrentState.TEC_status &= ~(1 << ((NTC_channel * 2 + 1) *2));
    2d9c:	e2 eb       	ldi	r30, 0xB2	; 178
    2d9e:	f1 e0       	ldi	r31, 0x01	; 1
    2da0:	0e 5f       	subi	r16, 0xFE	; 254
    2da2:	1f 4f       	sbci	r17, 0xFF	; 255
    2da4:	81 e0       	ldi	r24, 0x01	; 1
    2da6:	90 e0       	ldi	r25, 0x00	; 0
    2da8:	02 c0       	rjmp	.+4      	; 0x2dae <temperature_TEC_hysteris_control_cooling+0x1aa>
    2daa:	88 0f       	add	r24, r24
    2dac:	99 1f       	adc	r25, r25
    2dae:	0a 95       	dec	r16
    2db0:	e2 f7       	brpl	.-8      	; 0x2daa <temperature_TEC_hysteris_control_cooling+0x1a6>
    2db2:	80 95       	com	r24
    2db4:	96 8d       	ldd	r25, Z+30	; 0x1e
    2db6:	89 23       	and	r24, r25
    2db8:	86 8f       	std	Z+30, r24	; 0x1e
			
		}
	}
	
	
}
    2dba:	df 91       	pop	r29
    2dbc:	cf 91       	pop	r28
    2dbe:	1f 91       	pop	r17
    2dc0:	0f 91       	pop	r16
    2dc2:	ff 90       	pop	r15
    2dc4:	ef 90       	pop	r14
    2dc6:	08 95       	ret

00002dc8 <temperature_enable_auto_control_TEC>:
	TEC_shutdown(channel);
	s_Temperature_CurrentState.TEC_status &= ~ (1 << (2*channel));
}
void	temperature_enable_auto_control_TEC(uint8_t	channel)
{
	s_Temperature_CurrentState.TEC_status |=  (1 << (2*channel + 1));
    2dc8:	28 2f       	mov	r18, r24
    2dca:	30 e0       	ldi	r19, 0x00	; 0
    2dcc:	e2 eb       	ldi	r30, 0xB2	; 178
    2dce:	f1 e0       	ldi	r31, 0x01	; 1
    2dd0:	b9 01       	movw	r22, r18
    2dd2:	66 0f       	add	r22, r22
    2dd4:	77 1f       	adc	r23, r23
    2dd6:	6f 5f       	subi	r22, 0xFF	; 255
    2dd8:	7f 4f       	sbci	r23, 0xFF	; 255
    2dda:	41 e0       	ldi	r20, 0x01	; 1
    2ddc:	50 e0       	ldi	r21, 0x00	; 0
    2dde:	02 c0       	rjmp	.+4      	; 0x2de4 <temperature_enable_auto_control_TEC+0x1c>
    2de0:	44 0f       	add	r20, r20
    2de2:	55 1f       	adc	r21, r21
    2de4:	6a 95       	dec	r22
    2de6:	e2 f7       	brpl	.-8      	; 0x2de0 <temperature_enable_auto_control_TEC+0x18>
    2de8:	96 8d       	ldd	r25, Z+30	; 0x1e
    2dea:	49 2b       	or	r20, r25
    2dec:	46 8f       	std	Z+30, r20	; 0x1e
	temperature_set_TEC_output(channel , s_Temperature_CurrentState.mode[channel>>1],s_Temperature_CurrentState.TEC_output_voltage[channel] );	
    2dee:	22 0f       	add	r18, r18
    2df0:	33 1f       	adc	r19, r19
    2df2:	f9 01       	movw	r30, r18
    2df4:	e8 53       	subi	r30, 0x38	; 56
    2df6:	fe 4f       	sbci	r31, 0xFE	; 254
    2df8:	40 81       	ld	r20, Z
    2dfa:	51 81       	ldd	r21, Z+1	; 0x01
    2dfc:	e8 2f       	mov	r30, r24
    2dfe:	e6 95       	lsr	r30
    2e00:	f0 e0       	ldi	r31, 0x00	; 0
    2e02:	ee 54       	subi	r30, 0x4E	; 78
    2e04:	fe 4f       	sbci	r31, 0xFE	; 254
    2e06:	60 a5       	ldd	r22, Z+40	; 0x28
    2e08:	0e 94 c8 14 	call	0x2990	; 0x2990 <temperature_set_TEC_output>
    2e0c:	08 95       	ret

00002e0e <temperature_get_setpoint>:
	MCP4291_set_output((uint16_t)_adcVal, 0, 0, 1, channel);
}

uint16_t	temperature_get_setpoint(uint8_t	channel)
{
	return s_Temperature_CurrentState.channel_temperature_setpoint[channel];
    2e0e:	e8 2f       	mov	r30, r24
    2e10:	f0 e0       	ldi	r31, 0x00	; 0
    2e12:	ee 0f       	add	r30, r30
    2e14:	ff 1f       	adc	r31, r31
    2e16:	e0 54       	subi	r30, 0x40	; 64
    2e18:	fe 4f       	sbci	r31, 0xFE	; 254
}
    2e1a:	80 81       	ld	r24, Z
    2e1c:	91 81       	ldd	r25, Z+1	; 0x01
    2e1e:	08 95       	ret

00002e20 <temperature_get_voltage>:

uint16_t	temperature_get_voltage(uint8_t	channel)
{
	return s_Temperature_CurrentState.TEC_output_voltage[channel];
    2e20:	e8 2f       	mov	r30, r24
    2e22:	f0 e0       	ldi	r31, 0x00	; 0
    2e24:	ee 0f       	add	r30, r30
    2e26:	ff 1f       	adc	r31, r31
    2e28:	e8 53       	subi	r30, 0x38	; 56
    2e2a:	fe 4f       	sbci	r31, 0xFE	; 254
}
    2e2c:	80 81       	ld	r24, Z
    2e2e:	91 81       	ldd	r25, Z+1	; 0x01
    2e30:	08 95       	ret

00002e32 <temperature_set_auto_voltage>:

void	temperature_set_auto_voltage(uint8_t channel, uint16_t voltage)
{
	 s_Temperature_CurrentState.TEC_output_voltage[channel] = voltage;
    2e32:	e8 2f       	mov	r30, r24
    2e34:	f0 e0       	ldi	r31, 0x00	; 0
    2e36:	ee 0f       	add	r30, r30
    2e38:	ff 1f       	adc	r31, r31
    2e3a:	e8 53       	subi	r30, 0x38	; 56
    2e3c:	fe 4f       	sbci	r31, 0xFE	; 254
    2e3e:	71 83       	std	Z+1, r23	; 0x01
    2e40:	60 83       	st	Z, r22
    2e42:	08 95       	ret

00002e44 <temperature_get_status>:
}

void	temperature_get_status(void)
{
	uint8_t	_status = s_Temperature_CurrentState.TEC_status;
    2e44:	e2 eb       	ldi	r30, 0xB2	; 178
    2e46:	f1 e0       	ldi	r31, 0x01	; 1
    2e48:	86 8d       	ldd	r24, Z+30	; 0x1e
	UARTprintf("%d %d %d %d %d %d %d %d %d %d %d %d\r\n", ((_status & (1 << TEC0_ENA)) >> TEC0_ENA), ((_status & (1 << TEC1_ENA)) >> TEC1_ENA),
    2e4a:	95 89       	ldd	r25, Z+21	; 0x15
    2e4c:	9f 93       	push	r25
    2e4e:	94 89       	ldd	r25, Z+20	; 0x14
    2e50:	9f 93       	push	r25
    2e52:	93 89       	ldd	r25, Z+19	; 0x13
    2e54:	9f 93       	push	r25
    2e56:	92 89       	ldd	r25, Z+18	; 0x12
    2e58:	9f 93       	push	r25
    2e5a:	91 89       	ldd	r25, Z+17	; 0x11
    2e5c:	9f 93       	push	r25
    2e5e:	90 89       	ldd	r25, Z+16	; 0x10
    2e60:	9f 93       	push	r25
    2e62:	97 85       	ldd	r25, Z+15	; 0x0f
    2e64:	9f 93       	push	r25
    2e66:	96 85       	ldd	r25, Z+14	; 0x0e
    2e68:	9f 93       	push	r25
    2e6a:	93 a5       	ldd	r25, Z+43	; 0x2b
    2e6c:	1f 92       	push	r1
    2e6e:	9f 93       	push	r25
    2e70:	92 a5       	ldd	r25, Z+42	; 0x2a
    2e72:	1f 92       	push	r1
    2e74:	9f 93       	push	r25
    2e76:	91 a5       	ldd	r25, Z+41	; 0x29
    2e78:	1f 92       	push	r1
    2e7a:	9f 93       	push	r25
    2e7c:	90 a5       	ldd	r25, Z+40	; 0x28
    2e7e:	1f 92       	push	r1
    2e80:	9f 93       	push	r25
    2e82:	86 fb       	bst	r24, 6
    2e84:	99 27       	eor	r25, r25
    2e86:	90 f9       	bld	r25, 0
    2e88:	1f 92       	push	r1
    2e8a:	9f 93       	push	r25
    2e8c:	84 fb       	bst	r24, 4
    2e8e:	99 27       	eor	r25, r25
    2e90:	90 f9       	bld	r25, 0
    2e92:	1f 92       	push	r1
    2e94:	9f 93       	push	r25
    2e96:	82 fb       	bst	r24, 2
    2e98:	99 27       	eor	r25, r25
    2e9a:	90 f9       	bld	r25, 0
    2e9c:	1f 92       	push	r1
    2e9e:	9f 93       	push	r25
    2ea0:	81 70       	andi	r24, 0x01	; 1
    2ea2:	1f 92       	push	r1
    2ea4:	8f 93       	push	r24
    2ea6:	8c e8       	ldi	r24, 0x8C	; 140
    2ea8:	9a e0       	ldi	r25, 0x0A	; 10
    2eaa:	9f 93       	push	r25
    2eac:	8f 93       	push	r24
    2eae:	0e 94 53 1f 	call	0x3ea6	; 0x3ea6 <UARTprintf>
									 ((_status & (1 << TEC2_ENA)) >> TEC2_ENA), ((_status & (1 <<TEC3_ENA)) >> TEC3_ENA),
									s_Temperature_CurrentState.mode[0], s_Temperature_CurrentState.mode[1],	s_Temperature_CurrentState.mode[2],	s_Temperature_CurrentState.mode[3],
									s_Temperature_CurrentState.channel_temperature_setpoint[0], s_Temperature_CurrentState.channel_temperature_setpoint[1],
									s_Temperature_CurrentState.channel_temperature_setpoint[2], s_Temperature_CurrentState.channel_temperature_setpoint[3]);
}
    2eb2:	8d b7       	in	r24, 0x3d	; 61
    2eb4:	9e b7       	in	r25, 0x3e	; 62
    2eb6:	4a 96       	adiw	r24, 0x1a	; 26
    2eb8:	0f b6       	in	r0, 0x3f	; 63
    2eba:	f8 94       	cli
    2ebc:	9e bf       	out	0x3e, r25	; 62
    2ebe:	0f be       	out	0x3f, r0	; 63
    2ec0:	8d bf       	out	0x3d, r24	; 61
    2ec2:	08 95       	ret

00002ec4 <temperature_task_update>:
	TEC_shutdown(channel);
	s_Temperature_CurrentState.TEC_status &= ~(1 << (channel*2));
}

static	void	temperature_task_update(void)
{
    2ec4:	af 92       	push	r10
    2ec6:	bf 92       	push	r11
    2ec8:	cf 92       	push	r12
    2eca:	df 92       	push	r13
    2ecc:	ef 92       	push	r14
    2ece:	ff 92       	push	r15
    2ed0:	0f 93       	push	r16
    2ed2:	1f 93       	push	r17
    2ed4:	cf 93       	push	r28
    2ed6:	df 93       	push	r29
		int16_t _NTC_channel0_temperature = get_NTC_temperature_using_table(0);
    2ed8:	80 e0       	ldi	r24, 0x00	; 0
    2eda:	0e 94 16 25 	call	0x4a2c	; 0x4a2c <get_NTC_temperature_using_table>
    2ede:	7c 01       	movw	r14, r24
		int16_t _NTC_channel1_temperature = get_NTC_temperature_using_table(1);
    2ee0:	81 e0       	ldi	r24, 0x01	; 1
    2ee2:	0e 94 16 25 	call	0x4a2c	; 0x4a2c <get_NTC_temperature_using_table>
    2ee6:	8c 01       	movw	r16, r24
		int16_t _NTC_channel2_temperature = get_NTC_temperature_using_table(2);
    2ee8:	82 e0       	ldi	r24, 0x02	; 2
    2eea:	0e 94 16 25 	call	0x4a2c	; 0x4a2c <get_NTC_temperature_using_table>
    2eee:	5c 01       	movw	r10, r24
		int16_t _NTC_channel3_temperature = get_NTC_temperature_using_table(3);
    2ef0:	83 e0       	ldi	r24, 0x03	; 3
    2ef2:	0e 94 16 25 	call	0x4a2c	; 0x4a2c <get_NTC_temperature_using_table>
    2ef6:	6c 01       	movw	r12, r24
		
		if ((s_Temperature_CurrentState.TEC_status & (1 << TEC0_AUTO)) == (1 << TEC0_AUTO))		//channel 0 is enabled and auto
    2ef8:	80 91 d0 01 	lds	r24, 0x01D0	; 0x8001d0 <s_Temperature_CurrentState+0x1e>
    2efc:	81 ff       	sbrs	r24, 1
    2efe:	0f c0       	rjmp	.+30     	; 0x2f1e <temperature_task_update+0x5a>
		{
			if (s_Temperature_CurrentState.mode[0] == HEATING)
    2f00:	80 91 da 01 	lds	r24, 0x01DA	; 0x8001da <s_Temperature_CurrentState+0x28>
    2f04:	81 30       	cpi	r24, 0x01	; 1
    2f06:	31 f4       	brne	.+12     	; 0x2f14 <temperature_task_update+0x50>
			{
				temperature_TEC_hysteris_control_heating(_NTC_channel0_temperature, 0, 1);
    2f08:	41 e0       	ldi	r20, 0x01	; 1
    2f0a:	60 e0       	ldi	r22, 0x00	; 0
    2f0c:	c7 01       	movw	r24, r14
    2f0e:	0e 94 24 15 	call	0x2a48	; 0x2a48 <temperature_TEC_hysteris_control_heating>
    2f12:	05 c0       	rjmp	.+10     	; 0x2f1e <temperature_task_update+0x5a>
			}
			else
			{
				temperature_TEC_hysteris_control_cooling(_NTC_channel0_temperature, 0, 1);
    2f14:	41 e0       	ldi	r20, 0x01	; 1
    2f16:	60 e0       	ldi	r22, 0x00	; 0
    2f18:	c7 01       	movw	r24, r14
    2f1a:	0e 94 02 16 	call	0x2c04	; 0x2c04 <temperature_TEC_hysteris_control_cooling>
			}
		}
		
		if ((s_Temperature_CurrentState.TEC_status & (1 << TEC1_AUTO)) == (1 << TEC1_AUTO))		//channel 1 is enabled and auto
    2f1e:	80 91 d0 01 	lds	r24, 0x01D0	; 0x8001d0 <s_Temperature_CurrentState+0x1e>
    2f22:	83 ff       	sbrs	r24, 3
    2f24:	35 c0       	rjmp	.+106    	; 0x2f90 <temperature_task_update+0xcc>
		{
			if (s_Temperature_CurrentState.mode[1] == HEATING)
    2f26:	80 91 db 01 	lds	r24, 0x01DB	; 0x8001db <s_Temperature_CurrentState+0x29>
    2f2a:	81 30       	cpi	r24, 0x01	; 1
    2f2c:	31 f4       	brne	.+12     	; 0x2f3a <temperature_task_update+0x76>
			{
				temperature_TEC_hysteris_control_heating(_NTC_channel1_temperature, 1, 1);
    2f2e:	41 e0       	ldi	r20, 0x01	; 1
    2f30:	61 e0       	ldi	r22, 0x01	; 1
    2f32:	c8 01       	movw	r24, r16
    2f34:	0e 94 24 15 	call	0x2a48	; 0x2a48 <temperature_TEC_hysteris_control_heating>
    2f38:	05 c0       	rjmp	.+10     	; 0x2f44 <temperature_task_update+0x80>
			}
			else
			{
				temperature_TEC_hysteris_control_cooling(_NTC_channel1_temperature, 1, 1);
    2f3a:	41 e0       	ldi	r20, 0x01	; 1
    2f3c:	61 e0       	ldi	r22, 0x01	; 1
    2f3e:	c8 01       	movw	r24, r16
    2f40:	0e 94 02 16 	call	0x2c04	; 0x2c04 <temperature_TEC_hysteris_control_cooling>
			}
		}
		
		if ((s_Temperature_CurrentState.TEC_status & (1 << TEC1_AUTO)) == (1 << TEC1_AUTO))		//channel 2 is enabled and auto
    2f44:	80 91 d0 01 	lds	r24, 0x01D0	; 0x8001d0 <s_Temperature_CurrentState+0x1e>
    2f48:	83 ff       	sbrs	r24, 3
    2f4a:	22 c0       	rjmp	.+68     	; 0x2f90 <temperature_task_update+0xcc>
		{
			if (s_Temperature_CurrentState.mode[1] == HEATING)
    2f4c:	80 91 db 01 	lds	r24, 0x01DB	; 0x8001db <s_Temperature_CurrentState+0x29>
    2f50:	81 30       	cpi	r24, 0x01	; 1
    2f52:	31 f4       	brne	.+12     	; 0x2f60 <temperature_task_update+0x9c>
			{
				temperature_TEC_hysteris_control_heating(_NTC_channel1_temperature, 2, 1);
    2f54:	41 e0       	ldi	r20, 0x01	; 1
    2f56:	62 e0       	ldi	r22, 0x02	; 2
    2f58:	c8 01       	movw	r24, r16
    2f5a:	0e 94 24 15 	call	0x2a48	; 0x2a48 <temperature_TEC_hysteris_control_heating>
    2f5e:	05 c0       	rjmp	.+10     	; 0x2f6a <temperature_task_update+0xa6>
			}
			else
			{
				temperature_TEC_hysteris_control_cooling(_NTC_channel1_temperature, 2, 1);
    2f60:	41 e0       	ldi	r20, 0x01	; 1
    2f62:	62 e0       	ldi	r22, 0x02	; 2
    2f64:	c8 01       	movw	r24, r16
    2f66:	0e 94 02 16 	call	0x2c04	; 0x2c04 <temperature_TEC_hysteris_control_cooling>
			}
		}
		
		if ((s_Temperature_CurrentState.TEC_status & (1 << TEC1_AUTO)) == (1 << TEC1_AUTO))		//channel 3 is enabled and auto
    2f6a:	80 91 d0 01 	lds	r24, 0x01D0	; 0x8001d0 <s_Temperature_CurrentState+0x1e>
    2f6e:	83 ff       	sbrs	r24, 3
    2f70:	0f c0       	rjmp	.+30     	; 0x2f90 <temperature_task_update+0xcc>
		{
			if (s_Temperature_CurrentState.mode[1] == HEATING)
    2f72:	80 91 db 01 	lds	r24, 0x01DB	; 0x8001db <s_Temperature_CurrentState+0x29>
    2f76:	81 30       	cpi	r24, 0x01	; 1
    2f78:	31 f4       	brne	.+12     	; 0x2f86 <temperature_task_update+0xc2>
			{
				temperature_TEC_hysteris_control_heating(_NTC_channel1_temperature, 3, 1);
    2f7a:	41 e0       	ldi	r20, 0x01	; 1
    2f7c:	63 e0       	ldi	r22, 0x03	; 3
    2f7e:	c8 01       	movw	r24, r16
    2f80:	0e 94 24 15 	call	0x2a48	; 0x2a48 <temperature_TEC_hysteris_control_heating>
    2f84:	05 c0       	rjmp	.+10     	; 0x2f90 <temperature_task_update+0xcc>
			}
			else
			{
				temperature_TEC_hysteris_control_cooling(_NTC_channel1_temperature, 3, 1);
    2f86:	41 e0       	ldi	r20, 0x01	; 1
    2f88:	63 e0       	ldi	r22, 0x03	; 3
    2f8a:	c8 01       	movw	r24, r16
    2f8c:	0e 94 02 16 	call	0x2c04	; 0x2c04 <temperature_TEC_hysteris_control_cooling>
			}
		}
		
		s_Temperature_CurrentState.NTC_channel_temperature[0] = _NTC_channel0_temperature;
    2f90:	c2 eb       	ldi	r28, 0xB2	; 178
    2f92:	d1 e0       	ldi	r29, 0x01	; 1
    2f94:	f9 82       	std	Y+1, r15	; 0x01
    2f96:	e8 82       	st	Y, r14
		s_Temperature_CurrentState.NTC_channel_temperature[1] = _NTC_channel1_temperature;
    2f98:	1b 83       	std	Y+3, r17	; 0x03
    2f9a:	0a 83       	std	Y+2, r16	; 0x02
		s_Temperature_CurrentState.NTC_channel_temperature[2] = _NTC_channel2_temperature;
    2f9c:	bd 82       	std	Y+5, r11	; 0x05
    2f9e:	ac 82       	std	Y+4, r10	; 0x04
		s_Temperature_CurrentState.NTC_channel_temperature[3] = _NTC_channel3_temperature;
    2fa0:	df 82       	std	Y+7, r13	; 0x07
    2fa2:	ce 82       	std	Y+6, r12	; 0x06
// 		// update temperature from onewire sensor
// 		s_Temperature_CurrentState.onewire_channel_temperature[0] = get_NTC_temperature(0) /*get_onewire_temperature(0)*/;
// 		s_Temperature_CurrentState.onewire_channel_temperature[1] = get_NTC_temperature(1) /*get_onewire_temperature(1)*/;	
		
		// update temperature from BMP390 sensor
		s_Temperature_CurrentState.i2c_sensor_temperature = get_BMP390_temperature();
    2fa4:	0e 94 28 23 	call	0x4650	; 0x4650 <get_BMP390_temperature>
    2fa8:	9d 87       	std	Y+13, r25	; 0x0d
    2faa:	8c 87       	std	Y+12, r24	; 0x0c
		
		if (SCH_TIM_HasCompleted(SCH_TIM_TEMPERATURE_LOG))
    2fac:	81 e0       	ldi	r24, 0x01	; 1
    2fae:	0e 94 fe 25 	call	0x4bfc	; 0x4bfc <SCH_TIM_HasCompleted>
    2fb2:	88 23       	and	r24, r24
    2fb4:	69 f0       	breq	.+26     	; 0x2fd0 <temperature_task_update+0x10c>
		{
			if (sPrintLog)
    2fb6:	80 91 90 0b 	lds	r24, 0x0B90	; 0x800b90 <sPrintLog>
    2fba:	88 23       	and	r24, r24
    2fbc:	49 f0       	breq	.+18     	; 0x2fd0 <temperature_task_update+0x10c>
			{
				SCH_TIM_Start(SCH_TIM_TEMPERATURE_LOG,TEMPERATURE_LOG_PERIOD);
    2fbe:	48 ee       	ldi	r20, 0xE8	; 232
    2fc0:	53 e0       	ldi	r21, 0x03	; 3
    2fc2:	60 e0       	ldi	r22, 0x00	; 0
    2fc4:	70 e0       	ldi	r23, 0x00	; 0
    2fc6:	81 e0       	ldi	r24, 0x01	; 1
    2fc8:	0e 94 f3 25 	call	0x4be6	; 0x4be6 <SCH_TIM_Start>
				temperature_get_status();
    2fcc:	0e 94 22 17 	call	0x2e44	; 0x2e44 <temperature_get_status>
			}
		}	

}
    2fd0:	df 91       	pop	r29
    2fd2:	cf 91       	pop	r28
    2fd4:	1f 91       	pop	r17
    2fd6:	0f 91       	pop	r16
    2fd8:	ff 90       	pop	r15
    2fda:	ef 90       	pop	r14
    2fdc:	df 90       	pop	r13
    2fde:	cf 90       	pop	r12
    2fe0:	bf 90       	pop	r11
    2fe2:	af 90       	pop	r10
    2fe4:	08 95       	ret

00002fe6 <temperature_enable_log>:
									s_Temperature_CurrentState.channel_temperature_setpoint[2], s_Temperature_CurrentState.channel_temperature_setpoint[3]);
}

void	temperature_enable_log(void)
{
	sPrintLog  = 1;
    2fe6:	81 e0       	ldi	r24, 0x01	; 1
    2fe8:	80 93 90 0b 	sts	0x0B90, r24	; 0x800b90 <sPrintLog>
    2fec:	08 95       	ret

00002fee <temperature_disable_log>:
}

void	temperature_disable_log(void)
{
	sPrintLog  = 0;
    2fee:	10 92 90 0b 	sts	0x0B90, r1	; 0x800b90 <sPrintLog>
    2ff2:	08 95       	ret

00002ff4 <watchdog_pulse>:
{
	TPL5010_init();
}
static void watchdog_pulse(void)
{
	TPL5010_done_pulse ();
    2ff4:	0e 94 d0 25 	call	0x4ba0	; 0x4ba0 <TPL5010_done_pulse>
    2ff8:	08 95       	ret

00002ffa <watchdog_init>:
		watchdog_pulse         // timerCallbackFunction;
	}
};
void watchdog_init(void)
{
	TPL5010_init();
    2ffa:	0e 94 cb 25 	call	0x4b96	; 0x4b96 <TPL5010_init>
    2ffe:	08 95       	ret

00003000 <watchdog_create_timer>:
	TPL5010_done_pulse ();
}

void	watchdog_create_timer(void)
{
	SCH_TIM_CreateTimer(&s_WatchdogTimerContext.timerHandle, &s_WatchdogTimerContext.timerProperty);
    3000:	66 ee       	ldi	r22, 0xE6	; 230
    3002:	71 e0       	ldi	r23, 0x01	; 1
    3004:	85 ee       	ldi	r24, 0xE5	; 229
    3006:	91 e0       	ldi	r25, 0x01	; 1
    3008:	0e 94 3f 26 	call	0x4c7e	; 0x4c7e <SCH_TIM_CreateTimer>
	SCH_TIM_RestartTimer(s_WatchdogTimerContext.timerHandle);
    300c:	80 91 e5 01 	lds	r24, 0x01E5	; 0x8001e5 <s_WatchdogTimerContext>
    3010:	0e 94 70 26 	call	0x4ce0	; 0x4ce0 <SCH_TIM_RestartTimer>
    3014:	08 95       	ret

00003016 <init_adc>:
#include "AD.h"


void init_adc(void)
{
	ADMUX = (0);
    3016:	17 b8       	out	0x07, r1	; 7
	ADMUX |= (1 << REFS0);
    3018:	3e 9a       	sbi	0x07, 6	; 7
	//Prescaler of 128. 16Mhz/128 = 125kHz
	ADCSRA |= (1<<ADPS2)|(1<<ADPS1)|(1<<ADPS0)|(1<<ADEN);
    301a:	86 b1       	in	r24, 0x06	; 6
    301c:	87 68       	ori	r24, 0x87	; 135
    301e:	86 b9       	out	0x06, r24	; 6
    3020:	08 95       	ret

00003022 <adc_read>:
{
	#ifdef IOU_HW_V1_2_0
		if (channel == 0) channel = 1;
		else if (channel == 1) channel = 0;
	#endif
	ADMUX = ADMUX & 0xF0;
    3022:	97 b1       	in	r25, 0x07	; 7
    3024:	90 7f       	andi	r25, 0xF0	; 240
    3026:	97 b9       	out	0x07, r25	; 7
	ADMUX |= (channel & 0x0F);
    3028:	97 b1       	in	r25, 0x07	; 7
    302a:	8f 70       	andi	r24, 0x0F	; 15
    302c:	98 2b       	or	r25, r24
    302e:	97 b9       	out	0x07, r25	; 7
	ADCSRA |= (1<<ADSC);
    3030:	36 9a       	sbi	0x06, 6	; 6
	while (ADCSRA & (1<<ADSC) );
    3032:	36 99       	sbic	0x06, 6	; 6
    3034:	fe cf       	rjmp	.-4      	; 0x3032 <adc_read+0x10>
	
	return (ADCL | (ADCH << 8));
    3036:	84 b1       	in	r24, 0x04	; 4
    3038:	25 b1       	in	r18, 0x05	; 5
    303a:	90 e0       	ldi	r25, 0x00	; 0
}
    303c:	92 2b       	or	r25, r18
    303e:	08 95       	ret

00003040 <pwm1_init>:
	TCCR1B |= (1 << CS11) | (1 << CS10);	// Set prescaler to 64 and start the timer
	
	ICR1  = _TimePeriodUs * 0.125;					// Voi F = 8M thi T = 0.125us, va prescaler = 64 nen T' = 8us
	
	OCR1C = _DutyCyclePercent * ICR1 * 0.01;		// Output Compare
}
    3040:	cf 93       	push	r28
    3042:	c4 2f       	mov	r28, r20
    3044:	48 b3       	in	r20, 0x18	; 24
    3046:	21 e0       	ldi	r18, 0x01	; 1
    3048:	30 e0       	ldi	r19, 0x00	; 0
    304a:	f9 01       	movw	r30, r18
    304c:	02 c0       	rjmp	.+4      	; 0x3052 <pwm1_init+0x12>
    304e:	ee 0f       	add	r30, r30
    3050:	ff 1f       	adc	r31, r31
    3052:	8a 95       	dec	r24
    3054:	e2 f7       	brpl	.-8      	; 0x304e <pwm1_init+0xe>
    3056:	cf 01       	movw	r24, r30
    3058:	9e 2f       	mov	r25, r30
    305a:	90 95       	com	r25
    305c:	49 23       	and	r20, r25
    305e:	48 bb       	out	0x18, r20	; 24
    3060:	97 b3       	in	r25, 0x17	; 23
    3062:	89 2b       	or	r24, r25
    3064:	87 bb       	out	0x17, r24	; 23
    3066:	8f b5       	in	r24, 0x2f	; 47
    3068:	82 60       	ori	r24, 0x02	; 2
    306a:	8f bd       	out	0x2f, r24	; 47
    306c:	8e b5       	in	r24, 0x2e	; 46
    306e:	88 61       	ori	r24, 0x18	; 24
    3070:	8e bd       	out	0x2e, r24	; 46
    3072:	8f b5       	in	r24, 0x2f	; 47
    3074:	80 62       	ori	r24, 0x20	; 32
    3076:	8f bd       	out	0x2f, r24	; 47
    3078:	8e b5       	in	r24, 0x2e	; 46
    307a:	83 60       	ori	r24, 0x03	; 3
    307c:	8e bd       	out	0x2e, r24	; 46
    307e:	80 e0       	ldi	r24, 0x00	; 0
    3080:	90 e0       	ldi	r25, 0x00	; 0
    3082:	0e 94 ac 2a 	call	0x5558	; 0x5558 <__floatunsisf>
    3086:	20 e0       	ldi	r18, 0x00	; 0
    3088:	30 e0       	ldi	r19, 0x00	; 0
    308a:	40 e0       	ldi	r20, 0x00	; 0
    308c:	5e e3       	ldi	r21, 0x3E	; 62
    308e:	0e 94 3a 2b 	call	0x5674	; 0x5674 <__mulsf3>
    3092:	0e 94 7d 2a 	call	0x54fa	; 0x54fa <__fixunssfsi>
    3096:	77 bd       	out	0x27, r23	; 39
    3098:	66 bd       	out	0x26, r22	; 38
    309a:	86 b5       	in	r24, 0x26	; 38
    309c:	97 b5       	in	r25, 0x27	; 39
    309e:	c8 9f       	mul	r28, r24
    30a0:	b0 01       	movw	r22, r0
    30a2:	c9 9f       	mul	r28, r25
    30a4:	70 0d       	add	r23, r0
    30a6:	11 24       	eor	r1, r1
    30a8:	80 e0       	ldi	r24, 0x00	; 0
    30aa:	90 e0       	ldi	r25, 0x00	; 0
    30ac:	0e 94 ac 2a 	call	0x5558	; 0x5558 <__floatunsisf>
    30b0:	2a e0       	ldi	r18, 0x0A	; 10
    30b2:	37 ed       	ldi	r19, 0xD7	; 215
    30b4:	43 e2       	ldi	r20, 0x23	; 35
    30b6:	5c e3       	ldi	r21, 0x3C	; 60
    30b8:	0e 94 3a 2b 	call	0x5674	; 0x5674 <__mulsf3>
    30bc:	0e 94 7d 2a 	call	0x54fa	; 0x54fa <__fixunssfsi>
    30c0:	79 bd       	out	0x29, r23	; 41
    30c2:	68 bd       	out	0x28, r22	; 40
    30c4:	cf 91       	pop	r28
    30c6:	08 95       	ret

000030c8 <pwm1_set_DutyCyclePercent>:

void pwm1_set_DutyCyclePercent(const uint8_t _DutyCyclePercent)
{
	OCR1B = _DutyCyclePercent * ICR1 * 0.01;
    30c8:	26 b5       	in	r18, 0x26	; 38
    30ca:	37 b5       	in	r19, 0x27	; 39
    30cc:	48 2f       	mov	r20, r24
    30ce:	42 9f       	mul	r20, r18
    30d0:	c0 01       	movw	r24, r0
    30d2:	43 9f       	mul	r20, r19
    30d4:	90 0d       	add	r25, r0
    30d6:	11 24       	eor	r1, r1
    30d8:	bc 01       	movw	r22, r24
    30da:	80 e0       	ldi	r24, 0x00	; 0
    30dc:	90 e0       	ldi	r25, 0x00	; 0
    30de:	0e 94 ac 2a 	call	0x5558	; 0x5558 <__floatunsisf>
    30e2:	2a e0       	ldi	r18, 0x0A	; 10
    30e4:	37 ed       	ldi	r19, 0xD7	; 215
    30e6:	43 e2       	ldi	r20, 0x23	; 35
    30e8:	5c e3       	ldi	r21, 0x3C	; 60
    30ea:	0e 94 3a 2b 	call	0x5674	; 0x5674 <__mulsf3>
    30ee:	0e 94 7d 2a 	call	0x54fa	; 0x54fa <__fixunssfsi>
    30f2:	79 bd       	out	0x29, r23	; 41
    30f4:	68 bd       	out	0x28, r22	; 40
    30f6:	08 95       	ret

000030f8 <SPI_Init>:
// Initialize the SPI as master
void SPI_Init(void)
{
	

	 	MCP2515_SS0_DDR |= (1 << MCP2515_SS0_PIN);
    30f8:	b8 9a       	sbi	0x17, 0	; 23
	 	MCP2515_SS0_PORT |= (1 << MCP2515_SS0_PIN);      //kh?i ??ng chn SS l output v xu?t 1 tr??c khi kh?i ??ng SPI
    30fa:	c0 9a       	sbi	0x18, 0	; 24
		   
	// make the MOSI, SCK, and SS pins outputs
	SPI_DDR |= ( 1 << SPI_MOSI ) | ( 1 << SPI_SCK ) ;
    30fc:	87 b3       	in	r24, 0x17	; 23
    30fe:	86 60       	ori	r24, 0x06	; 6
    3100:	87 bb       	out	0x17, r24	; 23

	// make sure the MISO pin is input
	SPI_DDR &= ~( 1 << SPI_MISO );
    3102:	bb 98       	cbi	0x17, 3	; 23

	// set up the SPI module: SPI enabled, MSB first, master mode,
	//  clock polarity and phase = 0, F_osc/16
	SPI_SPCR |= ( 1 << SPI_SPE ) | ( 1 << SPI_MSTR ) | ( 1 << SPI_SPR0 );
    3104:	8d b1       	in	r24, 0x0d	; 13
    3106:	81 65       	ori	r24, 0x51	; 81
    3108:	8d b9       	out	0x0d, r24	; 13
    310a:	08 95       	ret

0000310c <SPI_SendByte>:

// Transfer a byte of data
uint8_t SPI_SendByte( uint8_t data )
{
	// Start transmission
	SPDR = data;
    310c:	8f b9       	out	0x0f, r24	; 15
//	SPDR = 01;

	// Wait for the transmission to complete
	while (!(SPSR & (1 << SPIF)));
    310e:	77 9b       	sbis	0x0e, 7	; 14
    3110:	fe cf       	rjmp	.-4      	; 0x310e <SPI_SendByte+0x2>

	// return the byte received from the slave
	return SPDR;
    3112:	8f b1       	in	r24, 0x0f	; 15
}
    3114:	08 95       	ret

00003116 <timer_start_timer0>:
    3116:	83 b7       	in	r24, 0x33	; 51
    3118:	84 60       	ori	r24, 0x04	; 4
    311a:	83 bf       	out	0x33, r24	; 51
    311c:	87 b7       	in	r24, 0x37	; 55
    311e:	82 60       	ori	r24, 0x02	; 2
    3120:	87 bf       	out	0x37, r24	; 55
    3122:	78 94       	sei
    3124:	08 95       	ret

00003126 <timer_timer0_init>:
    3126:	83 b7       	in	r24, 0x33	; 51
    3128:	88 60       	ori	r24, 0x08	; 8
    312a:	83 bf       	out	0x33, r24	; 51
    312c:	12 be       	out	0x32, r1	; 50
    312e:	8c e7       	ldi	r24, 0x7C	; 124
    3130:	81 bf       	out	0x31, r24	; 49
    3132:	08 95       	ret

00003134 <twi_start>:
  bool flag = twi_timed_out_flag;
  if (clear_flag){
    twi_timed_out_flag = false;
  }
  return(flag);
}
    3134:	84 ea       	ldi	r24, 0xA4	; 164
    3136:	80 93 74 00 	sts	0x0074, r24	; 0x800074 <__TEXT_REGION_LENGTH__+0x7f0074>
    313a:	8a ef       	ldi	r24, 0xFA	; 250
    313c:	e4 e7       	ldi	r30, 0x74	; 116
    313e:	f0 e0       	ldi	r31, 0x00	; 0
    3140:	02 c0       	rjmp	.+4      	; 0x3146 <twi_start+0x12>
    3142:	81 50       	subi	r24, 0x01	; 1
    3144:	19 f0       	breq	.+6      	; 0x314c <twi_start+0x18>
    3146:	90 81       	ld	r25, Z
    3148:	99 23       	and	r25, r25
    314a:	dc f7       	brge	.-10     	; 0x3142 <twi_start+0xe>
    314c:	08 95       	ret

0000314e <twi_stop>:
    314e:	84 e9       	ldi	r24, 0x94	; 148
    3150:	80 93 74 00 	sts	0x0074, r24	; 0x800074 <__TEXT_REGION_LENGTH__+0x7f0074>
    3154:	8a ef       	ldi	r24, 0xFA	; 250
    3156:	e4 e7       	ldi	r30, 0x74	; 116
    3158:	f0 e0       	ldi	r31, 0x00	; 0
    315a:	02 c0       	rjmp	.+4      	; 0x3160 <twi_stop+0x12>
    315c:	81 50       	subi	r24, 0x01	; 1
    315e:	19 f0       	breq	.+6      	; 0x3166 <twi_stop+0x18>
    3160:	90 81       	ld	r25, Z
    3162:	94 fd       	sbrc	r25, 4
    3164:	fb cf       	rjmp	.-10     	; 0x315c <twi_stop+0xe>
    3166:	08 95       	ret

00003168 <twi_write>:
    3168:	80 93 73 00 	sts	0x0073, r24	; 0x800073 <__TEXT_REGION_LENGTH__+0x7f0073>
    316c:	84 e8       	ldi	r24, 0x84	; 132
    316e:	80 93 74 00 	sts	0x0074, r24	; 0x800074 <__TEXT_REGION_LENGTH__+0x7f0074>
    3172:	8a ef       	ldi	r24, 0xFA	; 250
    3174:	e4 e7       	ldi	r30, 0x74	; 116
    3176:	f0 e0       	ldi	r31, 0x00	; 0
    3178:	02 c0       	rjmp	.+4      	; 0x317e <twi_write+0x16>
    317a:	81 50       	subi	r24, 0x01	; 1
    317c:	19 f0       	breq	.+6      	; 0x3184 <twi_write+0x1c>
    317e:	90 81       	ld	r25, Z
    3180:	99 23       	and	r25, r25
    3182:	dc f7       	brge	.-10     	; 0x317a <twi_write+0x12>
    3184:	08 95       	ret

00003186 <twi_read_ack>:
    3186:	84 ec       	ldi	r24, 0xC4	; 196
    3188:	80 93 74 00 	sts	0x0074, r24	; 0x800074 <__TEXT_REGION_LENGTH__+0x7f0074>
    318c:	8a ef       	ldi	r24, 0xFA	; 250
    318e:	e4 e7       	ldi	r30, 0x74	; 116
    3190:	f0 e0       	ldi	r31, 0x00	; 0
    3192:	02 c0       	rjmp	.+4      	; 0x3198 <twi_read_ack+0x12>
    3194:	81 50       	subi	r24, 0x01	; 1
    3196:	29 f0       	breq	.+10     	; 0x31a2 <twi_read_ack+0x1c>
    3198:	90 81       	ld	r25, Z
    319a:	99 23       	and	r25, r25
    319c:	dc f7       	brge	.-10     	; 0x3194 <twi_read_ack+0xe>
    319e:	80 91 73 00 	lds	r24, 0x0073	; 0x800073 <__TEXT_REGION_LENGTH__+0x7f0073>
    31a2:	08 95       	ret

000031a4 <twi_read_nack>:
    31a4:	84 e8       	ldi	r24, 0x84	; 132
    31a6:	80 93 74 00 	sts	0x0074, r24	; 0x800074 <__TEXT_REGION_LENGTH__+0x7f0074>
    31aa:	8a ef       	ldi	r24, 0xFA	; 250
    31ac:	e4 e7       	ldi	r30, 0x74	; 116
    31ae:	f0 e0       	ldi	r31, 0x00	; 0
    31b0:	02 c0       	rjmp	.+4      	; 0x31b6 <twi_read_nack+0x12>
    31b2:	81 50       	subi	r24, 0x01	; 1
    31b4:	29 f0       	breq	.+10     	; 0x31c0 <twi_read_nack+0x1c>
    31b6:	90 81       	ld	r25, Z
    31b8:	99 23       	and	r25, r25
    31ba:	dc f7       	brge	.-10     	; 0x31b2 <twi_read_nack+0xe>
    31bc:	80 91 73 00 	lds	r24, 0x0073	; 0x800073 <__TEXT_REGION_LENGTH__+0x7f0073>
    31c0:	08 95       	ret

000031c2 <twi_releaseBus>:
    31c2:	85 ec       	ldi	r24, 0xC5	; 197
    31c4:	80 93 74 00 	sts	0x0074, r24	; 0x800074 <__TEXT_REGION_LENGTH__+0x7f0074>
    31c8:	10 92 c4 0b 	sts	0x0BC4, r1	; 0x800bc4 <twi_state>
    31cc:	08 95       	ret

000031ce <__vector_33>:

ISR(TWI_vect)
{
    31ce:	1f 92       	push	r1
    31d0:	0f 92       	push	r0
    31d2:	0f b6       	in	r0, 0x3f	; 63
    31d4:	0f 92       	push	r0
    31d6:	11 24       	eor	r1, r1
    31d8:	2f 93       	push	r18
    31da:	3f 93       	push	r19
    31dc:	4f 93       	push	r20
    31de:	5f 93       	push	r21
    31e0:	6f 93       	push	r22
    31e2:	7f 93       	push	r23
    31e4:	8f 93       	push	r24
    31e6:	9f 93       	push	r25
    31e8:	af 93       	push	r26
    31ea:	bf 93       	push	r27
    31ec:	ef 93       	push	r30
    31ee:	ff 93       	push	r31
  switch(TW_STATUS){
    31f0:	80 91 71 00 	lds	r24, 0x0071	; 0x800071 <__TEXT_REGION_LENGTH__+0x7f0071>
    31f4:	e8 2f       	mov	r30, r24
    31f6:	e8 7f       	andi	r30, 0xF8	; 248
    31f8:	8e 2f       	mov	r24, r30
    31fa:	90 e0       	ldi	r25, 0x00	; 0
    31fc:	89 3c       	cpi	r24, 0xC9	; 201
    31fe:	91 05       	cpc	r25, r1
    3200:	08 f0       	brcs	.+2      	; 0x3204 <__vector_33+0x36>
    3202:	f5 c0       	rjmp	.+490    	; 0x33ee <__vector_33+0x220>
    3204:	fc 01       	movw	r30, r24
    3206:	e7 5a       	subi	r30, 0xA7	; 167
    3208:	ff 4f       	sbci	r31, 0xFF	; 255
    320a:	0c 94 56 2f 	jmp	0x5eac	; 0x5eac <__tablejump2__>
    case TW_START:     // sent start condition
    case TW_REP_START: // sent repeated start condition
      // copy device address and r/w bit to output register and ack
	  //twi_slarw = TW_WRITE;
	  //twi_slarw |= SLV_ADDRESS << 1;
      TWDR = twi_slarw;
    320e:	80 91 c3 0b 	lds	r24, 0x0BC3	; 0x800bc3 <twi_slarw>
    3212:	80 93 73 00 	sts	0x0073, r24	; 0x800073 <__TEXT_REGION_LENGTH__+0x7f0073>
      TWCR=(1<<TWEN)|(0<<TWSTA)|(1<<TWINT)|(1<<TWIE);
    3216:	85 e8       	ldi	r24, 0x85	; 133
    3218:	80 93 74 00 	sts	0x0074, r24	; 0x800074 <__TEXT_REGION_LENGTH__+0x7f0074>
	  //twi_reply(1);
      break;
    321c:	e8 c0       	rjmp	.+464    	; 0x33ee <__vector_33+0x220>
    // Master Transmitter
	//-------------------------------------------------------------------------------------------------------------------------------
    case TW_MT_SLA_ACK:  // slave receiver acked address
    case TW_MT_DATA_ACK: // slave receiver acked data
      // if there is data to send, send it, otherwise stop 
      if(twi_master_txBufferIndex < twi_master_txBufferLength){
    321e:	90 91 b4 0b 	lds	r25, 0x0BB4	; 0x800bb4 <twi_master_txBufferIndex>
    3222:	80 91 b3 0b 	lds	r24, 0x0BB3	; 0x800bb3 <twi_master_txBufferLength>
    3226:	98 17       	cp	r25, r24
    3228:	80 f4       	brcc	.+32     	; 0x324a <__vector_33+0x7c>
        // copy data to output register and ack
        TWDR = twi_master_txBuffer[twi_master_txBufferIndex++];
    322a:	e0 91 b4 0b 	lds	r30, 0x0BB4	; 0x800bb4 <twi_master_txBufferIndex>
    322e:	81 e0       	ldi	r24, 0x01	; 1
    3230:	8e 0f       	add	r24, r30
    3232:	80 93 b4 0b 	sts	0x0BB4, r24	; 0x800bb4 <twi_master_txBufferIndex>
    3236:	f0 e0       	ldi	r31, 0x00	; 0
    3238:	eb 54       	subi	r30, 0x4B	; 75
    323a:	f4 4f       	sbci	r31, 0xF4	; 244
    323c:	80 81       	ld	r24, Z
    323e:	80 93 73 00 	sts	0x0073, r24	; 0x800073 <__TEXT_REGION_LENGTH__+0x7f0073>
 */
void twi_reply(uint8_t ack)
{
  // transmit master read ready signal, with or without ack
  if(ack){
    TWCR = (1<<TWEN) | (1<<TWIE) | (1<<TWINT) | (1<<TWEA);
    3242:	85 ec       	ldi	r24, 0xC5	; 197
    3244:	80 93 74 00 	sts	0x0074, r24	; 0x800074 <__TEXT_REGION_LENGTH__+0x7f0074>
    3248:	d2 c0       	rjmp	.+420    	; 0x33ee <__vector_33+0x220>
      if(twi_master_txBufferIndex < twi_master_txBufferLength){
        // copy data to output register and ack
        TWDR = twi_master_txBuffer[twi_master_txBufferIndex++];
        twi_reply(1);
      }else{
        if (twi_sendStop){
    324a:	80 91 c2 0b 	lds	r24, 0x0BC2	; 0x800bc2 <twi_sendStop>
    324e:	88 23       	and	r24, r24
    3250:	19 f0       	breq	.+6      	; 0x3258 <__vector_33+0x8a>
          twi_stop();
    3252:	0e 94 a7 18 	call	0x314e	; 0x314e <twi_stop>
    3256:	cb c0       	rjmp	.+406    	; 0x33ee <__vector_33+0x220>
       } else {
         twi_inRepStart = true;	// we're gonna send the START
    3258:	81 e0       	ldi	r24, 0x01	; 1
    325a:	80 93 c1 0b 	sts	0x0BC1, r24	; 0x800bc1 <twi_inRepStart>
         // don't enable the interrupt. We'll generate the start, but we
         // avoid handling the interrupt until we're in the next transaction,
         // at the point where we would normally issue the start.
         TWCR = (1<<TWINT) | (1<<TWSTA)| (1<<TWEN) ;
    325e:	84 ea       	ldi	r24, 0xA4	; 164
    3260:	80 93 74 00 	sts	0x0074, r24	; 0x800074 <__TEXT_REGION_LENGTH__+0x7f0074>
         twi_state = TWI_READY;
    3264:	10 92 c4 0b 	sts	0x0BC4, r1	; 0x800bc4 <twi_state>
    3268:	c2 c0       	rjmp	.+388    	; 0x33ee <__vector_33+0x220>
        }
      }
      break;
    case TW_MT_SLA_NACK:  // address sent, nack received
      twi_error = TW_MT_SLA_NACK;
    326a:	80 e2       	ldi	r24, 0x20	; 32
    326c:	80 93 95 0b 	sts	0x0B95, r24	; 0x800b95 <twi_error>
      twi_stop();
    3270:	0e 94 a7 18 	call	0x314e	; 0x314e <twi_stop>
      break;
    3274:	bc c0       	rjmp	.+376    	; 0x33ee <__vector_33+0x220>
    case TW_MT_DATA_NACK: // data sent, nack received
      twi_error = TW_MT_DATA_NACK;
    3276:	80 e3       	ldi	r24, 0x30	; 48
    3278:	80 93 95 0b 	sts	0x0B95, r24	; 0x800b95 <twi_error>
      twi_stop();
    327c:	0e 94 a7 18 	call	0x314e	; 0x314e <twi_stop>
      break;
    3280:	b6 c0       	rjmp	.+364    	; 0x33ee <__vector_33+0x220>
    case TW_MT_ARB_LOST: // lost bus arbitration
      twi_error = TW_MT_ARB_LOST;
    3282:	88 e3       	ldi	r24, 0x38	; 56
    3284:	80 93 95 0b 	sts	0x0B95, r24	; 0x800b95 <twi_error>
      twi_releaseBus();
    3288:	0e 94 e1 18 	call	0x31c2	; 0x31c2 <twi_releaseBus>
      break;
    328c:	b0 c0       	rjmp	.+352    	; 0x33ee <__vector_33+0x220>
	//-------------------------------------------------------------------------------------------------------------------------------
    // Master Receiver
	//-------------------------------------------------------------------------------------------------------------------------------
    case TW_MR_DATA_ACK: // data received, ack sent
      // put byte into buffer
      twi_master_rxBuffer[twi_master_rxBufferIndex++] = TWDR;
    328e:	e0 91 aa 0b 	lds	r30, 0x0BAA	; 0x800baa <twi_master_rxBufferIndex>
    3292:	81 e0       	ldi	r24, 0x01	; 1
    3294:	8e 0f       	add	r24, r30
    3296:	80 93 aa 0b 	sts	0x0BAA, r24	; 0x800baa <twi_master_rxBufferIndex>
    329a:	80 91 73 00 	lds	r24, 0x0073	; 0x800073 <__TEXT_REGION_LENGTH__+0x7f0073>
    329e:	f0 e0       	ldi	r31, 0x00	; 0
    32a0:	e5 55       	subi	r30, 0x55	; 85
    32a2:	f4 4f       	sbci	r31, 0xF4	; 244
    32a4:	80 83       	st	Z, r24
      //__attribute__ ((fallthrough));
    case TW_MR_SLA_ACK:  // address sent, ack received
      // ack if more bytes are expected, otherwise nack
      if(twi_master_rxBufferIndex < twi_master_rxBufferLength){
    32a6:	90 91 aa 0b 	lds	r25, 0x0BAA	; 0x800baa <twi_master_rxBufferIndex>
    32aa:	80 91 a9 0b 	lds	r24, 0x0BA9	; 0x800ba9 <twi_master_rxBufferLength>
    32ae:	98 17       	cp	r25, r24
    32b0:	20 f4       	brcc	.+8      	; 0x32ba <__vector_33+0xec>
 */
void twi_reply(uint8_t ack)
{
  // transmit master read ready signal, with or without ack
  if(ack){
    TWCR = (1<<TWEN) | (1<<TWIE) | (1<<TWINT) | (1<<TWEA);
    32b2:	85 ec       	ldi	r24, 0xC5	; 197
    32b4:	80 93 74 00 	sts	0x0074, r24	; 0x800074 <__TEXT_REGION_LENGTH__+0x7f0074>
    32b8:	9a c0       	rjmp	.+308    	; 0x33ee <__vector_33+0x220>
  }else{
    TWCR = (1<<TWEN) | (1<<TWIE) | (1<<TWINT);
    32ba:	85 e8       	ldi	r24, 0x85	; 133
    32bc:	80 93 74 00 	sts	0x0074, r24	; 0x800074 <__TEXT_REGION_LENGTH__+0x7f0074>
    32c0:	96 c0       	rjmp	.+300    	; 0x33ee <__vector_33+0x220>
        twi_reply(0);
      }
      break;
    case TW_MR_DATA_NACK: // data received, nack sent
      // put final byte into buffer
      twi_master_rxBuffer[twi_master_rxBufferIndex++] = TWDR;
    32c2:	e0 91 aa 0b 	lds	r30, 0x0BAA	; 0x800baa <twi_master_rxBufferIndex>
    32c6:	81 e0       	ldi	r24, 0x01	; 1
    32c8:	8e 0f       	add	r24, r30
    32ca:	80 93 aa 0b 	sts	0x0BAA, r24	; 0x800baa <twi_master_rxBufferIndex>
    32ce:	80 91 73 00 	lds	r24, 0x0073	; 0x800073 <__TEXT_REGION_LENGTH__+0x7f0073>
    32d2:	f0 e0       	ldi	r31, 0x00	; 0
    32d4:	e5 55       	subi	r30, 0x55	; 85
    32d6:	f4 4f       	sbci	r31, 0xF4	; 244
    32d8:	80 83       	st	Z, r24
      if (twi_sendStop){
    32da:	80 91 c2 0b 	lds	r24, 0x0BC2	; 0x800bc2 <twi_sendStop>
    32de:	88 23       	and	r24, r24
    32e0:	19 f0       	breq	.+6      	; 0x32e8 <__vector_33+0x11a>
        twi_stop();
    32e2:	0e 94 a7 18 	call	0x314e	; 0x314e <twi_stop>
    32e6:	83 c0       	rjmp	.+262    	; 0x33ee <__vector_33+0x220>
      } else {
        twi_inRepStart = true;	// we're gonna send the START
    32e8:	81 e0       	ldi	r24, 0x01	; 1
    32ea:	80 93 c1 0b 	sts	0x0BC1, r24	; 0x800bc1 <twi_inRepStart>
        // don't enable the interrupt. We'll generate the start, but we
        // avoid handling the interrupt until we're in the next transaction,
        // at the point where we would normally issue the start.
        TWCR = (1<<TWINT) | (1<<TWSTA)| (1<<TWEN) ;
    32ee:	84 ea       	ldi	r24, 0xA4	; 164
    32f0:	80 93 74 00 	sts	0x0074, r24	; 0x800074 <__TEXT_REGION_LENGTH__+0x7f0074>
        twi_state = TWI_READY;
    32f4:	10 92 c4 0b 	sts	0x0BC4, r1	; 0x800bc4 <twi_state>
    32f8:	7a c0       	rjmp	.+244    	; 0x33ee <__vector_33+0x220>
      }
      break;
    case TW_MR_SLA_NACK: // address sent, nack received
      twi_stop();
    32fa:	0e 94 a7 18 	call	0x314e	; 0x314e <twi_stop>
      break;
    32fe:	77 c0       	rjmp	.+238    	; 0x33ee <__vector_33+0x220>
    case TW_SR_SLA_ACK:   // addressed, returned ack
    case TW_SR_GCALL_ACK: // addressed generally, returned ack
    case TW_SR_ARB_LOST_SLA_ACK:   // lost arbitration, returned ack
    case TW_SR_ARB_LOST_GCALL_ACK: // lost arbitration, returned ack
      // enter slave receiver mode
      twi_state = TWI_SRX;
    3300:	83 e0       	ldi	r24, 0x03	; 3
    3302:	80 93 c4 0b 	sts	0x0BC4, r24	; 0x800bc4 <twi_state>
      // indicate that rx buffer can be overwritten and ack
      twi_slv_rxBufferIndex = 0;
    3306:	10 92 96 0b 	sts	0x0B96, r1	; 0x800b96 <twi_slv_rxBufferIndex>
 */
void twi_reply(uint8_t ack)
{
  // transmit master read ready signal, with or without ack
  if(ack){
    TWCR = (1<<TWEN) | (1<<TWIE) | (1<<TWINT) | (1<<TWEA);
    330a:	85 ec       	ldi	r24, 0xC5	; 197
    330c:	80 93 74 00 	sts	0x0074, r24	; 0x800074 <__TEXT_REGION_LENGTH__+0x7f0074>
    3310:	6e c0       	rjmp	.+220    	; 0x33ee <__vector_33+0x220>
      twi_reply(1);
      break;
    case TW_SR_DATA_ACK:       // data received, returned ack
    case TW_SR_GCALL_DATA_ACK: // data received generally, returned ack
      // if there is still room in the rx buffer
      if(twi_slv_rxBufferIndex < TWI_BUFFER_LENGTH){
    3312:	80 91 96 0b 	lds	r24, 0x0B96	; 0x800b96 <twi_slv_rxBufferIndex>
    3316:	88 30       	cpi	r24, 0x08	; 8
    3318:	80 f4       	brcc	.+32     	; 0x333a <__vector_33+0x16c>
        // put byte in buffer and ack
        twi_slv_rxBuffer[twi_slv_rxBufferIndex++] = TWDR;
    331a:	e0 91 96 0b 	lds	r30, 0x0B96	; 0x800b96 <twi_slv_rxBufferIndex>
    331e:	81 e0       	ldi	r24, 0x01	; 1
    3320:	8e 0f       	add	r24, r30
    3322:	80 93 96 0b 	sts	0x0B96, r24	; 0x800b96 <twi_slv_rxBufferIndex>
    3326:	80 91 73 00 	lds	r24, 0x0073	; 0x800073 <__TEXT_REGION_LENGTH__+0x7f0073>
    332a:	f0 e0       	ldi	r31, 0x00	; 0
    332c:	e9 56       	subi	r30, 0x69	; 105
    332e:	f4 4f       	sbci	r31, 0xF4	; 244
    3330:	80 83       	st	Z, r24
 */
void twi_reply(uint8_t ack)
{
  // transmit master read ready signal, with or without ack
  if(ack){
    TWCR = (1<<TWEN) | (1<<TWIE) | (1<<TWINT) | (1<<TWEA);
    3332:	85 ec       	ldi	r24, 0xC5	; 197
    3334:	80 93 74 00 	sts	0x0074, r24	; 0x800074 <__TEXT_REGION_LENGTH__+0x7f0074>
    3338:	5a c0       	rjmp	.+180    	; 0x33ee <__vector_33+0x220>
  }else{
    TWCR = (1<<TWEN) | (1<<TWIE) | (1<<TWINT);
    333a:	85 e8       	ldi	r24, 0x85	; 133
    333c:	80 93 74 00 	sts	0x0074, r24	; 0x800074 <__TEXT_REGION_LENGTH__+0x7f0074>
    3340:	56 c0       	rjmp	.+172    	; 0x33ee <__vector_33+0x220>
        twi_reply(0);
      }
      break;
    case TW_SR_STOP: // stop or repeated start condition received
      // ack future responses and leave slave receiver state
      twi_releaseBus();
    3342:	0e 94 e1 18 	call	0x31c2	; 0x31c2 <twi_releaseBus>
      // put a null char after data if there's room
      if(twi_slv_rxBufferIndex < TWI_BUFFER_LENGTH){
    3346:	80 91 96 0b 	lds	r24, 0x0B96	; 0x800b96 <twi_slv_rxBufferIndex>
    334a:	88 30       	cpi	r24, 0x08	; 8
    334c:	30 f4       	brcc	.+12     	; 0x335a <__vector_33+0x18c>
        twi_slv_rxBuffer[twi_slv_rxBufferIndex] = '\0';
    334e:	e0 91 96 0b 	lds	r30, 0x0B96	; 0x800b96 <twi_slv_rxBufferIndex>
    3352:	f0 e0       	ldi	r31, 0x00	; 0
    3354:	e9 56       	subi	r30, 0x69	; 105
    3356:	f4 4f       	sbci	r31, 0xF4	; 244
    3358:	10 82       	st	Z, r1
      }
      // callback to user defined callback
      twi_onSlaveReceive(twi_slv_rxBuffer, twi_slv_rxBufferIndex);
    335a:	60 91 96 0b 	lds	r22, 0x0B96	; 0x800b96 <twi_slv_rxBufferIndex>
    335e:	70 e0       	ldi	r23, 0x00	; 0
    3360:	e0 91 bd 0b 	lds	r30, 0x0BBD	; 0x800bbd <twi_onSlaveReceive>
    3364:	f0 91 be 0b 	lds	r31, 0x0BBE	; 0x800bbe <twi_onSlaveReceive+0x1>
    3368:	87 e9       	ldi	r24, 0x97	; 151
    336a:	9b e0       	ldi	r25, 0x0B	; 11
    336c:	09 95       	icall
      // since we submit rx buffer to "wire" library, we can reset it
      twi_slv_rxBufferIndex = 0;
    336e:	10 92 96 0b 	sts	0x0B96, r1	; 0x800b96 <twi_slv_rxBufferIndex>
      break;
    3372:	3d c0       	rjmp	.+122    	; 0x33ee <__vector_33+0x220>
{
  // transmit master read ready signal, with or without ack
  if(ack){
    TWCR = (1<<TWEN) | (1<<TWIE) | (1<<TWINT) | (1<<TWEA);
  }else{
    TWCR = (1<<TWEN) | (1<<TWIE) | (1<<TWINT);
    3374:	85 e8       	ldi	r24, 0x85	; 133
    3376:	80 93 74 00 	sts	0x0074, r24	; 0x800074 <__TEXT_REGION_LENGTH__+0x7f0074>
    337a:	39 c0       	rjmp	.+114    	; 0x33ee <__vector_33+0x220>
    // Slave Transmitter
	//-------------------------------------------------------------------------------------------------------------------------------
    case TW_ST_SLA_ACK:          // addressed, returned ack
    case TW_ST_ARB_LOST_SLA_ACK: // arbitration lost, returned ack
      // enter slave transmitter mode
      twi_state = TWI_STX;
    337c:	84 e0       	ldi	r24, 0x04	; 4
    337e:	80 93 c4 0b 	sts	0x0BC4, r24	; 0x800bc4 <twi_state>
      // ready the tx buffer index for iteration
      twi_slv_txBufferIndex = 0;
    3382:	10 92 a0 0b 	sts	0x0BA0, r1	; 0x800ba0 <twi_slv_txBufferIndex>
      // set tx buffer length to be zero, to verify if user changes it
      twi_slv_txBufferLength = 0;
    3386:	10 92 9f 0b 	sts	0x0B9F, r1	; 0x800b9f <twi_slv_txBufferLength>
      // request for txBuffer to be filled and length to be set
      // note: user must call twi_transmit(bytes, length) to do this
      twi_onSlaveTransmit();
    338a:	e0 91 bf 0b 	lds	r30, 0x0BBF	; 0x800bbf <twi_onSlaveTransmit>
    338e:	f0 91 c0 0b 	lds	r31, 0x0BC0	; 0x800bc0 <twi_onSlaveTransmit+0x1>
    3392:	09 95       	icall
      // if they didn't change buffer & length, initialize it
      if(0 == twi_slv_txBufferLength){
    3394:	80 91 9f 0b 	lds	r24, 0x0B9F	; 0x800b9f <twi_slv_txBufferLength>
    3398:	81 11       	cpse	r24, r1
    339a:	05 c0       	rjmp	.+10     	; 0x33a6 <__vector_33+0x1d8>
        twi_slv_txBufferLength = 1;
    339c:	81 e0       	ldi	r24, 0x01	; 1
    339e:	80 93 9f 0b 	sts	0x0B9F, r24	; 0x800b9f <twi_slv_txBufferLength>
        twi_slv_txBuffer[0] = 0x00;
    33a2:	10 92 a1 0b 	sts	0x0BA1, r1	; 0x800ba1 <twi_slv_txBuffer>
      }
      //__attribute__ ((fallthrough));		  
      // transmit first byte from buffer, fall
    case TW_ST_DATA_ACK: // byte sent, ack returned
      // copy data to output register
      TWDR = twi_slv_txBuffer[twi_slv_txBufferIndex++];
    33a6:	e0 91 a0 0b 	lds	r30, 0x0BA0	; 0x800ba0 <twi_slv_txBufferIndex>
    33aa:	81 e0       	ldi	r24, 0x01	; 1
    33ac:	8e 0f       	add	r24, r30
    33ae:	80 93 a0 0b 	sts	0x0BA0, r24	; 0x800ba0 <twi_slv_txBufferIndex>
    33b2:	f0 e0       	ldi	r31, 0x00	; 0
    33b4:	ef 55       	subi	r30, 0x5F	; 95
    33b6:	f4 4f       	sbci	r31, 0xF4	; 244
    33b8:	80 81       	ld	r24, Z
    33ba:	80 93 73 00 	sts	0x0073, r24	; 0x800073 <__TEXT_REGION_LENGTH__+0x7f0073>
      // if there is more to send, ack, otherwise nack
      if(twi_slv_txBufferIndex < twi_slv_txBufferLength){
    33be:	90 91 a0 0b 	lds	r25, 0x0BA0	; 0x800ba0 <twi_slv_txBufferIndex>
    33c2:	80 91 9f 0b 	lds	r24, 0x0B9F	; 0x800b9f <twi_slv_txBufferLength>
    33c6:	98 17       	cp	r25, r24
    33c8:	20 f4       	brcc	.+8      	; 0x33d2 <__vector_33+0x204>
 */
void twi_reply(uint8_t ack)
{
  // transmit master read ready signal, with or without ack
  if(ack){
    TWCR = (1<<TWEN) | (1<<TWIE) | (1<<TWINT) | (1<<TWEA);
    33ca:	85 ec       	ldi	r24, 0xC5	; 197
    33cc:	80 93 74 00 	sts	0x0074, r24	; 0x800074 <__TEXT_REGION_LENGTH__+0x7f0074>
    33d0:	0e c0       	rjmp	.+28     	; 0x33ee <__vector_33+0x220>
  }else{
    TWCR = (1<<TWEN) | (1<<TWIE) | (1<<TWINT);
    33d2:	85 e8       	ldi	r24, 0x85	; 133
    33d4:	80 93 74 00 	sts	0x0074, r24	; 0x800074 <__TEXT_REGION_LENGTH__+0x7f0074>
    33d8:	0a c0       	rjmp	.+20     	; 0x33ee <__vector_33+0x220>
 */
void twi_reply(uint8_t ack)
{
  // transmit master read ready signal, with or without ack
  if(ack){
    TWCR = (1<<TWEN) | (1<<TWIE) | (1<<TWINT) | (1<<TWEA);
    33da:	85 ec       	ldi	r24, 0xC5	; 197
    33dc:	80 93 74 00 	sts	0x0074, r24	; 0x800074 <__TEXT_REGION_LENGTH__+0x7f0074>
    case TW_ST_DATA_NACK: // received nack, we are done 
    case TW_ST_LAST_DATA: // received ack, but we are done already!
      // ack future responses
      twi_reply(1);
      // leave slave receiver state
      twi_state = TWI_READY;
    33e0:	10 92 c4 0b 	sts	0x0BC4, r1	; 0x800bc4 <twi_state>
      break;
    33e4:	04 c0       	rjmp	.+8      	; 0x33ee <__vector_33+0x220>

    // All
    case TW_NO_INFO:   // no state information
      break;
    case TW_BUS_ERROR: // bus error, illegal stop/start
      twi_error = TW_BUS_ERROR;
    33e6:	10 92 95 0b 	sts	0x0B95, r1	; 0x800b95 <twi_error>
      twi_stop();
    33ea:	0e 94 a7 18 	call	0x314e	; 0x314e <twi_stop>
      break;
  }
}
    33ee:	ff 91       	pop	r31
    33f0:	ef 91       	pop	r30
    33f2:	bf 91       	pop	r27
    33f4:	af 91       	pop	r26
    33f6:	9f 91       	pop	r25
    33f8:	8f 91       	pop	r24
    33fa:	7f 91       	pop	r23
    33fc:	6f 91       	pop	r22
    33fe:	5f 91       	pop	r21
    3400:	4f 91       	pop	r20
    3402:	3f 91       	pop	r19
    3404:	2f 91       	pop	r18
    3406:	0f 90       	pop	r0
    3408:	0f be       	out	0x3f, r0	; 63
    340a:	0f 90       	pop	r0
    340c:	1f 90       	pop	r1
    340e:	18 95       	reti

00003410 <rbuffer_init>:
	while(!(UCSR1A & (1 << TXC)));										// Wait for Tx unit to transmit the LAST character of ringbuffer

	_delay_ms(200);                                             // Extra safety for Tx to finish!

	UCSR1B &= ~( (1<<RXEN)|(1<<TXEN)|(1<<RXCIE) | (1<<	UDRIE));					//disable TX, RX, RX interrupt
	UCSR1C &= (1<<UCSZ1) | (1<<UCSZ0);
    3410:	2f b7       	in	r18, 0x3f	; 63
    3412:	f8 94       	cli
    3414:	fc 01       	movw	r30, r24
    3416:	e0 5c       	subi	r30, 0xC0	; 192
    3418:	ff 4f       	sbci	r31, 0xFF	; 255
    341a:	10 82       	st	Z, r1
    341c:	31 96       	adiw	r30, 0x01	; 1
    341e:	10 82       	st	Z, r1
    3420:	31 96       	adiw	r30, 0x01	; 1
    3422:	10 82       	st	Z, r1
    3424:	2f bf       	out	0x3f, r18	; 63
    3426:	08 95       	ret

00003428 <rbuffer_empty>:
    3428:	8e 5b       	subi	r24, 0xBE	; 190
    342a:	9f 4f       	sbci	r25, 0xFF	; 255
    342c:	fc 01       	movw	r30, r24
    342e:	90 81       	ld	r25, Z
    3430:	81 e0       	ldi	r24, 0x01	; 1
    3432:	91 11       	cpse	r25, r1
    3434:	80 e0       	ldi	r24, 0x00	; 0
    3436:	08 95       	ret

00003438 <rbuffer_insert>:
    3438:	fb 01       	movw	r30, r22
    343a:	e0 5c       	subi	r30, 0xC0	; 192
    343c:	ff 4f       	sbci	r31, 0xFF	; 255
    343e:	90 81       	ld	r25, Z
    3440:	db 01       	movw	r26, r22
    3442:	a9 0f       	add	r26, r25
    3444:	b1 1d       	adc	r27, r1
    3446:	8c 93       	st	X, r24
    3448:	9f b7       	in	r25, 0x3f	; 63
    344a:	f8 94       	cli
    344c:	80 81       	ld	r24, Z
    344e:	8f 5f       	subi	r24, 0xFF	; 255
    3450:	8f 73       	andi	r24, 0x3F	; 63
    3452:	80 83       	st	Z, r24
    3454:	32 96       	adiw	r30, 0x02	; 2
    3456:	80 81       	ld	r24, Z
    3458:	8f 5f       	subi	r24, 0xFF	; 255
    345a:	80 83       	st	Z, r24
    345c:	9f bf       	out	0x3f, r25	; 63
    345e:	08 95       	ret

00003460 <rbuffer_remove>:
    3460:	fc 01       	movw	r30, r24
    3462:	ef 5b       	subi	r30, 0xBF	; 191
    3464:	ff 4f       	sbci	r31, 0xFF	; 255
    3466:	20 81       	ld	r18, Z
    3468:	dc 01       	movw	r26, r24
    346a:	a2 0f       	add	r26, r18
    346c:	b1 1d       	adc	r27, r1
    346e:	3c 91       	ld	r19, X
    3470:	4f b7       	in	r20, 0x3f	; 63
    3472:	f8 94       	cli
    3474:	20 81       	ld	r18, Z
    3476:	2f 5f       	subi	r18, 0xFF	; 255
    3478:	2f 73       	andi	r18, 0x3F	; 63
    347a:	20 83       	st	Z, r18
    347c:	31 96       	adiw	r30, 0x01	; 1
    347e:	90 81       	ld	r25, Z
    3480:	91 50       	subi	r25, 0x01	; 1
    3482:	90 83       	st	Z, r25
    3484:	4f bf       	out	0x3f, r20	; 63
    3486:	83 2f       	mov	r24, r19
    3488:	08 95       	ret

0000348a <usart0_init>:
    348a:	80 91 ed 01 	lds	r24, 0x01ED	; 0x8001ed <p_UART0_meta>
    348e:	90 91 ee 01 	lds	r25, 0x01EE	; 0x8001ee <p_UART0_meta+0x1>
    3492:	8d 5b       	subi	r24, 0xBD	; 189
    3494:	9f 4f       	sbci	r25, 0xFF	; 255
    3496:	0e 94 08 1a 	call	0x3410	; 0x3410 <rbuffer_init>
    349a:	80 91 ed 01 	lds	r24, 0x01ED	; 0x8001ed <p_UART0_meta>
    349e:	90 91 ee 01 	lds	r25, 0x01EE	; 0x8001ee <p_UART0_meta+0x1>
    34a2:	0e 94 08 1a 	call	0x3410	; 0x3410 <rbuffer_init>
    34a6:	10 92 90 00 	sts	0x0090, r1	; 0x800090 <__TEXT_REGION_LENGTH__+0x7f0090>
    34aa:	83 e3       	ldi	r24, 0x33	; 51
    34ac:	89 b9       	out	0x09, r24	; 9
    34ae:	8a b1       	in	r24, 0x0a	; 10
    34b0:	88 69       	ori	r24, 0x98	; 152
    34b2:	8a b9       	out	0x0a, r24	; 10
    34b4:	e5 e9       	ldi	r30, 0x95	; 149
    34b6:	f0 e0       	ldi	r31, 0x00	; 0
    34b8:	80 81       	ld	r24, Z
    34ba:	86 60       	ori	r24, 0x06	; 6
    34bc:	80 83       	st	Z, r24
    34be:	78 94       	sei
    34c0:	08 95       	ret

000034c2 <usart0_send_char>:
    34c2:	60 91 ed 01 	lds	r22, 0x01ED	; 0x8001ed <p_UART0_meta>
    34c6:	70 91 ee 01 	lds	r23, 0x01EE	; 0x8001ee <p_UART0_meta+0x1>
    34ca:	fb 01       	movw	r30, r22
    34cc:	eb 57       	subi	r30, 0x7B	; 123
    34ce:	ff 4f       	sbci	r31, 0xFF	; 255
    34d0:	90 81       	ld	r25, Z
    34d2:	90 34       	cpi	r25, 0x40	; 64
    34d4:	e9 f3       	breq	.-6      	; 0x34d0 <usart0_send_char+0xe>
    34d6:	6d 5b       	subi	r22, 0xBD	; 189
    34d8:	7f 4f       	sbci	r23, 0xFF	; 255
    34da:	0e 94 1c 1a 	call	0x3438	; 0x3438 <rbuffer_insert>
    34de:	55 9a       	sbi	0x0a, 5	; 10
    34e0:	08 95       	ret

000034e2 <usart0_send_string>:
    34e2:	cf 93       	push	r28
    34e4:	df 93       	push	r29
    34e6:	ec 01       	movw	r28, r24
    34e8:	88 81       	ld	r24, Y
    34ea:	88 23       	and	r24, r24
    34ec:	31 f0       	breq	.+12     	; 0x34fa <usart0_send_string+0x18>
    34ee:	21 96       	adiw	r28, 0x01	; 1
    34f0:	0e 94 61 1a 	call	0x34c2	; 0x34c2 <usart0_send_char>
    34f4:	89 91       	ld	r24, Y+
    34f6:	81 11       	cpse	r24, r1
    34f8:	fb cf       	rjmp	.-10     	; 0x34f0 <usart0_send_string+0xe>
    34fa:	df 91       	pop	r29
    34fc:	cf 91       	pop	r28
    34fe:	08 95       	ret

00003500 <usart0_send_array>:
    3500:	0f 93       	push	r16
    3502:	1f 93       	push	r17
    3504:	cf 93       	push	r28
    3506:	df 93       	push	r29
    3508:	66 23       	and	r22, r22
    350a:	71 f0       	breq	.+28     	; 0x3528 <usart0_send_array+0x28>
    350c:	ec 01       	movw	r28, r24
    350e:	61 50       	subi	r22, 0x01	; 1
    3510:	06 2f       	mov	r16, r22
    3512:	10 e0       	ldi	r17, 0x00	; 0
    3514:	0f 5f       	subi	r16, 0xFF	; 255
    3516:	1f 4f       	sbci	r17, 0xFF	; 255
    3518:	08 0f       	add	r16, r24
    351a:	19 1f       	adc	r17, r25
    351c:	89 91       	ld	r24, Y+
    351e:	0e 94 61 1a 	call	0x34c2	; 0x34c2 <usart0_send_char>
    3522:	c0 17       	cp	r28, r16
    3524:	d1 07       	cpc	r29, r17
    3526:	d1 f7       	brne	.-12     	; 0x351c <usart0_send_array+0x1c>
    3528:	df 91       	pop	r29
    352a:	cf 91       	pop	r28
    352c:	1f 91       	pop	r17
    352e:	0f 91       	pop	r16
    3530:	08 95       	ret

00003532 <usart0_send_string_P>:
    3532:	cf 93       	push	r28
    3534:	df 93       	push	r29
    3536:	ec 01       	movw	r28, r24
    3538:	21 96       	adiw	r28, 0x01	; 1
    353a:	fc 01       	movw	r30, r24
    353c:	84 91       	lpm	r24, Z
    353e:	88 23       	and	r24, r24
    3540:	39 f0       	breq	.+14     	; 0x3550 <usart0_send_string_P+0x1e>
    3542:	0e 94 61 1a 	call	0x34c2	; 0x34c2 <usart0_send_char>
    3546:	fe 01       	movw	r30, r28
    3548:	84 91       	lpm	r24, Z
    354a:	21 96       	adiw	r28, 0x01	; 1
    354c:	81 11       	cpse	r24, r1
    354e:	f9 cf       	rjmp	.-14     	; 0x3542 <usart0_send_string_P+0x10>
    3550:	df 91       	pop	r29
    3552:	cf 91       	pop	r28
    3554:	08 95       	ret

00003556 <uart_get_uart0_rx_buffer_address>:
    3556:	80 91 ed 01 	lds	r24, 0x01ED	; 0x8001ed <p_UART0_meta>
    355a:	90 91 ee 01 	lds	r25, 0x01EE	; 0x8001ee <p_UART0_meta+0x1>
    355e:	08 95       	ret

00003560 <usart1_init>:
    3560:	80 91 eb 01 	lds	r24, 0x01EB	; 0x8001eb <p_UART1_meta>
    3564:	90 91 ec 01 	lds	r25, 0x01EC	; 0x8001ec <p_UART1_meta+0x1>
    3568:	8d 5b       	subi	r24, 0xBD	; 189
    356a:	9f 4f       	sbci	r25, 0xFF	; 255
    356c:	0e 94 08 1a 	call	0x3410	; 0x3410 <rbuffer_init>
    3570:	80 91 eb 01 	lds	r24, 0x01EB	; 0x8001eb <p_UART1_meta>
    3574:	90 91 ec 01 	lds	r25, 0x01EC	; 0x8001ec <p_UART1_meta+0x1>
    3578:	0e 94 08 1a 	call	0x3410	; 0x3410 <rbuffer_init>
    357c:	10 92 98 00 	sts	0x0098, r1	; 0x800098 <__TEXT_REGION_LENGTH__+0x7f0098>
    3580:	89 e1       	ldi	r24, 0x19	; 25
    3582:	80 93 99 00 	sts	0x0099, r24	; 0x800099 <__TEXT_REGION_LENGTH__+0x7f0099>
    3586:	ea e9       	ldi	r30, 0x9A	; 154
    3588:	f0 e0       	ldi	r31, 0x00	; 0
    358a:	80 81       	ld	r24, Z
    358c:	88 69       	ori	r24, 0x98	; 152
    358e:	80 83       	st	Z, r24
    3590:	ed e9       	ldi	r30, 0x9D	; 157
    3592:	f0 e0       	ldi	r31, 0x00	; 0
    3594:	80 81       	ld	r24, Z
    3596:	86 60       	ori	r24, 0x06	; 6
    3598:	80 83       	st	Z, r24
    359a:	eb e9       	ldi	r30, 0x9B	; 155
    359c:	f0 e0       	ldi	r31, 0x00	; 0
    359e:	80 81       	ld	r24, Z
    35a0:	82 60       	ori	r24, 0x02	; 2
    35a2:	80 83       	st	Z, r24
    35a4:	08 95       	ret

000035a6 <usart1_send_char>:
    35a6:	60 91 eb 01 	lds	r22, 0x01EB	; 0x8001eb <p_UART1_meta>
    35aa:	70 91 ec 01 	lds	r23, 0x01EC	; 0x8001ec <p_UART1_meta+0x1>
    35ae:	fb 01       	movw	r30, r22
    35b0:	eb 57       	subi	r30, 0x7B	; 123
    35b2:	ff 4f       	sbci	r31, 0xFF	; 255
    35b4:	90 81       	ld	r25, Z
    35b6:	90 34       	cpi	r25, 0x40	; 64
    35b8:	e9 f3       	breq	.-6      	; 0x35b4 <usart1_send_char+0xe>
    35ba:	6d 5b       	subi	r22, 0xBD	; 189
    35bc:	7f 4f       	sbci	r23, 0xFF	; 255
    35be:	0e 94 1c 1a 	call	0x3438	; 0x3438 <rbuffer_insert>
    35c2:	ea e9       	ldi	r30, 0x9A	; 154
    35c4:	f0 e0       	ldi	r31, 0x00	; 0
    35c6:	80 81       	ld	r24, Z
    35c8:	80 62       	ori	r24, 0x20	; 32
    35ca:	80 83       	st	Z, r24
    35cc:	08 95       	ret

000035ce <usart1_send_array>:
    35ce:	0f 93       	push	r16
    35d0:	1f 93       	push	r17
    35d2:	cf 93       	push	r28
    35d4:	df 93       	push	r29
    35d6:	66 23       	and	r22, r22
    35d8:	71 f0       	breq	.+28     	; 0x35f6 <usart1_send_array+0x28>
    35da:	ec 01       	movw	r28, r24
    35dc:	61 50       	subi	r22, 0x01	; 1
    35de:	06 2f       	mov	r16, r22
    35e0:	10 e0       	ldi	r17, 0x00	; 0
    35e2:	0f 5f       	subi	r16, 0xFF	; 255
    35e4:	1f 4f       	sbci	r17, 0xFF	; 255
    35e6:	08 0f       	add	r16, r24
    35e8:	19 1f       	adc	r17, r25
    35ea:	89 91       	ld	r24, Y+
    35ec:	0e 94 d3 1a 	call	0x35a6	; 0x35a6 <usart1_send_char>
    35f0:	c0 17       	cp	r28, r16
    35f2:	d1 07       	cpc	r29, r17
    35f4:	d1 f7       	brne	.-12     	; 0x35ea <usart1_send_array+0x1c>
    35f6:	df 91       	pop	r29
    35f8:	cf 91       	pop	r28
    35fa:	1f 91       	pop	r17
    35fc:	0f 91       	pop	r16
    35fe:	08 95       	ret

00003600 <uart_get_uart1_rx_buffer_address>:


volatile ringbuffer_t * uart_get_uart1_rx_buffer_address(void)
{
	return &(p_UART1_meta->rb_rx);
}
    3600:	80 91 eb 01 	lds	r24, 0x01EB	; 0x8001eb <p_UART1_meta>
    3604:	90 91 ec 01 	lds	r25, 0x01EC	; 0x8001ec <p_UART1_meta+0x1>
    3608:	08 95       	ret

0000360a <__vector_18>:

// ---- ---- ---- ---- ---- ---- ---- ---- ---- ---- ---- ---- ---- ----
// ISR FUNCTIONS
#ifdef USART0_ENABLE

ISR(USART0_RX_vect) {
    360a:	1f 92       	push	r1
    360c:	0f 92       	push	r0
    360e:	0f b6       	in	r0, 0x3f	; 63
    3610:	0f 92       	push	r0
    3612:	11 24       	eor	r1, r1
    3614:	2f 93       	push	r18
    3616:	3f 93       	push	r19
    3618:	4f 93       	push	r20
    361a:	5f 93       	push	r21
    361c:	6f 93       	push	r22
    361e:	7f 93       	push	r23
    3620:	8f 93       	push	r24
    3622:	9f 93       	push	r25
    3624:	af 93       	push	r26
    3626:	bf 93       	push	r27
    3628:	ef 93       	push	r30
    362a:	ff 93       	push	r31
	
   char	data = UDR0;
    362c:	8c b1       	in	r24, 0x0c	; 12

    if(!rbuffer_full(&p_UART0_meta->rb_rx)) {
    362e:	60 91 ed 01 	lds	r22, 0x01ED	; 0x8001ed <p_UART0_meta>
    3632:	70 91 ee 01 	lds	r23, 0x01EE	; 0x8001ee <p_UART0_meta+0x1>
uint8_t rbuffer_count(volatile ringbuffer_t* rb) {
    return rb->count;
}

bool rbuffer_full(volatile ringbuffer_t* rb) {
    return (rb->count == (uint8_t)RBUFFER_SIZE);
    3636:	fb 01       	movw	r30, r22
    3638:	ee 5b       	subi	r30, 0xBE	; 190
    363a:	ff 4f       	sbci	r31, 0xFF	; 255
    363c:	90 81       	ld	r25, Z

ISR(USART0_RX_vect) {
	
   char	data = UDR0;

    if(!rbuffer_full(&p_UART0_meta->rb_rx)) {
    363e:	90 34       	cpi	r25, 0x40	; 64
    3640:	71 f0       	breq	.+28     	; 0x365e <__vector_18+0x54>
	    rbuffer_insert(data, &p_UART0_meta->rb_rx);
    3642:	0e 94 1c 1a 	call	0x3438	; 0x3438 <rbuffer_insert>
	    p_UART0_meta->usart_error = UCSR0A & USART_RX_ERROR_MASK ;
    3646:	e0 91 ed 01 	lds	r30, 0x01ED	; 0x8001ed <p_UART0_meta>
    364a:	f0 91 ee 01 	lds	r31, 0x01EE	; 0x8001ee <p_UART0_meta+0x1>
    364e:	8b b1       	in	r24, 0x0b	; 11
    3650:	8c 71       	andi	r24, 0x1C	; 28
    3652:	90 e0       	ldi	r25, 0x00	; 0
    3654:	ea 57       	subi	r30, 0x7A	; 122
    3656:	ff 4f       	sbci	r31, 0xFF	; 255
    3658:	91 83       	std	Z+1, r25	; 0x01
    365a:	80 83       	st	Z, r24
    365c:	09 c0       	rjmp	.+18     	; 0x3670 <__vector_18+0x66>

    }
    else {
	    p_UART0_meta->usart_error = ((UCSR0A & USART_RX_ERROR_MASK) | USART_BUFFER_OVERFLOW>>8);
    365e:	8b b1       	in	r24, 0x0b	; 11
    3660:	8c 71       	andi	r24, 0x1C	; 28
    3662:	81 60       	ori	r24, 0x01	; 1
    3664:	90 e0       	ldi	r25, 0x00	; 0
    3666:	fb 01       	movw	r30, r22
    3668:	ea 57       	subi	r30, 0x7A	; 122
    366a:	ff 4f       	sbci	r31, 0xFF	; 255
    366c:	91 83       	std	Z+1, r25	; 0x01
    366e:	80 83       	st	Z, r24
    }   
}
    3670:	ff 91       	pop	r31
    3672:	ef 91       	pop	r30
    3674:	bf 91       	pop	r27
    3676:	af 91       	pop	r26
    3678:	9f 91       	pop	r25
    367a:	8f 91       	pop	r24
    367c:	7f 91       	pop	r23
    367e:	6f 91       	pop	r22
    3680:	5f 91       	pop	r21
    3682:	4f 91       	pop	r20
    3684:	3f 91       	pop	r19
    3686:	2f 91       	pop	r18
    3688:	0f 90       	pop	r0
    368a:	0f be       	out	0x3f, r0	; 63
    368c:	0f 90       	pop	r0
    368e:	1f 90       	pop	r1
    3690:	18 95       	reti

00003692 <__vector_19>:
ISR(USART0_UDRE_vect) {
    3692:	1f 92       	push	r1
    3694:	0f 92       	push	r0
    3696:	0f b6       	in	r0, 0x3f	; 63
    3698:	0f 92       	push	r0
    369a:	11 24       	eor	r1, r1
    369c:	2f 93       	push	r18
    369e:	3f 93       	push	r19
    36a0:	4f 93       	push	r20
    36a2:	5f 93       	push	r21
    36a4:	6f 93       	push	r22
    36a6:	7f 93       	push	r23
    36a8:	8f 93       	push	r24
    36aa:	9f 93       	push	r25
    36ac:	af 93       	push	r26
    36ae:	bf 93       	push	r27
    36b0:	ef 93       	push	r30
    36b2:	ff 93       	push	r31
    if(!rbuffer_empty(&p_UART0_meta->rb_tx)) {
    36b4:	80 91 ed 01 	lds	r24, 0x01ED	; 0x8001ed <p_UART0_meta>
    36b8:	90 91 ee 01 	lds	r25, 0x01EE	; 0x8001ee <p_UART0_meta+0x1>
bool rbuffer_full(volatile ringbuffer_t* rb) {
    return (rb->count == (uint8_t)RBUFFER_SIZE);
}

bool rbuffer_empty(volatile ringbuffer_t* rb) {
    return (rb->count == 0);
    36bc:	fc 01       	movw	r30, r24
    36be:	eb 57       	subi	r30, 0x7B	; 123
    36c0:	ff 4f       	sbci	r31, 0xFF	; 255
    36c2:	20 81       	ld	r18, Z
    else {
	    p_UART0_meta->usart_error = ((UCSR0A & USART_RX_ERROR_MASK) | USART_BUFFER_OVERFLOW>>8);
    }   
}
ISR(USART0_UDRE_vect) {
    if(!rbuffer_empty(&p_UART0_meta->rb_tx)) {
    36c4:	22 23       	and	r18, r18
    36c6:	31 f0       	breq	.+12     	; 0x36d4 <__vector_19+0x42>
	    UDR0 = rbuffer_remove(&p_UART0_meta->rb_tx);
    36c8:	8d 5b       	subi	r24, 0xBD	; 189
    36ca:	9f 4f       	sbci	r25, 0xFF	; 255
    36cc:	0e 94 30 1a 	call	0x3460	; 0x3460 <rbuffer_remove>
    36d0:	8c b9       	out	0x0c, r24	; 12
    36d2:	01 c0       	rjmp	.+2      	; 0x36d6 <__vector_19+0x44>
    }
    else {
	    UCSR0B &= ~(1 << UDRE);                   // Enable Tx buffer empty interrupt 
    36d4:	55 98       	cbi	0x0a, 5	; 10
    }
}
    36d6:	ff 91       	pop	r31
    36d8:	ef 91       	pop	r30
    36da:	bf 91       	pop	r27
    36dc:	af 91       	pop	r26
    36de:	9f 91       	pop	r25
    36e0:	8f 91       	pop	r24
    36e2:	7f 91       	pop	r23
    36e4:	6f 91       	pop	r22
    36e6:	5f 91       	pop	r21
    36e8:	4f 91       	pop	r20
    36ea:	3f 91       	pop	r19
    36ec:	2f 91       	pop	r18
    36ee:	0f 90       	pop	r0
    36f0:	0f be       	out	0x3f, r0	; 63
    36f2:	0f 90       	pop	r0
    36f4:	1f 90       	pop	r1
    36f6:	18 95       	reti

000036f8 <__vector_30>:
#endif

#ifdef USART1_ENABLE
ISR(USART1_RX_vect) {
    36f8:	1f 92       	push	r1
    36fa:	0f 92       	push	r0
    36fc:	0f b6       	in	r0, 0x3f	; 63
    36fe:	0f 92       	push	r0
    3700:	11 24       	eor	r1, r1
    3702:	2f 93       	push	r18
    3704:	3f 93       	push	r19
    3706:	4f 93       	push	r20
    3708:	5f 93       	push	r21
    370a:	6f 93       	push	r22
    370c:	7f 93       	push	r23
    370e:	8f 93       	push	r24
    3710:	9f 93       	push	r25
    3712:	af 93       	push	r26
    3714:	bf 93       	push	r27
    3716:	ef 93       	push	r30
    3718:	ff 93       	push	r31
	
   char	data = UDR1;
    371a:	80 91 9c 00 	lds	r24, 0x009C	; 0x80009c <__TEXT_REGION_LENGTH__+0x7f009c>
    if(!rbuffer_full(&p_UART1_meta->rb_rx)) {
    371e:	60 91 eb 01 	lds	r22, 0x01EB	; 0x8001eb <p_UART1_meta>
    3722:	70 91 ec 01 	lds	r23, 0x01EC	; 0x8001ec <p_UART1_meta+0x1>
uint8_t rbuffer_count(volatile ringbuffer_t* rb) {
    return rb->count;
}

bool rbuffer_full(volatile ringbuffer_t* rb) {
    return (rb->count == (uint8_t)RBUFFER_SIZE);
    3726:	fb 01       	movw	r30, r22
    3728:	ee 5b       	subi	r30, 0xBE	; 190
    372a:	ff 4f       	sbci	r31, 0xFF	; 255
    372c:	90 81       	ld	r25, Z

#ifdef USART1_ENABLE
ISR(USART1_RX_vect) {
	
   char	data = UDR1;
    if(!rbuffer_full(&p_UART1_meta->rb_rx)) {
    372e:	90 34       	cpi	r25, 0x40	; 64
    3730:	79 f0       	breq	.+30     	; 0x3750 <__vector_30+0x58>
	    rbuffer_insert(data, &p_UART1_meta->rb_rx);
    3732:	0e 94 1c 1a 	call	0x3438	; 0x3438 <rbuffer_insert>
	    p_UART1_meta->usart_error = UCSR1A & USART_RX_ERROR_MASK ;
    3736:	e0 91 eb 01 	lds	r30, 0x01EB	; 0x8001eb <p_UART1_meta>
    373a:	f0 91 ec 01 	lds	r31, 0x01EC	; 0x8001ec <p_UART1_meta+0x1>
    373e:	80 91 9b 00 	lds	r24, 0x009B	; 0x80009b <__TEXT_REGION_LENGTH__+0x7f009b>
    3742:	8c 71       	andi	r24, 0x1C	; 28
    3744:	90 e0       	ldi	r25, 0x00	; 0
    3746:	ea 57       	subi	r30, 0x7A	; 122
    3748:	ff 4f       	sbci	r31, 0xFF	; 255
    374a:	91 83       	std	Z+1, r25	; 0x01
    374c:	80 83       	st	Z, r24
    374e:	0a c0       	rjmp	.+20     	; 0x3764 <__vector_30+0x6c>

    }
    else {
	    p_UART1_meta->usart_error = ((UCSR1A & USART_RX_ERROR_MASK) | USART_BUFFER_OVERFLOW);
    3750:	80 91 9b 00 	lds	r24, 0x009B	; 0x80009b <__TEXT_REGION_LENGTH__+0x7f009b>
    3754:	8c 71       	andi	r24, 0x1C	; 28
    3756:	90 e0       	ldi	r25, 0x00	; 0
    3758:	91 60       	ori	r25, 0x01	; 1
    375a:	fb 01       	movw	r30, r22
    375c:	ea 57       	subi	r30, 0x7A	; 122
    375e:	ff 4f       	sbci	r31, 0xFF	; 255
    3760:	91 83       	std	Z+1, r25	; 0x01
    3762:	80 83       	st	Z, r24
    }   
}
    3764:	ff 91       	pop	r31
    3766:	ef 91       	pop	r30
    3768:	bf 91       	pop	r27
    376a:	af 91       	pop	r26
    376c:	9f 91       	pop	r25
    376e:	8f 91       	pop	r24
    3770:	7f 91       	pop	r23
    3772:	6f 91       	pop	r22
    3774:	5f 91       	pop	r21
    3776:	4f 91       	pop	r20
    3778:	3f 91       	pop	r19
    377a:	2f 91       	pop	r18
    377c:	0f 90       	pop	r0
    377e:	0f be       	out	0x3f, r0	; 63
    3780:	0f 90       	pop	r0
    3782:	1f 90       	pop	r1
    3784:	18 95       	reti

00003786 <__vector_31>:
ISR(USART1_UDRE_vect) {
    3786:	1f 92       	push	r1
    3788:	0f 92       	push	r0
    378a:	0f b6       	in	r0, 0x3f	; 63
    378c:	0f 92       	push	r0
    378e:	11 24       	eor	r1, r1
    3790:	2f 93       	push	r18
    3792:	3f 93       	push	r19
    3794:	4f 93       	push	r20
    3796:	5f 93       	push	r21
    3798:	6f 93       	push	r22
    379a:	7f 93       	push	r23
    379c:	8f 93       	push	r24
    379e:	9f 93       	push	r25
    37a0:	af 93       	push	r26
    37a2:	bf 93       	push	r27
    37a4:	ef 93       	push	r30
    37a6:	ff 93       	push	r31
    if(!rbuffer_empty(&p_UART1_meta->rb_tx)) {
    37a8:	80 91 eb 01 	lds	r24, 0x01EB	; 0x8001eb <p_UART1_meta>
    37ac:	90 91 ec 01 	lds	r25, 0x01EC	; 0x8001ec <p_UART1_meta+0x1>
bool rbuffer_full(volatile ringbuffer_t* rb) {
    return (rb->count == (uint8_t)RBUFFER_SIZE);
}

bool rbuffer_empty(volatile ringbuffer_t* rb) {
    return (rb->count == 0);
    37b0:	fc 01       	movw	r30, r24
    37b2:	eb 57       	subi	r30, 0x7B	; 123
    37b4:	ff 4f       	sbci	r31, 0xFF	; 255
    37b6:	20 81       	ld	r18, Z
    else {
	    p_UART1_meta->usart_error = ((UCSR1A & USART_RX_ERROR_MASK) | USART_BUFFER_OVERFLOW);
    }   
}
ISR(USART1_UDRE_vect) {
    if(!rbuffer_empty(&p_UART1_meta->rb_tx)) {
    37b8:	22 23       	and	r18, r18
    37ba:	39 f0       	breq	.+14     	; 0x37ca <__vector_31+0x44>
	    UDR1 = rbuffer_remove(&p_UART1_meta->rb_tx);
    37bc:	8d 5b       	subi	r24, 0xBD	; 189
    37be:	9f 4f       	sbci	r25, 0xFF	; 255
    37c0:	0e 94 30 1a 	call	0x3460	; 0x3460 <rbuffer_remove>
    37c4:	80 93 9c 00 	sts	0x009C, r24	; 0x80009c <__TEXT_REGION_LENGTH__+0x7f009c>
    37c8:	05 c0       	rjmp	.+10     	; 0x37d4 <__vector_31+0x4e>
		
    }
    else {
	    UCSR1B &= ~(1 << UDRE);                   // Enable Tx buffer empty interrupt 
    37ca:	ea e9       	ldi	r30, 0x9A	; 154
    37cc:	f0 e0       	ldi	r31, 0x00	; 0
    37ce:	80 81       	ld	r24, Z
    37d0:	8f 7d       	andi	r24, 0xDF	; 223
    37d2:	80 83       	st	Z, r24
    }
}
    37d4:	ff 91       	pop	r31
    37d6:	ef 91       	pop	r30
    37d8:	bf 91       	pop	r27
    37da:	af 91       	pop	r26
    37dc:	9f 91       	pop	r25
    37de:	8f 91       	pop	r24
    37e0:	7f 91       	pop	r23
    37e2:	6f 91       	pop	r22
    37e4:	5f 91       	pop	r21
    37e6:	4f 91       	pop	r20
    37e8:	3f 91       	pop	r19
    37ea:	2f 91       	pop	r18
    37ec:	0f 90       	pop	r0
    37ee:	0f be       	out	0x3f, r0	; 63
    37f0:	0f 90       	pop	r0
    37f2:	1f 90       	pop	r1
    37f4:	18 95       	reti

000037f6 <UARTvprintf>:
//! \return None.
//
//*****************************************************************************
void
UARTvprintf(const char *pcString, va_list vaArgP)
{
    37f6:	2f 92       	push	r2
    37f8:	3f 92       	push	r3
    37fa:	4f 92       	push	r4
    37fc:	5f 92       	push	r5
    37fe:	6f 92       	push	r6
    3800:	7f 92       	push	r7
    3802:	8f 92       	push	r8
    3804:	9f 92       	push	r9
    3806:	af 92       	push	r10
    3808:	bf 92       	push	r11
    380a:	cf 92       	push	r12
    380c:	df 92       	push	r13
    380e:	ef 92       	push	r14
    3810:	ff 92       	push	r15
    3812:	0f 93       	push	r16
    3814:	1f 93       	push	r17
    3816:	cf 93       	push	r28
    3818:	df 93       	push	r29
    381a:	cd b7       	in	r28, 0x3d	; 61
    381c:	de b7       	in	r29, 0x3e	; 62
    381e:	aa 97       	sbiw	r28, 0x2a	; 42
    3820:	0f b6       	in	r0, 0x3f	; 63
    3822:	f8 94       	cli
    3824:	de bf       	out	0x3e, r29	; 62
    3826:	0f be       	out	0x3f, r0	; 63
    3828:	cd bf       	out	0x3d, r28	; 61
    382a:	8c 01       	movw	r16, r24
    382c:	7a a7       	std	Y+42, r23	; 0x2a
    382e:	69 a7       	std	Y+41, r22	; 0x29
                    //
                    // Convert the value into a string.
                    //
                    for(; ui32Idx; ui32Idx /= ui32Base)
                    {
                        pcBuf[ui32Pos++] =
    3830:	6e 01       	movw	r12, r28
    3832:	89 e1       	ldi	r24, 0x19	; 25
    3834:	c8 0e       	add	r12, r24
    3836:	d1 1c       	adc	r13, r1
    3838:	2c 2c       	mov	r2, r12
    383a:	3d 2c       	mov	r3, r13
    char *pcStr, pcBuf[16], cFill;

    //
    // Loop while there are more characters in the string.
    //
    while(*pcString)
    383c:	17 c3       	rjmp	.+1582   	; 0x3e6c <UARTvprintf+0x676>
    {
        //
        // Find the first non-% character, or the end of the string.
        //
        for(ui32Idx = 0;
    383e:	19 82       	std	Y+1, r1	; 0x01
    3840:	1a 82       	std	Y+2, r1	; 0x02
    3842:	1b 82       	std	Y+3, r1	; 0x03
    3844:	1c 82       	std	Y+4, r1	; 0x04
            (pcString[ui32Idx] != '%') && (pcString[ui32Idx] != '\0');
    3846:	89 81       	ldd	r24, Y+1	; 0x01
    3848:	9a 81       	ldd	r25, Y+2	; 0x02
    384a:	ab 81       	ldd	r26, Y+3	; 0x03
    384c:	bc 81       	ldd	r27, Y+4	; 0x04
    384e:	f8 01       	movw	r30, r16
    3850:	e8 0f       	add	r30, r24
    3852:	f9 1f       	adc	r31, r25
    while(*pcString)
    {
        //
        // Find the first non-% character, or the end of the string.
        //
        for(ui32Idx = 0;
    3854:	80 81       	ld	r24, Z
    3856:	85 32       	cpi	r24, 0x25	; 37
    3858:	49 f1       	breq	.+82     	; 0x38ac <UARTvprintf+0xb6>
            (pcString[ui32Idx] != '%') && (pcString[ui32Idx] != '\0');
    385a:	89 81       	ldd	r24, Y+1	; 0x01
    385c:	9a 81       	ldd	r25, Y+2	; 0x02
    385e:	ab 81       	ldd	r26, Y+3	; 0x03
    3860:	bc 81       	ldd	r27, Y+4	; 0x04
    3862:	f8 01       	movw	r30, r16
    3864:	e8 0f       	add	r30, r24
    3866:	f9 1f       	adc	r31, r25
    3868:	80 81       	ld	r24, Z
    386a:	88 23       	and	r24, r24
    386c:	f9 f0       	breq	.+62     	; 0x38ac <UARTvprintf+0xb6>
            ui32Idx++)
    386e:	89 81       	ldd	r24, Y+1	; 0x01
    3870:	9a 81       	ldd	r25, Y+2	; 0x02
    3872:	ab 81       	ldd	r26, Y+3	; 0x03
    3874:	bc 81       	ldd	r27, Y+4	; 0x04
    3876:	01 96       	adiw	r24, 0x01	; 1
    3878:	a1 1d       	adc	r26, r1
    387a:	b1 1d       	adc	r27, r1
    387c:	89 83       	std	Y+1, r24	; 0x01
    387e:	9a 83       	std	Y+2, r25	; 0x02
    3880:	ab 83       	std	Y+3, r26	; 0x03
    3882:	bc 83       	std	Y+4, r27	; 0x04
    {
        //
        // Find the first non-% character, or the end of the string.
        //
        for(ui32Idx = 0;
            (pcString[ui32Idx] != '%') && (pcString[ui32Idx] != '\0');
    3884:	89 81       	ldd	r24, Y+1	; 0x01
    3886:	9a 81       	ldd	r25, Y+2	; 0x02
    3888:	ab 81       	ldd	r26, Y+3	; 0x03
    388a:	bc 81       	ldd	r27, Y+4	; 0x04
    388c:	f8 01       	movw	r30, r16
    388e:	e8 0f       	add	r30, r24
    3890:	f9 1f       	adc	r31, r25
    while(*pcString)
    {
        //
        // Find the first non-% character, or the end of the string.
        //
        for(ui32Idx = 0;
    3892:	80 81       	ld	r24, Z
    3894:	85 32       	cpi	r24, 0x25	; 37
    3896:	51 f0       	breq	.+20     	; 0x38ac <UARTvprintf+0xb6>
            (pcString[ui32Idx] != '%') && (pcString[ui32Idx] != '\0');
    3898:	89 81       	ldd	r24, Y+1	; 0x01
    389a:	9a 81       	ldd	r25, Y+2	; 0x02
    389c:	ab 81       	ldd	r26, Y+3	; 0x03
    389e:	bc 81       	ldd	r27, Y+4	; 0x04
    38a0:	f8 01       	movw	r30, r16
    38a2:	e8 0f       	add	r30, r24
    38a4:	f9 1f       	adc	r31, r25
    38a6:	80 81       	ld	r24, Z
    38a8:	81 11       	cpse	r24, r1
    38aa:	e1 cf       	rjmp	.-62     	; 0x386e <UARTvprintf+0x78>
        }

        //
        // Write this portion of the string.
        //
        CONSOLE_UART_WRITE(pcString, ui32Idx);
    38ac:	69 81       	ldd	r22, Y+1	; 0x01
    38ae:	7a 81       	ldd	r23, Y+2	; 0x02
    38b0:	8b 81       	ldd	r24, Y+3	; 0x03
    38b2:	9c 81       	ldd	r25, Y+4	; 0x04
    38b4:	c8 01       	movw	r24, r16
    38b6:	0e 94 80 1a 	call	0x3500	; 0x3500 <usart0_send_array>

        //
        // Skip the portion of the string that was written.
        //
        pcString += ui32Idx;
    38ba:	89 81       	ldd	r24, Y+1	; 0x01
    38bc:	9a 81       	ldd	r25, Y+2	; 0x02
    38be:	ab 81       	ldd	r26, Y+3	; 0x03
    38c0:	bc 81       	ldd	r27, Y+4	; 0x04
    38c2:	08 0f       	add	r16, r24
    38c4:	19 1f       	adc	r17, r25

        //
        // See if the next character is a %.
        //
        if(*pcString == '%')
    38c6:	d8 01       	movw	r26, r16
    38c8:	8c 91       	ld	r24, X
    38ca:	85 32       	cpi	r24, 0x25	; 37
    38cc:	09 f0       	breq	.+2      	; 0x38d0 <UARTvprintf+0xda>
    38ce:	ce c2       	rjmp	.+1436   	; 0x3e6c <UARTvprintf+0x676>
        {
            //
            // Skip the %.
            //
            pcString++;
    38d0:	11 96       	adiw	r26, 0x01	; 1

            //
            // Set the digit count to zero, and the fill character to space
            // (in other words, to the defaults).
            //
            ui32Count = 0;
    38d2:	1d 86       	std	Y+13, r1	; 0x0d
    38d4:	1e 86       	std	Y+14, r1	; 0x0e
    38d6:	1f 86       	std	Y+15, r1	; 0x0f
    38d8:	18 8a       	std	Y+16, r1	; 0x10
            cFill = ' ';
    38da:	68 94       	set
    38dc:	ff 24       	eor	r15, r15
    38de:	f5 f8       	bld	r15, 5
again:

            //
            // Determine how to handle the next character.
            //
            switch(*pcString++)
    38e0:	8d 01       	movw	r16, r26
    38e2:	0f 5f       	subi	r16, 0xFF	; 255
    38e4:	1f 4f       	sbci	r17, 0xFF	; 255
    38e6:	2c 91       	ld	r18, X
    38e8:	42 2f       	mov	r20, r18
    38ea:	02 2e       	mov	r0, r18
    38ec:	00 0c       	add	r0, r0
    38ee:	55 0b       	sbc	r21, r21
    38f0:	66 0b       	sbc	r22, r22
    38f2:	77 0b       	sbc	r23, r23
    38f4:	fa 01       	movw	r30, r20
    38f6:	b5 97       	sbiw	r30, 0x25	; 37
    38f8:	e4 35       	cpi	r30, 0x54	; 84
    38fa:	f1 05       	cpc	r31, r1
    38fc:	08 f0       	brcs	.+2      	; 0x3900 <UARTvprintf+0x10a>
    38fe:	ab c2       	rjmp	.+1366   	; 0x3e56 <UARTvprintf+0x660>
    3900:	ee 5d       	subi	r30, 0xDE	; 222
    3902:	fe 4f       	sbci	r31, 0xFE	; 254
    3904:	0c 94 56 2f 	jmp	0x5eac	; 0x5eac <__tablejump2__>
                {
                    //
                    // If this is a zero, and it is the first digit, then the
                    // fill character is a zero instead of a space.
                    //
                    if((pcString[-1] == '0') && (ui32Count == 0))
    3908:	20 33       	cpi	r18, 0x30	; 48
    390a:	61 f4       	brne	.+24     	; 0x3924 <UARTvprintf+0x12e>
    390c:	8d 85       	ldd	r24, Y+13	; 0x0d
    390e:	9e 85       	ldd	r25, Y+14	; 0x0e
    3910:	af 85       	ldd	r26, Y+15	; 0x0f
    3912:	b8 89       	ldd	r27, Y+16	; 0x10
    3914:	89 2b       	or	r24, r25
    3916:	8a 2b       	or	r24, r26
    3918:	8b 2b       	or	r24, r27
    391a:	21 f4       	brne	.+8      	; 0x3924 <UARTvprintf+0x12e>
                    {
                        cFill = '0';
    391c:	0f 2e       	mov	r0, r31
    391e:	f0 e3       	ldi	r31, 0x30	; 48
    3920:	ff 2e       	mov	r15, r31
    3922:	f0 2d       	mov	r31, r0
                    }

                    //
                    // Update the digit count.
                    //
                    ui32Count *= 10;
    3924:	8d 85       	ldd	r24, Y+13	; 0x0d
    3926:	9e 85       	ldd	r25, Y+14	; 0x0e
    3928:	af 85       	ldd	r26, Y+15	; 0x0f
    392a:	b8 89       	ldd	r27, Y+16	; 0x10
    392c:	88 0f       	add	r24, r24
    392e:	99 1f       	adc	r25, r25
    3930:	aa 1f       	adc	r26, r26
    3932:	bb 1f       	adc	r27, r27
    3934:	ac 01       	movw	r20, r24
    3936:	bd 01       	movw	r22, r26
    3938:	44 0f       	add	r20, r20
    393a:	55 1f       	adc	r21, r21
    393c:	66 1f       	adc	r22, r22
    393e:	77 1f       	adc	r23, r23
    3940:	44 0f       	add	r20, r20
    3942:	55 1f       	adc	r21, r21
    3944:	66 1f       	adc	r22, r22
    3946:	77 1f       	adc	r23, r23
    3948:	84 0f       	add	r24, r20
    394a:	95 1f       	adc	r25, r21
    394c:	a6 1f       	adc	r26, r22
    394e:	b7 1f       	adc	r27, r23
    3950:	8d 87       	std	Y+13, r24	; 0x0d
    3952:	9e 87       	std	Y+14, r25	; 0x0e
    3954:	af 87       	std	Y+15, r26	; 0x0f
    3956:	b8 8b       	std	Y+16, r27	; 0x10
                    ui32Count += pcString[-1] - '0';
    3958:	4d 85       	ldd	r20, Y+13	; 0x0d
    395a:	5e 85       	ldd	r21, Y+14	; 0x0e
    395c:	6f 85       	ldd	r22, Y+15	; 0x0f
    395e:	78 89       	ldd	r23, Y+16	; 0x10
    3960:	02 2e       	mov	r0, r18
    3962:	00 0c       	add	r0, r0
    3964:	33 0b       	sbc	r19, r19
    3966:	c9 01       	movw	r24, r18
    3968:	c0 97       	sbiw	r24, 0x30	; 48
    396a:	09 2e       	mov	r0, r25
    396c:	00 0c       	add	r0, r0
    396e:	aa 0b       	sbc	r26, r26
    3970:	bb 0b       	sbc	r27, r27
    3972:	84 0f       	add	r24, r20
    3974:	95 1f       	adc	r25, r21
    3976:	a6 1f       	adc	r26, r22
    3978:	b7 1f       	adc	r27, r23
    397a:	8d 87       	std	Y+13, r24	; 0x0d
    397c:	9e 87       	std	Y+14, r25	; 0x0e
    397e:	af 87       	std	Y+15, r26	; 0x0f
    3980:	b8 8b       	std	Y+16, r27	; 0x10
again:

            //
            // Determine how to handle the next character.
            //
            switch(*pcString++)
    3982:	d8 01       	movw	r26, r16
                    ui32Count += pcString[-1] - '0';

                    //
                    // Get the next character.
                    //
                    goto again;
    3984:	ad cf       	rjmp	.-166    	; 0x38e0 <UARTvprintf+0xea>
                case 'c':
                {
                    //
                    // Get the value from the varargs.
                    //
                    ui32Value = va_arg(vaArgP, uint32_t);
    3986:	e9 a4       	ldd	r14, Y+41	; 0x29
    3988:	fa a4       	ldd	r15, Y+42	; 0x2a
    398a:	b4 e0       	ldi	r27, 0x04	; 4
    398c:	eb 0e       	add	r14, r27
    398e:	f1 1c       	adc	r15, r1
    3990:	e9 a5       	ldd	r30, Y+41	; 0x29
    3992:	fa a5       	ldd	r31, Y+42	; 0x2a
    3994:	80 81       	ld	r24, Z
    3996:	91 81       	ldd	r25, Z+1	; 0x01
    3998:	a2 81       	ldd	r26, Z+2	; 0x02
    399a:	b3 81       	ldd	r27, Z+3	; 0x03
    399c:	8d 83       	std	Y+5, r24	; 0x05
    399e:	9e 83       	std	Y+6, r25	; 0x06
    39a0:	af 83       	std	Y+7, r26	; 0x07
    39a2:	b8 87       	std	Y+8, r27	; 0x08

                    //
                    // Print out the character.
                    //
                    CONSOLE_UART_WRITE((char *)&ui32Value, 1);
    39a4:	61 e0       	ldi	r22, 0x01	; 1
    39a6:	ce 01       	movw	r24, r28
    39a8:	05 96       	adiw	r24, 0x05	; 5
    39aa:	0e 94 80 1a 	call	0x3500	; 0x3500 <usart0_send_array>
                case 'c':
                {
                    //
                    // Get the value from the varargs.
                    //
                    ui32Value = va_arg(vaArgP, uint32_t);
    39ae:	fa a6       	std	Y+42, r15	; 0x2a
    39b0:	e9 a6       	std	Y+41, r14	; 0x29
                    CONSOLE_UART_WRITE((char *)&ui32Value, 1);

                    //
                    // This command has been handled.
                    //
                    break;
    39b2:	5c c2       	rjmp	.+1208   	; 0x3e6c <UARTvprintf+0x676>
                case 'i':
                {
                    //
                    // Get the value from the varargs.
                    //
                    ui32Value = va_arg(vaArgP, uint16_t);
    39b4:	29 a5       	ldd	r18, Y+41	; 0x29
    39b6:	3a a5       	ldd	r19, Y+42	; 0x2a
    39b8:	2e 5f       	subi	r18, 0xFE	; 254
    39ba:	3f 4f       	sbci	r19, 0xFF	; 255
    39bc:	a9 a5       	ldd	r26, Y+41	; 0x29
    39be:	ba a5       	ldd	r27, Y+42	; 0x2a
    39c0:	8d 91       	ld	r24, X+
    39c2:	9c 91       	ld	r25, X
    39c4:	a0 e0       	ldi	r26, 0x00	; 0
    39c6:	b0 e0       	ldi	r27, 0x00	; 0
    39c8:	8d 83       	std	Y+5, r24	; 0x05
    39ca:	9e 83       	std	Y+6, r25	; 0x06
    39cc:	af 83       	std	Y+7, r26	; 0x07
    39ce:	b8 87       	std	Y+8, r27	; 0x08

                    //
                    // Reset the buffer position.
                    //
                    ui32Pos = 0;
    39d0:	19 86       	std	Y+9, r1	; 0x09
    39d2:	1a 86       	std	Y+10, r1	; 0x0a
    39d4:	1b 86       	std	Y+11, r1	; 0x0b
    39d6:	1c 86       	std	Y+12, r1	; 0x0c

                    //
                    // If the value is negative, make it positive and indicate
                    // that a minus sign is needed.
                    //
                    if((int32_t)ui32Value < 0)
    39d8:	8d 81       	ldd	r24, Y+5	; 0x05
    39da:	9e 81       	ldd	r25, Y+6	; 0x06
    39dc:	af 81       	ldd	r26, Y+7	; 0x07
    39de:	b8 85       	ldd	r27, Y+8	; 0x08
    39e0:	bb 23       	and	r27, r27
    39e2:	c4 f4       	brge	.+48     	; 0x3a14 <UARTvprintf+0x21e>
                    {
                        //
                        // Make the value positive.
                        //
                        ui32Value = -(int32_t)ui32Value;
    39e4:	8d 81       	ldd	r24, Y+5	; 0x05
    39e6:	9e 81       	ldd	r25, Y+6	; 0x06
    39e8:	af 81       	ldd	r26, Y+7	; 0x07
    39ea:	b8 85       	ldd	r27, Y+8	; 0x08
    39ec:	b0 95       	com	r27
    39ee:	a0 95       	com	r26
    39f0:	90 95       	com	r25
    39f2:	81 95       	neg	r24
    39f4:	9f 4f       	sbci	r25, 0xFF	; 255
    39f6:	af 4f       	sbci	r26, 0xFF	; 255
    39f8:	bf 4f       	sbci	r27, 0xFF	; 255
    39fa:	8d 83       	std	Y+5, r24	; 0x05
    39fc:	9e 83       	std	Y+6, r25	; 0x06
    39fe:	af 83       	std	Y+7, r26	; 0x07
    3a00:	b8 87       	std	Y+8, r27	; 0x08

                        //
                        // Indicate that the value is negative.
                        //
                        ui32Neg = 1;
    3a02:	81 e0       	ldi	r24, 0x01	; 1
    3a04:	90 e0       	ldi	r25, 0x00	; 0
    3a06:	a0 e0       	ldi	r26, 0x00	; 0
    3a08:	b0 e0       	ldi	r27, 0x00	; 0
    3a0a:	8d 8b       	std	Y+21, r24	; 0x15
    3a0c:	9e 8b       	std	Y+22, r25	; 0x16
    3a0e:	af 8b       	std	Y+23, r26	; 0x17
    3a10:	b8 8f       	std	Y+24, r27	; 0x18
    3a12:	04 c0       	rjmp	.+8      	; 0x3a1c <UARTvprintf+0x226>
                    {
                        //
                        // Indicate that the value is positive so that a minus
                        // sign isn't inserted.
                        //
                        ui32Neg = 0;
    3a14:	1d 8a       	std	Y+21, r1	; 0x15
    3a16:	1e 8a       	std	Y+22, r1	; 0x16
    3a18:	1f 8a       	std	Y+23, r1	; 0x17
    3a1a:	18 8e       	std	Y+24, r1	; 0x18
                    }

                    //
                    // Set the base to 10.
                    //
                    ui32Base = 10;
    3a1c:	8a e0       	ldi	r24, 0x0A	; 10
    3a1e:	90 e0       	ldi	r25, 0x00	; 0
    3a20:	a0 e0       	ldi	r26, 0x00	; 0
    3a22:	b0 e0       	ldi	r27, 0x00	; 0
    3a24:	89 8b       	std	Y+17, r24	; 0x11
    3a26:	9a 8b       	std	Y+18, r25	; 0x12
    3a28:	ab 8b       	std	Y+19, r26	; 0x13
    3a2a:	bc 8b       	std	Y+20, r27	; 0x14
                case 'i':
                {
                    //
                    // Get the value from the varargs.
                    //
                    ui32Value = va_arg(vaArgP, uint16_t);
    3a2c:	3a a7       	std	Y+42, r19	; 0x2a
    3a2e:	29 a7       	std	Y+41, r18	; 0x29
                    ui32Base = 10;

                    //
                    // Convert the value to ASCII.
                    //
                    goto convert;
    3a30:	bc c0       	rjmp	.+376    	; 0x3baa <UARTvprintf+0x3b4>
                case 's':
                {
                    //
                    // Get the string pointer from the varargs.
                    //
                    pcStr = va_arg(vaArgP, char *);
    3a32:	e9 a4       	ldd	r14, Y+41	; 0x29
    3a34:	fa a4       	ldd	r15, Y+42	; 0x2a
    3a36:	92 e0       	ldi	r25, 0x02	; 2
    3a38:	e9 0e       	add	r14, r25
    3a3a:	f1 1c       	adc	r15, r1
    3a3c:	a9 a5       	ldd	r26, Y+41	; 0x29
    3a3e:	ba a5       	ldd	r27, Y+42	; 0x2a
    3a40:	8d 91       	ld	r24, X+
    3a42:	9c 91       	ld	r25, X

                    //
                    // Determine the length of the string.
                    //
                    for(ui32Idx = 0; pcStr[ui32Idx] != '\0'; ui32Idx++)
    3a44:	19 82       	std	Y+1, r1	; 0x01
    3a46:	1a 82       	std	Y+2, r1	; 0x02
    3a48:	1b 82       	std	Y+3, r1	; 0x03
    3a4a:	1c 82       	std	Y+4, r1	; 0x04
    3a4c:	49 81       	ldd	r20, Y+1	; 0x01
    3a4e:	5a 81       	ldd	r21, Y+2	; 0x02
    3a50:	6b 81       	ldd	r22, Y+3	; 0x03
    3a52:	7c 81       	ldd	r23, Y+4	; 0x04
    3a54:	fc 01       	movw	r30, r24
    3a56:	e4 0f       	add	r30, r20
    3a58:	f5 1f       	adc	r31, r21
    3a5a:	20 81       	ld	r18, Z
    3a5c:	22 23       	and	r18, r18
    3a5e:	b1 f0       	breq	.+44     	; 0x3a8c <UARTvprintf+0x296>
    3a60:	49 81       	ldd	r20, Y+1	; 0x01
    3a62:	5a 81       	ldd	r21, Y+2	; 0x02
    3a64:	6b 81       	ldd	r22, Y+3	; 0x03
    3a66:	7c 81       	ldd	r23, Y+4	; 0x04
    3a68:	4f 5f       	subi	r20, 0xFF	; 255
    3a6a:	5f 4f       	sbci	r21, 0xFF	; 255
    3a6c:	6f 4f       	sbci	r22, 0xFF	; 255
    3a6e:	7f 4f       	sbci	r23, 0xFF	; 255
    3a70:	49 83       	std	Y+1, r20	; 0x01
    3a72:	5a 83       	std	Y+2, r21	; 0x02
    3a74:	6b 83       	std	Y+3, r22	; 0x03
    3a76:	7c 83       	std	Y+4, r23	; 0x04
    3a78:	49 81       	ldd	r20, Y+1	; 0x01
    3a7a:	5a 81       	ldd	r21, Y+2	; 0x02
    3a7c:	6b 81       	ldd	r22, Y+3	; 0x03
    3a7e:	7c 81       	ldd	r23, Y+4	; 0x04
    3a80:	fc 01       	movw	r30, r24
    3a82:	e4 0f       	add	r30, r20
    3a84:	f5 1f       	adc	r31, r21
    3a86:	20 81       	ld	r18, Z
    3a88:	21 11       	cpse	r18, r1
    3a8a:	ea cf       	rjmp	.-44     	; 0x3a60 <UARTvprintf+0x26a>
                    }

                    //
                    // Write the string.
                    //
                    CONSOLE_UART_WRITE(pcStr, ui32Idx);
    3a8c:	49 81       	ldd	r20, Y+1	; 0x01
    3a8e:	5a 81       	ldd	r21, Y+2	; 0x02
    3a90:	6b 81       	ldd	r22, Y+3	; 0x03
    3a92:	7c 81       	ldd	r23, Y+4	; 0x04
    3a94:	64 2f       	mov	r22, r20
    3a96:	0e 94 80 1a 	call	0x3500	; 0x3500 <usart0_send_array>

                    //
                    // Write any required padding spaces
                    //
                    if(ui32Count > ui32Idx)
    3a9a:	4d 85       	ldd	r20, Y+13	; 0x0d
    3a9c:	5e 85       	ldd	r21, Y+14	; 0x0e
    3a9e:	6f 85       	ldd	r22, Y+15	; 0x0f
    3aa0:	78 89       	ldd	r23, Y+16	; 0x10
    3aa2:	89 81       	ldd	r24, Y+1	; 0x01
    3aa4:	9a 81       	ldd	r25, Y+2	; 0x02
    3aa6:	ab 81       	ldd	r26, Y+3	; 0x03
    3aa8:	bc 81       	ldd	r27, Y+4	; 0x04
    3aaa:	84 17       	cp	r24, r20
    3aac:	95 07       	cpc	r25, r21
    3aae:	a6 07       	cpc	r26, r22
    3ab0:	b7 07       	cpc	r27, r23
    3ab2:	08 f0       	brcs	.+2      	; 0x3ab6 <UARTvprintf+0x2c0>
    3ab4:	d6 c1       	rjmp	.+940    	; 0x3e62 <UARTvprintf+0x66c>
                    {
                        ui32Count -= ui32Idx;
    3ab6:	49 81       	ldd	r20, Y+1	; 0x01
    3ab8:	5a 81       	ldd	r21, Y+2	; 0x02
    3aba:	6b 81       	ldd	r22, Y+3	; 0x03
    3abc:	7c 81       	ldd	r23, Y+4	; 0x04
    3abe:	8d 85       	ldd	r24, Y+13	; 0x0d
    3ac0:	9e 85       	ldd	r25, Y+14	; 0x0e
    3ac2:	af 85       	ldd	r26, Y+15	; 0x0f
    3ac4:	b8 89       	ldd	r27, Y+16	; 0x10
    3ac6:	84 1b       	sub	r24, r20
    3ac8:	95 0b       	sbc	r25, r21
    3aca:	a6 0b       	sbc	r26, r22
    3acc:	b7 0b       	sbc	r27, r23
    3ace:	8d 87       	std	Y+13, r24	; 0x0d
    3ad0:	9e 87       	std	Y+14, r25	; 0x0e
    3ad2:	af 87       	std	Y+15, r26	; 0x0f
    3ad4:	b8 8b       	std	Y+16, r27	; 0x10
                        while(ui32Count--)
    3ad6:	8d 85       	ldd	r24, Y+13	; 0x0d
    3ad8:	9e 85       	ldd	r25, Y+14	; 0x0e
    3ada:	af 85       	ldd	r26, Y+15	; 0x0f
    3adc:	b8 89       	ldd	r27, Y+16	; 0x10
    3ade:	ac 01       	movw	r20, r24
    3ae0:	bd 01       	movw	r22, r26
    3ae2:	41 50       	subi	r20, 0x01	; 1
    3ae4:	51 09       	sbc	r21, r1
    3ae6:	61 09       	sbc	r22, r1
    3ae8:	71 09       	sbc	r23, r1
    3aea:	4d 87       	std	Y+13, r20	; 0x0d
    3aec:	5e 87       	std	Y+14, r21	; 0x0e
    3aee:	6f 87       	std	Y+15, r22	; 0x0f
    3af0:	78 8b       	std	Y+16, r23	; 0x10
    3af2:	89 2b       	or	r24, r25
    3af4:	8a 2b       	or	r24, r26
    3af6:	8b 2b       	or	r24, r27
    3af8:	09 f4       	brne	.+2      	; 0x3afc <UARTvprintf+0x306>
    3afa:	b6 c1       	rjmp	.+876    	; 0x3e68 <UARTvprintf+0x672>
                        {
                            CONSOLE_UART_WRITE(" ", 1);
    3afc:	61 e0       	ldi	r22, 0x01	; 1
    3afe:	80 e3       	ldi	r24, 0x30	; 48
    3b00:	9a e0       	ldi	r25, 0x0A	; 10
    3b02:	0e 94 80 1a 	call	0x3500	; 0x3500 <usart0_send_array>
                    // Write any required padding spaces
                    //
                    if(ui32Count > ui32Idx)
                    {
                        ui32Count -= ui32Idx;
                        while(ui32Count--)
    3b06:	8d 85       	ldd	r24, Y+13	; 0x0d
    3b08:	9e 85       	ldd	r25, Y+14	; 0x0e
    3b0a:	af 85       	ldd	r26, Y+15	; 0x0f
    3b0c:	b8 89       	ldd	r27, Y+16	; 0x10
    3b0e:	ac 01       	movw	r20, r24
    3b10:	bd 01       	movw	r22, r26
    3b12:	41 50       	subi	r20, 0x01	; 1
    3b14:	51 09       	sbc	r21, r1
    3b16:	61 09       	sbc	r22, r1
    3b18:	71 09       	sbc	r23, r1
    3b1a:	4d 87       	std	Y+13, r20	; 0x0d
    3b1c:	5e 87       	std	Y+14, r21	; 0x0e
    3b1e:	6f 87       	std	Y+15, r22	; 0x0f
    3b20:	78 8b       	std	Y+16, r23	; 0x10
    3b22:	89 2b       	or	r24, r25
    3b24:	8a 2b       	or	r24, r26
    3b26:	8b 2b       	or	r24, r27
    3b28:	49 f7       	brne	.-46     	; 0x3afc <UARTvprintf+0x306>
                case 's':
                {
                    //
                    // Get the string pointer from the varargs.
                    //
                    pcStr = va_arg(vaArgP, char *);
    3b2a:	fa a6       	std	Y+42, r15	; 0x2a
    3b2c:	e9 a6       	std	Y+41, r14	; 0x29
    3b2e:	9e c1       	rjmp	.+828    	; 0x3e6c <UARTvprintf+0x676>
                case 'u':
                {
                    //
                    // Get the value from the varargs.
                    //
                    ui32Value = va_arg(vaArgP, uint16_t);
    3b30:	e9 a5       	ldd	r30, Y+41	; 0x29
    3b32:	fa a5       	ldd	r31, Y+42	; 0x2a
    3b34:	80 81       	ld	r24, Z
    3b36:	91 81       	ldd	r25, Z+1	; 0x01
    3b38:	a0 e0       	ldi	r26, 0x00	; 0
    3b3a:	b0 e0       	ldi	r27, 0x00	; 0
    3b3c:	8d 83       	std	Y+5, r24	; 0x05
    3b3e:	9e 83       	std	Y+6, r25	; 0x06
    3b40:	af 83       	std	Y+7, r26	; 0x07
    3b42:	b8 87       	std	Y+8, r27	; 0x08

                    //
                    // Reset the buffer position.
                    //
                    ui32Pos = 0;
    3b44:	19 86       	std	Y+9, r1	; 0x09
    3b46:	1a 86       	std	Y+10, r1	; 0x0a
    3b48:	1b 86       	std	Y+11, r1	; 0x0b
    3b4a:	1c 86       	std	Y+12, r1	; 0x0c

                    //
                    // Set the base to 10.
                    //
                    ui32Base = 10;
    3b4c:	8a e0       	ldi	r24, 0x0A	; 10
    3b4e:	90 e0       	ldi	r25, 0x00	; 0
    3b50:	a0 e0       	ldi	r26, 0x00	; 0
    3b52:	b0 e0       	ldi	r27, 0x00	; 0
    3b54:	89 8b       	std	Y+17, r24	; 0x11
    3b56:	9a 8b       	std	Y+18, r25	; 0x12
    3b58:	ab 8b       	std	Y+19, r26	; 0x13
    3b5a:	bc 8b       	std	Y+20, r27	; 0x14

                    //
                    // Indicate that the value is positive so that a minus sign
                    // isn't inserted.
                    //
                    ui32Neg = 0;
    3b5c:	1d 8a       	std	Y+21, r1	; 0x15
    3b5e:	1e 8a       	std	Y+22, r1	; 0x16
    3b60:	1f 8a       	std	Y+23, r1	; 0x17
    3b62:	18 8e       	std	Y+24, r1	; 0x18
                case 'u':
                {
                    //
                    // Get the value from the varargs.
                    //
                    ui32Value = va_arg(vaArgP, uint16_t);
    3b64:	32 96       	adiw	r30, 0x02	; 2
    3b66:	fa a7       	std	Y+42, r31	; 0x2a
    3b68:	e9 a7       	std	Y+41, r30	; 0x29
                    ui32Neg = 0;

                    //
                    // Convert the value to ASCII.
                    //
                    goto convert;
    3b6a:	1f c0       	rjmp	.+62     	; 0x3baa <UARTvprintf+0x3b4>
                case 'p':
                {
                    //
                    // Get the value from the varargs.
                    //
                    ui32Value = va_arg(vaArgP, uint16_t);
    3b6c:	a9 a5       	ldd	r26, Y+41	; 0x29
    3b6e:	ba a5       	ldd	r27, Y+42	; 0x2a
    3b70:	8d 91       	ld	r24, X+
    3b72:	9c 91       	ld	r25, X
    3b74:	a0 e0       	ldi	r26, 0x00	; 0
    3b76:	b0 e0       	ldi	r27, 0x00	; 0
    3b78:	8d 83       	std	Y+5, r24	; 0x05
    3b7a:	9e 83       	std	Y+6, r25	; 0x06
    3b7c:	af 83       	std	Y+7, r26	; 0x07
    3b7e:	b8 87       	std	Y+8, r27	; 0x08

                    //
                    // Reset the buffer position.
                    //
                    ui32Pos = 0;
    3b80:	19 86       	std	Y+9, r1	; 0x09
    3b82:	1a 86       	std	Y+10, r1	; 0x0a
    3b84:	1b 86       	std	Y+11, r1	; 0x0b
    3b86:	1c 86       	std	Y+12, r1	; 0x0c

                    //
                    // Set the base to 16.
                    //
                    ui32Base = 16;
    3b88:	80 e1       	ldi	r24, 0x10	; 16
    3b8a:	90 e0       	ldi	r25, 0x00	; 0
    3b8c:	a0 e0       	ldi	r26, 0x00	; 0
    3b8e:	b0 e0       	ldi	r27, 0x00	; 0
    3b90:	89 8b       	std	Y+17, r24	; 0x11
    3b92:	9a 8b       	std	Y+18, r25	; 0x12
    3b94:	ab 8b       	std	Y+19, r26	; 0x13
    3b96:	bc 8b       	std	Y+20, r27	; 0x14

                    //
                    // Indicate that the value is positive so that a minus sign
                    // isn't inserted.
                    //
                    ui32Neg = 0;
    3b98:	1d 8a       	std	Y+21, r1	; 0x15
    3b9a:	1e 8a       	std	Y+22, r1	; 0x16
    3b9c:	1f 8a       	std	Y+23, r1	; 0x17
    3b9e:	18 8e       	std	Y+24, r1	; 0x18
                case 'p':
                {
                    //
                    // Get the value from the varargs.
                    //
                    ui32Value = va_arg(vaArgP, uint16_t);
    3ba0:	a9 a5       	ldd	r26, Y+41	; 0x29
    3ba2:	ba a5       	ldd	r27, Y+42	; 0x2a
    3ba4:	12 96       	adiw	r26, 0x02	; 2
    3ba6:	ba a7       	std	Y+42, r27	; 0x2a
    3ba8:	a9 a7       	std	Y+41, r26	; 0x29
                    //
                    // Determine the number of digits in the string version of
                    // the value.
                    //
convert:
                    for(ui32Idx = 1;
    3baa:	81 e0       	ldi	r24, 0x01	; 1
    3bac:	90 e0       	ldi	r25, 0x00	; 0
    3bae:	a0 e0       	ldi	r26, 0x00	; 0
    3bb0:	b0 e0       	ldi	r27, 0x00	; 0
    3bb2:	89 83       	std	Y+1, r24	; 0x01
    3bb4:	9a 83       	std	Y+2, r25	; 0x02
    3bb6:	ab 83       	std	Y+3, r26	; 0x03
    3bb8:	bc 83       	std	Y+4, r27	; 0x04
                        (((ui32Idx * ui32Base) <= ui32Value) &&
    3bba:	29 81       	ldd	r18, Y+1	; 0x01
    3bbc:	3a 81       	ldd	r19, Y+2	; 0x02
    3bbe:	4b 81       	ldd	r20, Y+3	; 0x03
    3bc0:	5c 81       	ldd	r21, Y+4	; 0x04
    3bc2:	69 89       	ldd	r22, Y+17	; 0x11
    3bc4:	7a 89       	ldd	r23, Y+18	; 0x12
    3bc6:	8b 89       	ldd	r24, Y+19	; 0x13
    3bc8:	9c 89       	ldd	r25, Y+20	; 0x14
    3bca:	8d 80       	ldd	r8, Y+5	; 0x05
    3bcc:	9e 80       	ldd	r9, Y+6	; 0x06
    3bce:	af 80       	ldd	r10, Y+7	; 0x07
    3bd0:	b8 84       	ldd	r11, Y+8	; 0x08
                    //
                    // Determine the number of digits in the string version of
                    // the value.
                    //
convert:
                    for(ui32Idx = 1;
    3bd2:	0e 94 24 2f 	call	0x5e48	; 0x5e48 <__mulsi3>
    3bd6:	86 16       	cp	r8, r22
    3bd8:	97 06       	cpc	r9, r23
    3bda:	a8 06       	cpc	r10, r24
    3bdc:	b9 06       	cpc	r11, r25
    3bde:	68 f5       	brcc	.+90     	; 0x3c3a <UARTvprintf+0x444>
    3be0:	48 c0       	rjmp	.+144    	; 0x3c72 <UARTvprintf+0x47c>
                        (((ui32Idx * ui32Base) <= ui32Value) &&
                         (((ui32Idx * ui32Base) / ui32Base) == ui32Idx));
                        ui32Idx *= ui32Base, ui32Count--)
    3be2:	29 89       	ldd	r18, Y+17	; 0x11
    3be4:	3a 89       	ldd	r19, Y+18	; 0x12
    3be6:	4b 89       	ldd	r20, Y+19	; 0x13
    3be8:	5c 89       	ldd	r21, Y+20	; 0x14
    3bea:	69 81       	ldd	r22, Y+1	; 0x01
    3bec:	7a 81       	ldd	r23, Y+2	; 0x02
    3bee:	8b 81       	ldd	r24, Y+3	; 0x03
    3bf0:	9c 81       	ldd	r25, Y+4	; 0x04
    3bf2:	0e 94 24 2f 	call	0x5e48	; 0x5e48 <__mulsi3>
    3bf6:	69 83       	std	Y+1, r22	; 0x01
    3bf8:	7a 83       	std	Y+2, r23	; 0x02
    3bfa:	8b 83       	std	Y+3, r24	; 0x03
    3bfc:	9c 83       	std	Y+4, r25	; 0x04
    3bfe:	8d 85       	ldd	r24, Y+13	; 0x0d
    3c00:	9e 85       	ldd	r25, Y+14	; 0x0e
    3c02:	af 85       	ldd	r26, Y+15	; 0x0f
    3c04:	b8 89       	ldd	r27, Y+16	; 0x10
    3c06:	01 97       	sbiw	r24, 0x01	; 1
    3c08:	a1 09       	sbc	r26, r1
    3c0a:	b1 09       	sbc	r27, r1
    3c0c:	8d 87       	std	Y+13, r24	; 0x0d
    3c0e:	9e 87       	std	Y+14, r25	; 0x0e
    3c10:	af 87       	std	Y+15, r26	; 0x0f
    3c12:	b8 8b       	std	Y+16, r27	; 0x10
                    // Determine the number of digits in the string version of
                    // the value.
                    //
convert:
                    for(ui32Idx = 1;
                        (((ui32Idx * ui32Base) <= ui32Value) &&
    3c14:	29 81       	ldd	r18, Y+1	; 0x01
    3c16:	3a 81       	ldd	r19, Y+2	; 0x02
    3c18:	4b 81       	ldd	r20, Y+3	; 0x03
    3c1a:	5c 81       	ldd	r21, Y+4	; 0x04
    3c1c:	69 89       	ldd	r22, Y+17	; 0x11
    3c1e:	7a 89       	ldd	r23, Y+18	; 0x12
    3c20:	8b 89       	ldd	r24, Y+19	; 0x13
    3c22:	9c 89       	ldd	r25, Y+20	; 0x14
    3c24:	8d 80       	ldd	r8, Y+5	; 0x05
    3c26:	9e 80       	ldd	r9, Y+6	; 0x06
    3c28:	af 80       	ldd	r10, Y+7	; 0x07
    3c2a:	b8 84       	ldd	r11, Y+8	; 0x08
                    //
                    // Determine the number of digits in the string version of
                    // the value.
                    //
convert:
                    for(ui32Idx = 1;
    3c2c:	0e 94 24 2f 	call	0x5e48	; 0x5e48 <__mulsi3>
    3c30:	86 16       	cp	r8, r22
    3c32:	97 06       	cpc	r9, r23
    3c34:	a8 06       	cpc	r10, r24
    3c36:	b9 06       	cpc	r11, r25
    3c38:	e0 f0       	brcs	.+56     	; 0x3c72 <UARTvprintf+0x47c>
                        (((ui32Idx * ui32Base) <= ui32Value) &&
                         (((ui32Idx * ui32Base) / ui32Base) == ui32Idx));
    3c3a:	29 81       	ldd	r18, Y+1	; 0x01
    3c3c:	3a 81       	ldd	r19, Y+2	; 0x02
    3c3e:	4b 81       	ldd	r20, Y+3	; 0x03
    3c40:	5c 81       	ldd	r21, Y+4	; 0x04
    3c42:	69 89       	ldd	r22, Y+17	; 0x11
    3c44:	7a 89       	ldd	r23, Y+18	; 0x12
    3c46:	8b 89       	ldd	r24, Y+19	; 0x13
    3c48:	9c 89       	ldd	r25, Y+20	; 0x14
    3c4a:	49 88       	ldd	r4, Y+17	; 0x11
    3c4c:	5a 88       	ldd	r5, Y+18	; 0x12
    3c4e:	6b 88       	ldd	r6, Y+19	; 0x13
    3c50:	7c 88       	ldd	r7, Y+20	; 0x14
    3c52:	89 80       	ldd	r8, Y+1	; 0x01
    3c54:	9a 80       	ldd	r9, Y+2	; 0x02
    3c56:	ab 80       	ldd	r10, Y+3	; 0x03
    3c58:	bc 80       	ldd	r11, Y+4	; 0x04
                    // Determine the number of digits in the string version of
                    // the value.
                    //
convert:
                    for(ui32Idx = 1;
                        (((ui32Idx * ui32Base) <= ui32Value) &&
    3c5a:	0e 94 24 2f 	call	0x5e48	; 0x5e48 <__mulsi3>
    3c5e:	a3 01       	movw	r20, r6
    3c60:	92 01       	movw	r18, r4
    3c62:	0e 94 34 2f 	call	0x5e68	; 0x5e68 <__udivmodsi4>
    3c66:	28 15       	cp	r18, r8
    3c68:	39 05       	cpc	r19, r9
    3c6a:	4a 05       	cpc	r20, r10
    3c6c:	5b 05       	cpc	r21, r11
    3c6e:	09 f4       	brne	.+2      	; 0x3c72 <UARTvprintf+0x47c>
    3c70:	b8 cf       	rjmp	.-144    	; 0x3be2 <UARTvprintf+0x3ec>

                    //
                    // If the value is negative, reduce the count of padding
                    // characters needed.
                    //
                    if(ui32Neg)
    3c72:	8d 89       	ldd	r24, Y+21	; 0x15
    3c74:	9e 89       	ldd	r25, Y+22	; 0x16
    3c76:	af 89       	ldd	r26, Y+23	; 0x17
    3c78:	b8 8d       	ldd	r27, Y+24	; 0x18
    3c7a:	89 2b       	or	r24, r25
    3c7c:	8a 2b       	or	r24, r26
    3c7e:	8b 2b       	or	r24, r27
    3c80:	59 f0       	breq	.+22     	; 0x3c98 <UARTvprintf+0x4a2>
                    {
                        ui32Count--;
    3c82:	8d 85       	ldd	r24, Y+13	; 0x0d
    3c84:	9e 85       	ldd	r25, Y+14	; 0x0e
    3c86:	af 85       	ldd	r26, Y+15	; 0x0f
    3c88:	b8 89       	ldd	r27, Y+16	; 0x10
    3c8a:	01 97       	sbiw	r24, 0x01	; 1
    3c8c:	a1 09       	sbc	r26, r1
    3c8e:	b1 09       	sbc	r27, r1
    3c90:	8d 87       	std	Y+13, r24	; 0x0d
    3c92:	9e 87       	std	Y+14, r25	; 0x0e
    3c94:	af 87       	std	Y+15, r26	; 0x0f
    3c96:	b8 8b       	std	Y+16, r27	; 0x10

                    //
                    // If the value is negative and the value is padded with
                    // zeros, then place the minus sign before the padding.
                    //
                    if(ui32Neg && (cFill == '0'))
    3c98:	8d 89       	ldd	r24, Y+21	; 0x15
    3c9a:	9e 89       	ldd	r25, Y+22	; 0x16
    3c9c:	af 89       	ldd	r26, Y+23	; 0x17
    3c9e:	b8 8d       	ldd	r27, Y+24	; 0x18
    3ca0:	89 2b       	or	r24, r25
    3ca2:	8a 2b       	or	r24, r26
    3ca4:	8b 2b       	or	r24, r27
    3ca6:	d1 f0       	breq	.+52     	; 0x3cdc <UARTvprintf+0x4e6>
    3ca8:	90 e3       	ldi	r25, 0x30	; 48
    3caa:	f9 12       	cpse	r15, r25
    3cac:	17 c0       	rjmp	.+46     	; 0x3cdc <UARTvprintf+0x4e6>
                    {
                        //
                        // Place the minus sign in the output buffer.
                        //
                        pcBuf[ui32Pos++] = '-';
    3cae:	89 85       	ldd	r24, Y+9	; 0x09
    3cb0:	9a 85       	ldd	r25, Y+10	; 0x0a
    3cb2:	ab 85       	ldd	r26, Y+11	; 0x0b
    3cb4:	bc 85       	ldd	r27, Y+12	; 0x0c
    3cb6:	ac 01       	movw	r20, r24
    3cb8:	bd 01       	movw	r22, r26
    3cba:	4f 5f       	subi	r20, 0xFF	; 255
    3cbc:	5f 4f       	sbci	r21, 0xFF	; 255
    3cbe:	6f 4f       	sbci	r22, 0xFF	; 255
    3cc0:	7f 4f       	sbci	r23, 0xFF	; 255
    3cc2:	49 87       	std	Y+9, r20	; 0x09
    3cc4:	5a 87       	std	Y+10, r21	; 0x0a
    3cc6:	6b 87       	std	Y+11, r22	; 0x0b
    3cc8:	7c 87       	std	Y+12, r23	; 0x0c
    3cca:	f6 01       	movw	r30, r12
    3ccc:	e8 0f       	add	r30, r24
    3cce:	f9 1f       	adc	r31, r25
    3cd0:	ad e2       	ldi	r26, 0x2D	; 45
    3cd2:	a0 83       	st	Z, r26

                        //
                        // The minus sign has been placed, so turn off the
                        // negative flag.
                        //
                        ui32Neg = 0;
    3cd4:	1d 8a       	std	Y+21, r1	; 0x15
    3cd6:	1e 8a       	std	Y+22, r1	; 0x16
    3cd8:	1f 8a       	std	Y+23, r1	; 0x17
    3cda:	18 8e       	std	Y+24, r1	; 0x18

                    //
                    // Provide additional padding at the beginning of the
                    // string conversion if needed.
                    //
                    if((ui32Count > 1) && (ui32Count < 16))
    3cdc:	8d 85       	ldd	r24, Y+13	; 0x0d
    3cde:	9e 85       	ldd	r25, Y+14	; 0x0e
    3ce0:	af 85       	ldd	r26, Y+15	; 0x0f
    3ce2:	b8 89       	ldd	r27, Y+16	; 0x10
    3ce4:	02 97       	sbiw	r24, 0x02	; 2
    3ce6:	a1 05       	cpc	r26, r1
    3ce8:	b1 05       	cpc	r27, r1
    3cea:	08 f4       	brcc	.+2      	; 0x3cee <UARTvprintf+0x4f8>
    3cec:	40 c0       	rjmp	.+128    	; 0x3d6e <UARTvprintf+0x578>
    3cee:	8d 85       	ldd	r24, Y+13	; 0x0d
    3cf0:	9e 85       	ldd	r25, Y+14	; 0x0e
    3cf2:	af 85       	ldd	r26, Y+15	; 0x0f
    3cf4:	b8 89       	ldd	r27, Y+16	; 0x10
    3cf6:	40 97       	sbiw	r24, 0x10	; 16
    3cf8:	a1 05       	cpc	r26, r1
    3cfa:	b1 05       	cpc	r27, r1
    3cfc:	c0 f5       	brcc	.+112    	; 0x3d6e <UARTvprintf+0x578>
                    {
                        for(ui32Count--; ui32Count; ui32Count--)
    3cfe:	8d 85       	ldd	r24, Y+13	; 0x0d
    3d00:	9e 85       	ldd	r25, Y+14	; 0x0e
    3d02:	af 85       	ldd	r26, Y+15	; 0x0f
    3d04:	b8 89       	ldd	r27, Y+16	; 0x10
    3d06:	01 97       	sbiw	r24, 0x01	; 1
    3d08:	a1 09       	sbc	r26, r1
    3d0a:	b1 09       	sbc	r27, r1
    3d0c:	8d 87       	std	Y+13, r24	; 0x0d
    3d0e:	9e 87       	std	Y+14, r25	; 0x0e
    3d10:	af 87       	std	Y+15, r26	; 0x0f
    3d12:	b8 8b       	std	Y+16, r27	; 0x10
    3d14:	8d 85       	ldd	r24, Y+13	; 0x0d
    3d16:	9e 85       	ldd	r25, Y+14	; 0x0e
    3d18:	af 85       	ldd	r26, Y+15	; 0x0f
    3d1a:	b8 89       	ldd	r27, Y+16	; 0x10
    3d1c:	89 2b       	or	r24, r25
    3d1e:	8a 2b       	or	r24, r26
    3d20:	8b 2b       	or	r24, r27
    3d22:	29 f1       	breq	.+74     	; 0x3d6e <UARTvprintf+0x578>
                        {
                            pcBuf[ui32Pos++] = cFill;
    3d24:	89 85       	ldd	r24, Y+9	; 0x09
    3d26:	9a 85       	ldd	r25, Y+10	; 0x0a
    3d28:	ab 85       	ldd	r26, Y+11	; 0x0b
    3d2a:	bc 85       	ldd	r27, Y+12	; 0x0c
    3d2c:	ac 01       	movw	r20, r24
    3d2e:	bd 01       	movw	r22, r26
    3d30:	4f 5f       	subi	r20, 0xFF	; 255
    3d32:	5f 4f       	sbci	r21, 0xFF	; 255
    3d34:	6f 4f       	sbci	r22, 0xFF	; 255
    3d36:	7f 4f       	sbci	r23, 0xFF	; 255
    3d38:	49 87       	std	Y+9, r20	; 0x09
    3d3a:	5a 87       	std	Y+10, r21	; 0x0a
    3d3c:	6b 87       	std	Y+11, r22	; 0x0b
    3d3e:	7c 87       	std	Y+12, r23	; 0x0c
    3d40:	f6 01       	movw	r30, r12
    3d42:	e8 0f       	add	r30, r24
    3d44:	f9 1f       	adc	r31, r25
    3d46:	f0 82       	st	Z, r15
                    // Provide additional padding at the beginning of the
                    // string conversion if needed.
                    //
                    if((ui32Count > 1) && (ui32Count < 16))
                    {
                        for(ui32Count--; ui32Count; ui32Count--)
    3d48:	8d 85       	ldd	r24, Y+13	; 0x0d
    3d4a:	9e 85       	ldd	r25, Y+14	; 0x0e
    3d4c:	af 85       	ldd	r26, Y+15	; 0x0f
    3d4e:	b8 89       	ldd	r27, Y+16	; 0x10
    3d50:	01 97       	sbiw	r24, 0x01	; 1
    3d52:	a1 09       	sbc	r26, r1
    3d54:	b1 09       	sbc	r27, r1
    3d56:	8d 87       	std	Y+13, r24	; 0x0d
    3d58:	9e 87       	std	Y+14, r25	; 0x0e
    3d5a:	af 87       	std	Y+15, r26	; 0x0f
    3d5c:	b8 8b       	std	Y+16, r27	; 0x10
    3d5e:	8d 85       	ldd	r24, Y+13	; 0x0d
    3d60:	9e 85       	ldd	r25, Y+14	; 0x0e
    3d62:	af 85       	ldd	r26, Y+15	; 0x0f
    3d64:	b8 89       	ldd	r27, Y+16	; 0x10
    3d66:	89 2b       	or	r24, r25
    3d68:	8a 2b       	or	r24, r26
    3d6a:	8b 2b       	or	r24, r27
    3d6c:	d9 f6       	brne	.-74     	; 0x3d24 <UARTvprintf+0x52e>

                    //
                    // If the value is negative, then place the minus sign
                    // before the number.
                    //
                    if(ui32Neg)
    3d6e:	8d 89       	ldd	r24, Y+21	; 0x15
    3d70:	9e 89       	ldd	r25, Y+22	; 0x16
    3d72:	af 89       	ldd	r26, Y+23	; 0x17
    3d74:	b8 8d       	ldd	r27, Y+24	; 0x18
    3d76:	89 2b       	or	r24, r25
    3d78:	8a 2b       	or	r24, r26
    3d7a:	8b 2b       	or	r24, r27
    3d7c:	99 f0       	breq	.+38     	; 0x3da4 <UARTvprintf+0x5ae>
                    {
                        //
                        // Place the minus sign in the output buffer.
                        //
                        pcBuf[ui32Pos++] = '-';
    3d7e:	89 85       	ldd	r24, Y+9	; 0x09
    3d80:	9a 85       	ldd	r25, Y+10	; 0x0a
    3d82:	ab 85       	ldd	r26, Y+11	; 0x0b
    3d84:	bc 85       	ldd	r27, Y+12	; 0x0c
    3d86:	ac 01       	movw	r20, r24
    3d88:	bd 01       	movw	r22, r26
    3d8a:	4f 5f       	subi	r20, 0xFF	; 255
    3d8c:	5f 4f       	sbci	r21, 0xFF	; 255
    3d8e:	6f 4f       	sbci	r22, 0xFF	; 255
    3d90:	7f 4f       	sbci	r23, 0xFF	; 255
    3d92:	49 87       	std	Y+9, r20	; 0x09
    3d94:	5a 87       	std	Y+10, r21	; 0x0a
    3d96:	6b 87       	std	Y+11, r22	; 0x0b
    3d98:	7c 87       	std	Y+12, r23	; 0x0c
    3d9a:	f6 01       	movw	r30, r12
    3d9c:	e8 0f       	add	r30, r24
    3d9e:	f9 1f       	adc	r31, r25
    3da0:	bd e2       	ldi	r27, 0x2D	; 45
    3da2:	b0 83       	st	Z, r27
                    }

                    //
                    // Convert the value into a string.
                    //
                    for(; ui32Idx; ui32Idx /= ui32Base)
    3da4:	89 81       	ldd	r24, Y+1	; 0x01
    3da6:	9a 81       	ldd	r25, Y+2	; 0x02
    3da8:	ab 81       	ldd	r26, Y+3	; 0x03
    3daa:	bc 81       	ldd	r27, Y+4	; 0x04
    3dac:	89 2b       	or	r24, r25
    3dae:	8a 2b       	or	r24, r26
    3db0:	8b 2b       	or	r24, r27
    3db2:	09 f4       	brne	.+2      	; 0x3db6 <UARTvprintf+0x5c0>
    3db4:	42 c0       	rjmp	.+132    	; 0x3e3a <UARTvprintf+0x644>
                    {
                        pcBuf[ui32Pos++] =
    3db6:	49 84       	ldd	r4, Y+9	; 0x09
    3db8:	5a 84       	ldd	r5, Y+10	; 0x0a
    3dba:	6b 84       	ldd	r6, Y+11	; 0x0b
    3dbc:	7c 84       	ldd	r7, Y+12	; 0x0c
    3dbe:	b3 01       	movw	r22, r6
    3dc0:	a2 01       	movw	r20, r4
    3dc2:	4f 5f       	subi	r20, 0xFF	; 255
    3dc4:	5f 4f       	sbci	r21, 0xFF	; 255
    3dc6:	6f 4f       	sbci	r22, 0xFF	; 255
    3dc8:	7f 4f       	sbci	r23, 0xFF	; 255
    3dca:	49 87       	std	Y+9, r20	; 0x09
    3dcc:	5a 87       	std	Y+10, r21	; 0x0a
    3dce:	6b 87       	std	Y+11, r22	; 0x0b
    3dd0:	7c 87       	std	Y+12, r23	; 0x0c
                            g_pcHex[(ui32Value / ui32Idx) % ui32Base];
    3dd2:	6d 81       	ldd	r22, Y+5	; 0x05
    3dd4:	7e 81       	ldd	r23, Y+6	; 0x06
    3dd6:	8f 81       	ldd	r24, Y+7	; 0x07
    3dd8:	98 85       	ldd	r25, Y+8	; 0x08
    3dda:	29 81       	ldd	r18, Y+1	; 0x01
    3ddc:	3a 81       	ldd	r19, Y+2	; 0x02
    3dde:	4b 81       	ldd	r20, Y+3	; 0x03
    3de0:	5c 81       	ldd	r21, Y+4	; 0x04
    3de2:	89 88       	ldd	r8, Y+17	; 0x11
    3de4:	9a 88       	ldd	r9, Y+18	; 0x12
    3de6:	ab 88       	ldd	r10, Y+19	; 0x13
    3de8:	bc 88       	ldd	r11, Y+20	; 0x14
                    //
                    // Convert the value into a string.
                    //
                    for(; ui32Idx; ui32Idx /= ui32Base)
                    {
                        pcBuf[ui32Pos++] =
    3dea:	76 01       	movw	r14, r12
    3dec:	e4 0c       	add	r14, r4
    3dee:	f5 1c       	adc	r15, r5
                            g_pcHex[(ui32Value / ui32Idx) % ui32Base];
    3df0:	0e 94 34 2f 	call	0x5e68	; 0x5e68 <__udivmodsi4>
    3df4:	ca 01       	movw	r24, r20
    3df6:	b9 01       	movw	r22, r18
    3df8:	a5 01       	movw	r20, r10
    3dfa:	94 01       	movw	r18, r8
    3dfc:	0e 94 34 2f 	call	0x5e68	; 0x5e68 <__udivmodsi4>
    3e00:	fb 01       	movw	r30, r22
    3e02:	ee 54       	subi	r30, 0x4E	; 78
    3e04:	f5 4f       	sbci	r31, 0xF5	; 245
                    //
                    // Convert the value into a string.
                    //
                    for(; ui32Idx; ui32Idx /= ui32Base)
                    {
                        pcBuf[ui32Pos++] =
    3e06:	80 81       	ld	r24, Z
    3e08:	f7 01       	movw	r30, r14
    3e0a:	80 83       	st	Z, r24
                            g_pcHex[(ui32Value / ui32Idx) % ui32Base];
                    }
    3e0c:	29 89       	ldd	r18, Y+17	; 0x11
    3e0e:	3a 89       	ldd	r19, Y+18	; 0x12
    3e10:	4b 89       	ldd	r20, Y+19	; 0x13
    3e12:	5c 89       	ldd	r21, Y+20	; 0x14
                    }

                    //
                    // Convert the value into a string.
                    //
                    for(; ui32Idx; ui32Idx /= ui32Base)
    3e14:	69 81       	ldd	r22, Y+1	; 0x01
    3e16:	7a 81       	ldd	r23, Y+2	; 0x02
    3e18:	8b 81       	ldd	r24, Y+3	; 0x03
    3e1a:	9c 81       	ldd	r25, Y+4	; 0x04
    3e1c:	0e 94 34 2f 	call	0x5e68	; 0x5e68 <__udivmodsi4>
    3e20:	29 83       	std	Y+1, r18	; 0x01
    3e22:	3a 83       	std	Y+2, r19	; 0x02
    3e24:	4b 83       	std	Y+3, r20	; 0x03
    3e26:	5c 83       	std	Y+4, r21	; 0x04
    3e28:	89 81       	ldd	r24, Y+1	; 0x01
    3e2a:	9a 81       	ldd	r25, Y+2	; 0x02
    3e2c:	ab 81       	ldd	r26, Y+3	; 0x03
    3e2e:	bc 81       	ldd	r27, Y+4	; 0x04
    3e30:	89 2b       	or	r24, r25
    3e32:	8a 2b       	or	r24, r26
    3e34:	8b 2b       	or	r24, r27
    3e36:	09 f0       	breq	.+2      	; 0x3e3a <UARTvprintf+0x644>
    3e38:	be cf       	rjmp	.-132    	; 0x3db6 <UARTvprintf+0x5c0>
                    }

                    //
                    // Write the string.
                    //
                    CONSOLE_UART_WRITE(pcBuf, ui32Pos);
    3e3a:	69 85       	ldd	r22, Y+9	; 0x09
    3e3c:	7a 85       	ldd	r23, Y+10	; 0x0a
    3e3e:	8b 85       	ldd	r24, Y+11	; 0x0b
    3e40:	9c 85       	ldd	r25, Y+12	; 0x0c
    3e42:	82 2d       	mov	r24, r2
    3e44:	93 2d       	mov	r25, r3
    3e46:	0e 94 80 1a 	call	0x3500	; 0x3500 <usart0_send_array>

                    //
                    // This command has been handled.
                    //
                    break;
    3e4a:	10 c0       	rjmp	.+32     	; 0x3e6c <UARTvprintf+0x676>
                case '%':
                {
                    //
                    // Simply write a single %.
                    //
                    CONSOLE_UART_WRITE(pcString - 1, 1);
    3e4c:	61 e0       	ldi	r22, 0x01	; 1
    3e4e:	cd 01       	movw	r24, r26
    3e50:	0e 94 80 1a 	call	0x3500	; 0x3500 <usart0_send_array>

                    //
                    // This command has been handled.
                    //
                    break;
    3e54:	0b c0       	rjmp	.+22     	; 0x3e6c <UARTvprintf+0x676>
                default:
                {
                    //
                    // Indicate an error.
                    //
                    CONSOLE_UART_WRITE("ERROR", 5);
    3e56:	65 e0       	ldi	r22, 0x05	; 5
    3e58:	83 ec       	ldi	r24, 0xC3	; 195
    3e5a:	9a e0       	ldi	r25, 0x0A	; 10
    3e5c:	0e 94 80 1a 	call	0x3500	; 0x3500 <usart0_send_array>

                    //
                    // This command has been handled.
                    //
                    break;
    3e60:	05 c0       	rjmp	.+10     	; 0x3e6c <UARTvprintf+0x676>
                case 's':
                {
                    //
                    // Get the string pointer from the varargs.
                    //
                    pcStr = va_arg(vaArgP, char *);
    3e62:	fa a6       	std	Y+42, r15	; 0x2a
    3e64:	e9 a6       	std	Y+41, r14	; 0x29
    3e66:	02 c0       	rjmp	.+4      	; 0x3e6c <UARTvprintf+0x676>
    3e68:	fa a6       	std	Y+42, r15	; 0x2a
    3e6a:	e9 a6       	std	Y+41, r14	; 0x29
    char *pcStr, pcBuf[16], cFill;

    //
    // Loop while there are more characters in the string.
    //
    while(*pcString)
    3e6c:	d8 01       	movw	r26, r16
    3e6e:	8c 91       	ld	r24, X
    3e70:	81 11       	cpse	r24, r1
    3e72:	e5 cc       	rjmp	.-1590   	; 0x383e <UARTvprintf+0x48>
                    break;
                }
            }
        }
    }
}
    3e74:	aa 96       	adiw	r28, 0x2a	; 42
    3e76:	0f b6       	in	r0, 0x3f	; 63
    3e78:	f8 94       	cli
    3e7a:	de bf       	out	0x3e, r29	; 62
    3e7c:	0f be       	out	0x3f, r0	; 63
    3e7e:	cd bf       	out	0x3d, r28	; 61
    3e80:	df 91       	pop	r29
    3e82:	cf 91       	pop	r28
    3e84:	1f 91       	pop	r17
    3e86:	0f 91       	pop	r16
    3e88:	ff 90       	pop	r15
    3e8a:	ef 90       	pop	r14
    3e8c:	df 90       	pop	r13
    3e8e:	cf 90       	pop	r12
    3e90:	bf 90       	pop	r11
    3e92:	af 90       	pop	r10
    3e94:	9f 90       	pop	r9
    3e96:	8f 90       	pop	r8
    3e98:	7f 90       	pop	r7
    3e9a:	6f 90       	pop	r6
    3e9c:	5f 90       	pop	r5
    3e9e:	4f 90       	pop	r4
    3ea0:	3f 90       	pop	r3
    3ea2:	2f 90       	pop	r2
    3ea4:	08 95       	ret

00003ea6 <UARTprintf>:
//! \return None.
//
//*****************************************************************************
void
UARTprintf(const char *pcString, ...)
{
    3ea6:	cf 93       	push	r28
    3ea8:	df 93       	push	r29
    3eaa:	cd b7       	in	r28, 0x3d	; 61
    3eac:	de b7       	in	r29, 0x3e	; 62
    3eae:	be 01       	movw	r22, r28
    3eb0:	6b 5f       	subi	r22, 0xFB	; 251
    3eb2:	7f 4f       	sbci	r23, 0xFF	; 255
    3eb4:	fb 01       	movw	r30, r22
    3eb6:	81 91       	ld	r24, Z+
    3eb8:	91 91       	ld	r25, Z+
    3eba:	bf 01       	movw	r22, r30
    //
    // Start the varargs processing.
    //
    va_start(vaArgP, pcString);

    UARTvprintf(pcString, vaArgP);
    3ebc:	0e 94 fb 1b 	call	0x37f6	; 0x37f6 <UARTvprintf>

    //
    // We're finished with the varargs now.
    //
    va_end(vaArgP);
    3ec0:	df 91       	pop	r29
    3ec2:	cf 91       	pop	r28
    3ec4:	08 95       	ret

00003ec6 <BMP390_read_raw_calibration>:

// BMP390 data
BMP390_Data TempPress_data;
uint16_t tmp;
// Function to read raw calibration data from BMP390 sensor
bool BMP390_read_raw_calibration(BMP390_Data *data) {
    3ec6:	cf 92       	push	r12
    3ec8:	df 92       	push	r13
    3eca:	ef 92       	push	r14
    3ecc:	ff 92       	push	r15
    3ece:	0f 93       	push	r16
    3ed0:	1f 93       	push	r17
    3ed2:	cf 93       	push	r28
    3ed4:	df 93       	push	r29
    3ed6:	cd b7       	in	r28, 0x3d	; 61
    3ed8:	de b7       	in	r29, 0x3e	; 62
    3eda:	65 97       	sbiw	r28, 0x15	; 21
    3edc:	0f b6       	in	r0, 0x3f	; 63
    3ede:	f8 94       	cli
    3ee0:	de bf       	out	0x3e, r29	; 62
    3ee2:	0f be       	out	0x3f, r0	; 63
    3ee4:	cd bf       	out	0x3d, r28	; 61
    3ee6:	6c 01       	movw	r12, r24
	uint8_t calib[21];

	twi_start();
    3ee8:	0e 94 9a 18 	call	0x3134	; 0x3134 <twi_start>

	// Send device address with write flag
	twi_write(BMP390_I2C_ADDR << 1);
    3eec:	8e ee       	ldi	r24, 0xEE	; 238
    3eee:	0e 94 b4 18 	call	0x3168	; 0x3168 <twi_write>

	// Send register address of calibration data
	twi_write(BMP390_CALIB_DATA_ADDR);
    3ef2:	81 e3       	ldi	r24, 0x31	; 49
    3ef4:	0e 94 b4 18 	call	0x3168	; 0x3168 <twi_write>

	// Send repeated start condition
	twi_start();
    3ef8:	0e 94 9a 18 	call	0x3134	; 0x3134 <twi_start>

	// Send device address with read flag
	twi_write((BMP390_I2C_ADDR << 1) | 1);
    3efc:	8f ee       	ldi	r24, 0xEF	; 239
    3efe:	0e 94 b4 18 	call	0x3168	; 0x3168 <twi_write>
    3f02:	8e 01       	movw	r16, r28
    3f04:	0f 5f       	subi	r16, 0xFF	; 255
    3f06:	1f 4f       	sbci	r17, 0xFF	; 255
    3f08:	7e 01       	movw	r14, r28
    3f0a:	85 e1       	ldi	r24, 0x15	; 21
    3f0c:	e8 0e       	add	r14, r24
    3f0e:	f1 1c       	adc	r15, r1

	// Receive calibration data
	for (uint8_t i = 0; i < 20; i++) {
		calib[i] = twi_read_ack();
    3f10:	0e 94 c3 18 	call	0x3186	; 0x3186 <twi_read_ack>
    3f14:	f8 01       	movw	r30, r16
    3f16:	81 93       	st	Z+, r24
    3f18:	8f 01       	movw	r16, r30

	// Send device address with read flag
	twi_write((BMP390_I2C_ADDR << 1) | 1);

	// Receive calibration data
	for (uint8_t i = 0; i < 20; i++) {
    3f1a:	ee 15       	cp	r30, r14
    3f1c:	ff 05       	cpc	r31, r15
    3f1e:	c1 f7       	brne	.-16     	; 0x3f10 <BMP390_read_raw_calibration+0x4a>
		calib[i] = twi_read_ack();
	}
	calib[20] = twi_read_nack();
    3f20:	0e 94 d2 18 	call	0x31a4	; 0x31a4 <twi_read_nack>
	if (!calib[20])
    3f24:	88 23       	and	r24, r24
    3f26:	09 f4       	brne	.+2      	; 0x3f2a <BMP390_read_raw_calibration+0x64>
    3f28:	4a c0       	rjmp	.+148    	; 0x3fbe <BMP390_read_raw_calibration+0xf8>
		return false;
	// Store the raw calibration data into the _BMP390_Raw_Calib_Data_ structure
	data->NVM.u16_NVM_T1 = ((uint16_t)calib[1] << 8) | (uint16_t)calib[0];
    3f2a:	2a 81       	ldd	r18, Y+2	; 0x02
    3f2c:	30 e0       	ldi	r19, 0x00	; 0
    3f2e:	32 2f       	mov	r19, r18
    3f30:	22 27       	eor	r18, r18
    3f32:	99 81       	ldd	r25, Y+1	; 0x01
    3f34:	29 2b       	or	r18, r25
    3f36:	f6 01       	movw	r30, r12
    3f38:	32 8b       	std	Z+18, r19	; 0x12
    3f3a:	21 8b       	std	Z+17, r18	; 0x11
	data->NVM.u16_NVM_T2 = ((uint16_t)calib[3] << 8) | (uint16_t)calib[2];
    3f3c:	2c 81       	ldd	r18, Y+4	; 0x04
    3f3e:	30 e0       	ldi	r19, 0x00	; 0
    3f40:	32 2f       	mov	r19, r18
    3f42:	22 27       	eor	r18, r18
    3f44:	9b 81       	ldd	r25, Y+3	; 0x03
    3f46:	29 2b       	or	r18, r25
    3f48:	34 8b       	std	Z+20, r19	; 0x14
    3f4a:	23 8b       	std	Z+19, r18	; 0x13
	data->NVM.i8_NVM_T3 = calib[4];
    3f4c:	9d 81       	ldd	r25, Y+5	; 0x05
    3f4e:	95 8b       	std	Z+21, r25	; 0x15
	data->NVM.i16_NVM_P1 = ((int16_t)calib[6] << 8) | (int16_t)calib[5];
    3f50:	2f 81       	ldd	r18, Y+7	; 0x07
    3f52:	30 e0       	ldi	r19, 0x00	; 0
    3f54:	32 2f       	mov	r19, r18
    3f56:	22 27       	eor	r18, r18
    3f58:	9e 81       	ldd	r25, Y+6	; 0x06
    3f5a:	29 2b       	or	r18, r25
    3f5c:	37 8b       	std	Z+23, r19	; 0x17
    3f5e:	26 8b       	std	Z+22, r18	; 0x16
	data->NVM.i16_NVM_P2 = ((int16_t)calib[8] << 8) | (int16_t)calib[7];
    3f60:	29 85       	ldd	r18, Y+9	; 0x09
    3f62:	30 e0       	ldi	r19, 0x00	; 0
    3f64:	32 2f       	mov	r19, r18
    3f66:	22 27       	eor	r18, r18
    3f68:	98 85       	ldd	r25, Y+8	; 0x08
    3f6a:	29 2b       	or	r18, r25
    3f6c:	31 8f       	std	Z+25, r19	; 0x19
    3f6e:	20 8f       	std	Z+24, r18	; 0x18
	data->NVM.i8_NVM_P3 = calib[9];
    3f70:	9a 85       	ldd	r25, Y+10	; 0x0a
    3f72:	92 8f       	std	Z+26, r25	; 0x1a
	data->NVM.i8_NVM_P4 = calib[10];
    3f74:	9b 85       	ldd	r25, Y+11	; 0x0b
    3f76:	93 8f       	std	Z+27, r25	; 0x1b
	data->NVM.u16_NVM_P5 = ((uint16_t)calib[12] << 8) | (uint16_t)calib[11];
    3f78:	2d 85       	ldd	r18, Y+13	; 0x0d
    3f7a:	30 e0       	ldi	r19, 0x00	; 0
    3f7c:	32 2f       	mov	r19, r18
    3f7e:	22 27       	eor	r18, r18
    3f80:	9c 85       	ldd	r25, Y+12	; 0x0c
    3f82:	29 2b       	or	r18, r25
    3f84:	35 8f       	std	Z+29, r19	; 0x1d
    3f86:	24 8f       	std	Z+28, r18	; 0x1c
	data->NVM.u16_NVM_P6 = ((uint16_t)calib[14] << 8) | (uint16_t)calib[13];
    3f88:	2f 85       	ldd	r18, Y+15	; 0x0f
    3f8a:	30 e0       	ldi	r19, 0x00	; 0
    3f8c:	32 2f       	mov	r19, r18
    3f8e:	22 27       	eor	r18, r18
    3f90:	9e 85       	ldd	r25, Y+14	; 0x0e
    3f92:	29 2b       	or	r18, r25
    3f94:	37 8f       	std	Z+31, r19	; 0x1f
    3f96:	26 8f       	std	Z+30, r18	; 0x1e
	data->NVM.i8_NVM_P7 = calib[15];
    3f98:	98 89       	ldd	r25, Y+16	; 0x10
    3f9a:	90 a3       	std	Z+32, r25	; 0x20
	data->NVM.i8_NVM_P8 = calib[16];
    3f9c:	99 89       	ldd	r25, Y+17	; 0x11
    3f9e:	91 a3       	std	Z+33, r25	; 0x21
	data->NVM.i16_NVM_P9 = ((int16_t)calib[18] << 8) | (int16_t)calib[17];
    3fa0:	2b 89       	ldd	r18, Y+19	; 0x13
    3fa2:	30 e0       	ldi	r19, 0x00	; 0
    3fa4:	32 2f       	mov	r19, r18
    3fa6:	22 27       	eor	r18, r18
    3fa8:	9a 89       	ldd	r25, Y+18	; 0x12
    3faa:	29 2b       	or	r18, r25
    3fac:	33 a3       	std	Z+35, r19	; 0x23
    3fae:	22 a3       	std	Z+34, r18	; 0x22
	data->NVM.i8_NVM_P10 = calib[19];
    3fb0:	9c 89       	ldd	r25, Y+20	; 0x14
    3fb2:	94 a3       	std	Z+36, r25	; 0x24
	data->NVM.i8_NVM_P11 = calib[20];
    3fb4:	85 a3       	std	Z+37, r24	; 0x25
	
	// Send stop condition
	twi_stop();
    3fb6:	0e 94 a7 18 	call	0x314e	; 0x314e <twi_stop>
	return true;
    3fba:	81 e0       	ldi	r24, 0x01	; 1
    3fbc:	01 c0       	rjmp	.+2      	; 0x3fc0 <BMP390_read_raw_calibration+0xfa>
	for (uint8_t i = 0; i < 20; i++) {
		calib[i] = twi_read_ack();
	}
	calib[20] = twi_read_nack();
	if (!calib[20])
		return false;
    3fbe:	80 e0       	ldi	r24, 0x00	; 0
	data->NVM.i8_NVM_P11 = calib[20];
	
	// Send stop condition
	twi_stop();
	return true;
}
    3fc0:	65 96       	adiw	r28, 0x15	; 21
    3fc2:	0f b6       	in	r0, 0x3f	; 63
    3fc4:	f8 94       	cli
    3fc6:	de bf       	out	0x3e, r29	; 62
    3fc8:	0f be       	out	0x3f, r0	; 63
    3fca:	cd bf       	out	0x3d, r28	; 61
    3fcc:	df 91       	pop	r29
    3fce:	cf 91       	pop	r28
    3fd0:	1f 91       	pop	r17
    3fd2:	0f 91       	pop	r16
    3fd4:	ff 90       	pop	r15
    3fd6:	ef 90       	pop	r14
    3fd8:	df 90       	pop	r13
    3fda:	cf 90       	pop	r12
    3fdc:	08 95       	ret

00003fde <BMP390_convert_calibration>:

// Function to convert raw calibration data to floating-point calibration data
void BMP390_convert_calibration(BMP390_Data *data) {
    3fde:	0f 93       	push	r16
    3fe0:	1f 93       	push	r17
    3fe2:	cf 93       	push	r28
    3fe4:	df 93       	push	r29
    3fe6:	ec 01       	movw	r28, r24
	data->PAR.f_PAR_T1 = data->NVM.u16_NVM_T1 * 256.0;
    3fe8:	69 89       	ldd	r22, Y+17	; 0x11
    3fea:	7a 89       	ldd	r23, Y+18	; 0x12
    3fec:	80 e0       	ldi	r24, 0x00	; 0
    3fee:	90 e0       	ldi	r25, 0x00	; 0
    3ff0:	0e 94 ac 2a 	call	0x5558	; 0x5558 <__floatunsisf>
    3ff4:	20 e0       	ldi	r18, 0x00	; 0
    3ff6:	30 e0       	ldi	r19, 0x00	; 0
    3ff8:	40 e8       	ldi	r20, 0x80	; 128
    3ffa:	53 e4       	ldi	r21, 0x43	; 67
    3ffc:	0e 94 3a 2b 	call	0x5674	; 0x5674 <__mulsf3>
    4000:	6e a3       	std	Y+38, r22	; 0x26
    4002:	7f a3       	std	Y+39, r23	; 0x27
    4004:	88 a7       	std	Y+40, r24	; 0x28
    4006:	99 a7       	std	Y+41, r25	; 0x29
	data->PAR.f_PAR_T2 = data->NVM.u16_NVM_T2 / 1073741824.0;
    4008:	6b 89       	ldd	r22, Y+19	; 0x13
    400a:	7c 89       	ldd	r23, Y+20	; 0x14
    400c:	80 e0       	ldi	r24, 0x00	; 0
    400e:	90 e0       	ldi	r25, 0x00	; 0
    4010:	0e 94 ac 2a 	call	0x5558	; 0x5558 <__floatunsisf>
    4014:	20 e0       	ldi	r18, 0x00	; 0
    4016:	30 e0       	ldi	r19, 0x00	; 0
    4018:	40 e8       	ldi	r20, 0x80	; 128
    401a:	50 e3       	ldi	r21, 0x30	; 48
    401c:	0e 94 3a 2b 	call	0x5674	; 0x5674 <__mulsf3>
    4020:	6a a7       	std	Y+42, r22	; 0x2a
    4022:	7b a7       	std	Y+43, r23	; 0x2b
    4024:	8c a7       	std	Y+44, r24	; 0x2c
    4026:	9d a7       	std	Y+45, r25	; 0x2d
	data->PAR.f_PAR_T3 = data->NVM.i8_NVM_T3 / 281474976710656.0;
    4028:	6d 89       	ldd	r22, Y+21	; 0x15
    402a:	06 2e       	mov	r0, r22
    402c:	00 0c       	add	r0, r0
    402e:	77 0b       	sbc	r23, r23
    4030:	88 0b       	sbc	r24, r24
    4032:	99 0b       	sbc	r25, r25
    4034:	0e 94 ae 2a 	call	0x555c	; 0x555c <__floatsisf>
    4038:	20 e0       	ldi	r18, 0x00	; 0
    403a:	30 e0       	ldi	r19, 0x00	; 0
    403c:	40 e8       	ldi	r20, 0x80	; 128
    403e:	57 e2       	ldi	r21, 0x27	; 39
    4040:	0e 94 3a 2b 	call	0x5674	; 0x5674 <__mulsf3>
    4044:	6e a7       	std	Y+46, r22	; 0x2e
    4046:	7f a7       	std	Y+47, r23	; 0x2f
    4048:	88 ab       	std	Y+48, r24	; 0x30
    404a:	99 ab       	std	Y+49, r25	; 0x31
	data->PAR.f_PAR_P1 = (data->NVM.i16_NVM_P1 - 16384) / 1048576.0;
    404c:	6e 89       	ldd	r22, Y+22	; 0x16
    404e:	7f 89       	ldd	r23, Y+23	; 0x17
    4050:	70 54       	subi	r23, 0x40	; 64
    4052:	07 2e       	mov	r0, r23
    4054:	00 0c       	add	r0, r0
    4056:	88 0b       	sbc	r24, r24
    4058:	99 0b       	sbc	r25, r25
    405a:	0e 94 ae 2a 	call	0x555c	; 0x555c <__floatsisf>
    405e:	20 e0       	ldi	r18, 0x00	; 0
    4060:	30 e0       	ldi	r19, 0x00	; 0
    4062:	40 e8       	ldi	r20, 0x80	; 128
    4064:	55 e3       	ldi	r21, 0x35	; 53
    4066:	0e 94 3a 2b 	call	0x5674	; 0x5674 <__mulsf3>
    406a:	6a ab       	std	Y+50, r22	; 0x32
    406c:	7b ab       	std	Y+51, r23	; 0x33
    406e:	8c ab       	std	Y+52, r24	; 0x34
    4070:	9d ab       	std	Y+53, r25	; 0x35
	data->PAR.f_PAR_P2 = (data->NVM.i16_NVM_P2 - 16384) / 536870912.0;
    4072:	68 8d       	ldd	r22, Y+24	; 0x18
    4074:	79 8d       	ldd	r23, Y+25	; 0x19
    4076:	70 54       	subi	r23, 0x40	; 64
    4078:	07 2e       	mov	r0, r23
    407a:	00 0c       	add	r0, r0
    407c:	88 0b       	sbc	r24, r24
    407e:	99 0b       	sbc	r25, r25
    4080:	0e 94 ae 2a 	call	0x555c	; 0x555c <__floatsisf>
    4084:	20 e0       	ldi	r18, 0x00	; 0
    4086:	30 e0       	ldi	r19, 0x00	; 0
    4088:	40 e0       	ldi	r20, 0x00	; 0
    408a:	51 e3       	ldi	r21, 0x31	; 49
    408c:	0e 94 3a 2b 	call	0x5674	; 0x5674 <__mulsf3>
    4090:	6e ab       	std	Y+54, r22	; 0x36
    4092:	7f ab       	std	Y+55, r23	; 0x37
    4094:	88 af       	std	Y+56, r24	; 0x38
    4096:	99 af       	std	Y+57, r25	; 0x39
	data->PAR.f_PAR_P3 = data->NVM.i8_NVM_P3 / 4294967296.0;
    4098:	6a 8d       	ldd	r22, Y+26	; 0x1a
    409a:	06 2e       	mov	r0, r22
    409c:	00 0c       	add	r0, r0
    409e:	77 0b       	sbc	r23, r23
    40a0:	88 0b       	sbc	r24, r24
    40a2:	99 0b       	sbc	r25, r25
    40a4:	0e 94 ae 2a 	call	0x555c	; 0x555c <__floatsisf>
    40a8:	20 e0       	ldi	r18, 0x00	; 0
    40aa:	30 e0       	ldi	r19, 0x00	; 0
    40ac:	40 e8       	ldi	r20, 0x80	; 128
    40ae:	5f e2       	ldi	r21, 0x2F	; 47
    40b0:	0e 94 3a 2b 	call	0x5674	; 0x5674 <__mulsf3>
    40b4:	6a af       	std	Y+58, r22	; 0x3a
    40b6:	7b af       	std	Y+59, r23	; 0x3b
    40b8:	8c af       	std	Y+60, r24	; 0x3c
    40ba:	9d af       	std	Y+61, r25	; 0x3d
	data->PAR.f_PAR_P4 = data->NVM.i8_NVM_P4 / 137438953472.0;
    40bc:	8e 01       	movw	r16, r28
    40be:	02 5c       	subi	r16, 0xC2	; 194
    40c0:	1f 4f       	sbci	r17, 0xFF	; 255
    40c2:	6b 8d       	ldd	r22, Y+27	; 0x1b
    40c4:	06 2e       	mov	r0, r22
    40c6:	00 0c       	add	r0, r0
    40c8:	77 0b       	sbc	r23, r23
    40ca:	88 0b       	sbc	r24, r24
    40cc:	99 0b       	sbc	r25, r25
    40ce:	0e 94 ae 2a 	call	0x555c	; 0x555c <__floatsisf>
    40d2:	20 e0       	ldi	r18, 0x00	; 0
    40d4:	30 e0       	ldi	r19, 0x00	; 0
    40d6:	40 e0       	ldi	r20, 0x00	; 0
    40d8:	5d e2       	ldi	r21, 0x2D	; 45
    40da:	0e 94 3a 2b 	call	0x5674	; 0x5674 <__mulsf3>
    40de:	f8 01       	movw	r30, r16
    40e0:	60 83       	st	Z, r22
    40e2:	71 83       	std	Z+1, r23	; 0x01
    40e4:	82 83       	std	Z+2, r24	; 0x02
    40e6:	93 83       	std	Z+3, r25	; 0x03
	data->PAR.f_PAR_P5 = data->NVM.u16_NVM_P5 / 0.125;
    40e8:	0c 5f       	subi	r16, 0xFC	; 252
    40ea:	1f 4f       	sbci	r17, 0xFF	; 255
    40ec:	6c 8d       	ldd	r22, Y+28	; 0x1c
    40ee:	7d 8d       	ldd	r23, Y+29	; 0x1d
    40f0:	80 e0       	ldi	r24, 0x00	; 0
    40f2:	90 e0       	ldi	r25, 0x00	; 0
    40f4:	0e 94 ac 2a 	call	0x5558	; 0x5558 <__floatunsisf>
    40f8:	20 e0       	ldi	r18, 0x00	; 0
    40fa:	30 e0       	ldi	r19, 0x00	; 0
    40fc:	40 e0       	ldi	r20, 0x00	; 0
    40fe:	51 e4       	ldi	r21, 0x41	; 65
    4100:	0e 94 3a 2b 	call	0x5674	; 0x5674 <__mulsf3>
    4104:	f8 01       	movw	r30, r16
    4106:	60 83       	st	Z, r22
    4108:	71 83       	std	Z+1, r23	; 0x01
    410a:	82 83       	std	Z+2, r24	; 0x02
    410c:	93 83       	std	Z+3, r25	; 0x03
	data->PAR.f_PAR_P6 = data->NVM.u16_NVM_P6 / 64.0;
    410e:	0c 5f       	subi	r16, 0xFC	; 252
    4110:	1f 4f       	sbci	r17, 0xFF	; 255
    4112:	6e 8d       	ldd	r22, Y+30	; 0x1e
    4114:	7f 8d       	ldd	r23, Y+31	; 0x1f
    4116:	80 e0       	ldi	r24, 0x00	; 0
    4118:	90 e0       	ldi	r25, 0x00	; 0
    411a:	0e 94 ac 2a 	call	0x5558	; 0x5558 <__floatunsisf>
    411e:	20 e0       	ldi	r18, 0x00	; 0
    4120:	30 e0       	ldi	r19, 0x00	; 0
    4122:	40 e8       	ldi	r20, 0x80	; 128
    4124:	5c e3       	ldi	r21, 0x3C	; 60
    4126:	0e 94 3a 2b 	call	0x5674	; 0x5674 <__mulsf3>
    412a:	f8 01       	movw	r30, r16
    412c:	60 83       	st	Z, r22
    412e:	71 83       	std	Z+1, r23	; 0x01
    4130:	82 83       	std	Z+2, r24	; 0x02
    4132:	93 83       	std	Z+3, r25	; 0x03
	data->PAR.f_PAR_P7 = data->NVM.i8_NVM_P7 / 256.0;
    4134:	0c 5f       	subi	r16, 0xFC	; 252
    4136:	1f 4f       	sbci	r17, 0xFF	; 255
    4138:	68 a1       	ldd	r22, Y+32	; 0x20
    413a:	06 2e       	mov	r0, r22
    413c:	00 0c       	add	r0, r0
    413e:	77 0b       	sbc	r23, r23
    4140:	88 0b       	sbc	r24, r24
    4142:	99 0b       	sbc	r25, r25
    4144:	0e 94 ae 2a 	call	0x555c	; 0x555c <__floatsisf>
    4148:	20 e0       	ldi	r18, 0x00	; 0
    414a:	30 e0       	ldi	r19, 0x00	; 0
    414c:	40 e8       	ldi	r20, 0x80	; 128
    414e:	5b e3       	ldi	r21, 0x3B	; 59
    4150:	0e 94 3a 2b 	call	0x5674	; 0x5674 <__mulsf3>
    4154:	f8 01       	movw	r30, r16
    4156:	60 83       	st	Z, r22
    4158:	71 83       	std	Z+1, r23	; 0x01
    415a:	82 83       	std	Z+2, r24	; 0x02
    415c:	93 83       	std	Z+3, r25	; 0x03
	data->PAR.f_PAR_P8 = data->NVM.i8_NVM_P8 / 32768.0;
    415e:	0c 5f       	subi	r16, 0xFC	; 252
    4160:	1f 4f       	sbci	r17, 0xFF	; 255
    4162:	69 a1       	ldd	r22, Y+33	; 0x21
    4164:	06 2e       	mov	r0, r22
    4166:	00 0c       	add	r0, r0
    4168:	77 0b       	sbc	r23, r23
    416a:	88 0b       	sbc	r24, r24
    416c:	99 0b       	sbc	r25, r25
    416e:	0e 94 ae 2a 	call	0x555c	; 0x555c <__floatsisf>
    4172:	20 e0       	ldi	r18, 0x00	; 0
    4174:	30 e0       	ldi	r19, 0x00	; 0
    4176:	40 e0       	ldi	r20, 0x00	; 0
    4178:	58 e3       	ldi	r21, 0x38	; 56
    417a:	0e 94 3a 2b 	call	0x5674	; 0x5674 <__mulsf3>
    417e:	f8 01       	movw	r30, r16
    4180:	60 83       	st	Z, r22
    4182:	71 83       	std	Z+1, r23	; 0x01
    4184:	82 83       	std	Z+2, r24	; 0x02
    4186:	93 83       	std	Z+3, r25	; 0x03
	data->PAR.f_PAR_P9 = data->NVM.i16_NVM_P9 / 281474976710656.0;
    4188:	0c 5f       	subi	r16, 0xFC	; 252
    418a:	1f 4f       	sbci	r17, 0xFF	; 255
    418c:	6a a1       	ldd	r22, Y+34	; 0x22
    418e:	7b a1       	ldd	r23, Y+35	; 0x23
    4190:	80 e0       	ldi	r24, 0x00	; 0
    4192:	90 e0       	ldi	r25, 0x00	; 0
    4194:	0e 94 ac 2a 	call	0x5558	; 0x5558 <__floatunsisf>
    4198:	20 e0       	ldi	r18, 0x00	; 0
    419a:	30 e0       	ldi	r19, 0x00	; 0
    419c:	40 e8       	ldi	r20, 0x80	; 128
    419e:	57 e2       	ldi	r21, 0x27	; 39
    41a0:	0e 94 3a 2b 	call	0x5674	; 0x5674 <__mulsf3>
    41a4:	f8 01       	movw	r30, r16
    41a6:	60 83       	st	Z, r22
    41a8:	71 83       	std	Z+1, r23	; 0x01
    41aa:	82 83       	std	Z+2, r24	; 0x02
    41ac:	93 83       	std	Z+3, r25	; 0x03
	data->PAR.f_PAR_P10 = data->NVM.i8_NVM_P10 / 281474976710656.0;
    41ae:	0c 5f       	subi	r16, 0xFC	; 252
    41b0:	1f 4f       	sbci	r17, 0xFF	; 255
    41b2:	6c a1       	ldd	r22, Y+36	; 0x24
    41b4:	06 2e       	mov	r0, r22
    41b6:	00 0c       	add	r0, r0
    41b8:	77 0b       	sbc	r23, r23
    41ba:	88 0b       	sbc	r24, r24
    41bc:	99 0b       	sbc	r25, r25
    41be:	0e 94 ae 2a 	call	0x555c	; 0x555c <__floatsisf>
    41c2:	20 e0       	ldi	r18, 0x00	; 0
    41c4:	30 e0       	ldi	r19, 0x00	; 0
    41c6:	40 e8       	ldi	r20, 0x80	; 128
    41c8:	57 e2       	ldi	r21, 0x27	; 39
    41ca:	0e 94 3a 2b 	call	0x5674	; 0x5674 <__mulsf3>
    41ce:	f8 01       	movw	r30, r16
    41d0:	60 83       	st	Z, r22
    41d2:	71 83       	std	Z+1, r23	; 0x01
    41d4:	82 83       	std	Z+2, r24	; 0x02
    41d6:	93 83       	std	Z+3, r25	; 0x03
	data->PAR.f_PAR_P11 = data->NVM.i8_NVM_P11 / 36893488147419103232.0;
    41d8:	0c 5f       	subi	r16, 0xFC	; 252
    41da:	1f 4f       	sbci	r17, 0xFF	; 255
    41dc:	6d a1       	ldd	r22, Y+37	; 0x25
    41de:	06 2e       	mov	r0, r22
    41e0:	00 0c       	add	r0, r0
    41e2:	77 0b       	sbc	r23, r23
    41e4:	88 0b       	sbc	r24, r24
    41e6:	99 0b       	sbc	r25, r25
    41e8:	0e 94 ae 2a 	call	0x555c	; 0x555c <__floatsisf>
    41ec:	20 e0       	ldi	r18, 0x00	; 0
    41ee:	30 e0       	ldi	r19, 0x00	; 0
    41f0:	40 e0       	ldi	r20, 0x00	; 0
    41f2:	5f e1       	ldi	r21, 0x1F	; 31
    41f4:	0e 94 3a 2b 	call	0x5674	; 0x5674 <__mulsf3>
    41f8:	f8 01       	movw	r30, r16
    41fa:	60 83       	st	Z, r22
    41fc:	71 83       	std	Z+1, r23	; 0x01
    41fe:	82 83       	std	Z+2, r24	; 0x02
    4200:	93 83       	std	Z+3, r25	; 0x03
}
    4202:	df 91       	pop	r29
    4204:	cf 91       	pop	r28
    4206:	1f 91       	pop	r17
    4208:	0f 91       	pop	r16
    420a:	08 95       	ret

0000420c <BMP390_set_mode>:

//
void BMP390_set_mode(BMP390_Mode mode) {
    420c:	cf 93       	push	r28
    420e:	c8 2f       	mov	r28, r24
	uint8_t reg_value;
	twi_start();
    4210:	0e 94 9a 18 	call	0x3134	; 0x3134 <twi_start>

	// Send device address with write flag
	twi_write(BMP390_I2C_ADDR << 1);
    4214:	8e ee       	ldi	r24, 0xEE	; 238
    4216:	0e 94 b4 18 	call	0x3168	; 0x3168 <twi_write>

	// Send register address of PWR_CTRL register
	twi_write(BMP390_REG_PWR_CTRL);
    421a:	8b e1       	ldi	r24, 0x1B	; 27
    421c:	0e 94 b4 18 	call	0x3168	; 0x3168 <twi_write>

	// Send repeated start condition
	twi_start();
    4220:	0e 94 9a 18 	call	0x3134	; 0x3134 <twi_start>

	// Send device address with read flag
	twi_write((BMP390_I2C_ADDR << 1) | 1);
    4224:	8f ee       	ldi	r24, 0xEF	; 239
    4226:	0e 94 b4 18 	call	0x3168	; 0x3168 <twi_write>

	// Receive the current value of PWR_CTRL register
	reg_value = twi_read_nack();
    422a:	0e 94 d2 18 	call	0x31a4	; 0x31a4 <twi_read_nack>

	// Clear bits 5 and 4 (mode bits)
	reg_value &= ~(0x30);

	// Set mode bits according to input mode
	reg_value |= (mode << 4);
    422e:	90 e1       	ldi	r25, 0x10	; 16
    4230:	c9 9f       	mul	r28, r25
    4232:	90 01       	movw	r18, r0
    4234:	11 24       	eor	r1, r1
    4236:	8f 7c       	andi	r24, 0xCF	; 207
    4238:	c8 2f       	mov	r28, r24
    423a:	c2 2b       	or	r28, r18
	
	reg_value |= (3 << 0);
	
	// Send stop condition
	twi_stop();
    423c:	0e 94 a7 18 	call	0x314e	; 0x314e <twi_stop>

	// Write modified value back to PWR_CTRL register
	twi_start();
    4240:	0e 94 9a 18 	call	0x3134	; 0x3134 <twi_start>
	twi_write(BMP390_I2C_ADDR << 1);
    4244:	8e ee       	ldi	r24, 0xEE	; 238
    4246:	0e 94 b4 18 	call	0x3168	; 0x3168 <twi_write>
	twi_write(BMP390_REG_PWR_CTRL);
    424a:	8b e1       	ldi	r24, 0x1B	; 27
    424c:	0e 94 b4 18 	call	0x3168	; 0x3168 <twi_write>
	twi_write(reg_value);
    4250:	8c 2f       	mov	r24, r28
    4252:	83 60       	ori	r24, 0x03	; 3
    4254:	0e 94 b4 18 	call	0x3168	; 0x3168 <twi_write>
	twi_stop();
    4258:	0e 94 a7 18 	call	0x314e	; 0x314e <twi_stop>
	return true;
}
    425c:	cf 91       	pop	r28
    425e:	08 95       	ret

00004260 <BMP390_init>:

// Function to initialize BMP390 sensor
bool BMP390_init(void) 
{
    4260:	cf 93       	push	r28
	BMP390_set_mode(BMP390_MODE_NORMAL);
    4262:	83 e0       	ldi	r24, 0x03	; 3
    4264:	0e 94 06 21 	call	0x420c	; 0x420c <BMP390_set_mode>
	bool err = BMP390_read_raw_calibration(&TempPress_data);
    4268:	8c e9       	ldi	r24, 0x9C	; 156
    426a:	9d e0       	ldi	r25, 0x0D	; 13
    426c:	0e 94 63 1f 	call	0x3ec6	; 0x3ec6 <BMP390_read_raw_calibration>
    4270:	c8 2f       	mov	r28, r24
	BMP390_convert_calibration(&TempPress_data);
    4272:	8c e9       	ldi	r24, 0x9C	; 156
    4274:	9d e0       	ldi	r25, 0x0D	; 13
    4276:	0e 94 ef 1f 	call	0x3fde	; 0x3fde <BMP390_convert_calibration>
	return err;
}
    427a:	8c 2f       	mov	r24, r28
    427c:	cf 91       	pop	r28
    427e:	08 95       	ret

00004280 <BMP390_read_raw_temp_press>:

// Function to read temperature and pressure data from BMP390 sensor
void BMP390_read_raw_temp_press(BMP390_Data *data) {
    4280:	cf 92       	push	r12
    4282:	df 92       	push	r13
    4284:	ef 92       	push	r14
    4286:	ff 92       	push	r15
    4288:	0f 93       	push	r16
    428a:	1f 93       	push	r17
    428c:	cf 93       	push	r28
    428e:	df 93       	push	r29
    4290:	00 d0       	rcall	.+0      	; 0x4292 <BMP390_read_raw_temp_press+0x12>
    4292:	00 d0       	rcall	.+0      	; 0x4294 <BMP390_read_raw_temp_press+0x14>
    4294:	00 d0       	rcall	.+0      	; 0x4296 <BMP390_read_raw_temp_press+0x16>
    4296:	cd b7       	in	r28, 0x3d	; 61
    4298:	de b7       	in	r29, 0x3e	; 62
    429a:	7c 01       	movw	r14, r24
	uint8_t temp_press_data[6];

	twi_start();
    429c:	0e 94 9a 18 	call	0x3134	; 0x3134 <twi_start>

	// Send device address with write flag
	twi_write(BMP390_I2C_ADDR << 1);
    42a0:	8e ee       	ldi	r24, 0xEE	; 238
    42a2:	0e 94 b4 18 	call	0x3168	; 0x3168 <twi_write>

	// Send register address of temperature and pressure data
	twi_write(BMP390_TEMP_PRESS_DATA_ADDR);
    42a6:	84 e0       	ldi	r24, 0x04	; 4
    42a8:	0e 94 b4 18 	call	0x3168	; 0x3168 <twi_write>

	// Send repeated start condition
	twi_start();
    42ac:	0e 94 9a 18 	call	0x3134	; 0x3134 <twi_start>

	// Send device address with read flag
	twi_write((BMP390_I2C_ADDR << 1) | 1);
    42b0:	8f ee       	ldi	r24, 0xEF	; 239
    42b2:	0e 94 b4 18 	call	0x3168	; 0x3168 <twi_write>
    42b6:	8e 01       	movw	r16, r28
    42b8:	0f 5f       	subi	r16, 0xFF	; 255
    42ba:	1f 4f       	sbci	r17, 0xFF	; 255
    42bc:	6e 01       	movw	r12, r28
    42be:	86 e0       	ldi	r24, 0x06	; 6
    42c0:	c8 0e       	add	r12, r24
    42c2:	d1 1c       	adc	r13, r1

	// Receive temperature and pressure data
	for (uint8_t i = 0; i < 5; i++) {
		temp_press_data[i] = twi_read_ack();
    42c4:	0e 94 c3 18 	call	0x3186	; 0x3186 <twi_read_ack>
    42c8:	f8 01       	movw	r30, r16
    42ca:	81 93       	st	Z+, r24
    42cc:	8f 01       	movw	r16, r30

	// Send device address with read flag
	twi_write((BMP390_I2C_ADDR << 1) | 1);

	// Receive temperature and pressure data
	for (uint8_t i = 0; i < 5; i++) {
    42ce:	ec 15       	cp	r30, r12
    42d0:	fd 05       	cpc	r31, r13
    42d2:	c1 f7       	brne	.-16     	; 0x42c4 <BMP390_read_raw_temp_press+0x44>
		temp_press_data[i] = twi_read_ack();
	}
	temp_press_data[5] = twi_read_nack();
    42d4:	0e 94 d2 18 	call	0x31a4	; 0x31a4 <twi_read_nack>

	// Combine the bytes to form the temperature and pressure readings
	int32_t temp_raw = ((uint32_t)temp_press_data[5] << 16) | ((uint32_t)temp_press_data[4] << 8) | (uint32_t)temp_press_data[3];
	int32_t press_raw = ((uint32_t)temp_press_data[2] << 16) | ((uint32_t)temp_press_data[1] << 8) | (uint32_t)temp_press_data[0];
    42d8:	9b 81       	ldd	r25, Y+3	; 0x03
    42da:	4a 81       	ldd	r20, Y+2	; 0x02
    42dc:	50 e0       	ldi	r21, 0x00	; 0
    42de:	60 e0       	ldi	r22, 0x00	; 0
    42e0:	70 e0       	ldi	r23, 0x00	; 0
    42e2:	76 2f       	mov	r23, r22
    42e4:	65 2f       	mov	r22, r21
    42e6:	54 2f       	mov	r21, r20
    42e8:	44 27       	eor	r20, r20
    42ea:	69 2b       	or	r22, r25
    42ec:	99 81       	ldd	r25, Y+1	; 0x01
    42ee:	49 2b       	or	r20, r25

	// Store the raw readings into the BMP390_Data structure
	data->temperature_raw = temp_raw;
    42f0:	0d 81       	ldd	r16, Y+5	; 0x05
    42f2:	10 e0       	ldi	r17, 0x00	; 0
    42f4:	20 e0       	ldi	r18, 0x00	; 0
    42f6:	30 e0       	ldi	r19, 0x00	; 0
    42f8:	32 2f       	mov	r19, r18
    42fa:	21 2f       	mov	r18, r17
    42fc:	10 2f       	mov	r17, r16
    42fe:	00 27       	eor	r16, r16
    4300:	9c 81       	ldd	r25, Y+4	; 0x04
    4302:	09 2b       	or	r16, r25
    4304:	28 2b       	or	r18, r24
    4306:	f7 01       	movw	r30, r14
    4308:	00 83       	st	Z, r16
    430a:	11 83       	std	Z+1, r17	; 0x01
    430c:	22 83       	std	Z+2, r18	; 0x02
    430e:	33 83       	std	Z+3, r19	; 0x03
	data->pressure_raw = press_raw;
    4310:	40 87       	std	Z+8, r20	; 0x08
    4312:	51 87       	std	Z+9, r21	; 0x09
    4314:	62 87       	std	Z+10, r22	; 0x0a
    4316:	73 87       	std	Z+11, r23	; 0x0b
	// Send stop condition
	twi_stop();
    4318:	0e 94 a7 18 	call	0x314e	; 0x314e <twi_stop>
}
    431c:	26 96       	adiw	r28, 0x06	; 6
    431e:	0f b6       	in	r0, 0x3f	; 63
    4320:	f8 94       	cli
    4322:	de bf       	out	0x3e, r29	; 62
    4324:	0f be       	out	0x3f, r0	; 63
    4326:	cd bf       	out	0x3d, r28	; 61
    4328:	df 91       	pop	r29
    432a:	cf 91       	pop	r28
    432c:	1f 91       	pop	r17
    432e:	0f 91       	pop	r16
    4330:	ff 90       	pop	r15
    4332:	ef 90       	pop	r14
    4334:	df 90       	pop	r13
    4336:	cf 90       	pop	r12
    4338:	08 95       	ret

0000433a <BMP390_compensate_temperature>:


// Function to compensate temperature reading
void BMP390_compensate_temperature(BMP390_Data *data) {
    433a:	8f 92       	push	r8
    433c:	9f 92       	push	r9
    433e:	af 92       	push	r10
    4340:	bf 92       	push	r11
    4342:	cf 92       	push	r12
    4344:	df 92       	push	r13
    4346:	ef 92       	push	r14
    4348:	ff 92       	push	r15
    434a:	cf 93       	push	r28
    434c:	df 93       	push	r29
    434e:	ec 01       	movw	r28, r24
	float partial_data1;
	float partial_data2;
	
	partial_data1 = (float)(data->temperature_raw-data->PAR.f_PAR_T1);
    4350:	68 81       	ld	r22, Y
    4352:	79 81       	ldd	r23, Y+1	; 0x01
    4354:	8a 81       	ldd	r24, Y+2	; 0x02
    4356:	9b 81       	ldd	r25, Y+3	; 0x03
    4358:	0e 94 ae 2a 	call	0x555c	; 0x555c <__floatsisf>
    435c:	2e a1       	ldd	r18, Y+38	; 0x26
    435e:	3f a1       	ldd	r19, Y+39	; 0x27
    4360:	48 a5       	ldd	r20, Y+40	; 0x28
    4362:	59 a5       	ldd	r21, Y+41	; 0x29
    4364:	0e 94 97 29 	call	0x532e	; 0x532e <__subsf3>
    4368:	6b 01       	movw	r12, r22
    436a:	7c 01       	movw	r14, r24
	partial_data2 = (float)(partial_data1*data->PAR.f_PAR_T2);
	
	data->temperature = partial_data2+(partial_data1*partial_data1)*data->PAR.f_PAR_T3;
	//Pressure 10 times
	data->temperature *=10;
    436c:	9b 01       	movw	r18, r22
    436e:	ac 01       	movw	r20, r24
    4370:	0e 94 3a 2b 	call	0x5674	; 0x5674 <__mulsf3>
    4374:	2e a5       	ldd	r18, Y+46	; 0x2e
    4376:	3f a5       	ldd	r19, Y+47	; 0x2f
    4378:	48 a9       	ldd	r20, Y+48	; 0x30
    437a:	59 a9       	ldd	r21, Y+49	; 0x31
    437c:	0e 94 3a 2b 	call	0x5674	; 0x5674 <__mulsf3>
    4380:	4b 01       	movw	r8, r22
    4382:	5c 01       	movw	r10, r24
    4384:	2a a5       	ldd	r18, Y+42	; 0x2a
    4386:	3b a5       	ldd	r19, Y+43	; 0x2b
    4388:	4c a5       	ldd	r20, Y+44	; 0x2c
    438a:	5d a5       	ldd	r21, Y+45	; 0x2d
    438c:	c7 01       	movw	r24, r14
    438e:	b6 01       	movw	r22, r12
    4390:	0e 94 3a 2b 	call	0x5674	; 0x5674 <__mulsf3>
    4394:	9b 01       	movw	r18, r22
    4396:	ac 01       	movw	r20, r24
    4398:	c5 01       	movw	r24, r10
    439a:	b4 01       	movw	r22, r8
    439c:	0e 94 98 29 	call	0x5330	; 0x5330 <__addsf3>
    43a0:	20 e0       	ldi	r18, 0x00	; 0
    43a2:	30 e0       	ldi	r19, 0x00	; 0
    43a4:	40 e2       	ldi	r20, 0x20	; 32
    43a6:	51 e4       	ldi	r21, 0x41	; 65
    43a8:	0e 94 3a 2b 	call	0x5674	; 0x5674 <__mulsf3>
    43ac:	6c 83       	std	Y+4, r22	; 0x04
    43ae:	7d 83       	std	Y+5, r23	; 0x05
    43b0:	8e 83       	std	Y+6, r24	; 0x06
    43b2:	9f 83       	std	Y+7, r25	; 0x07
}
    43b4:	df 91       	pop	r29
    43b6:	cf 91       	pop	r28
    43b8:	ff 90       	pop	r15
    43ba:	ef 90       	pop	r14
    43bc:	df 90       	pop	r13
    43be:	cf 90       	pop	r12
    43c0:	bf 90       	pop	r11
    43c2:	af 90       	pop	r10
    43c4:	9f 90       	pop	r9
    43c6:	8f 90       	pop	r8
    43c8:	08 95       	ret

000043ca <BMP390_compensate_pressure>:

// Function to compensate pressure reading
void BMP390_compensate_pressure(BMP390_Data *data) {
    43ca:	4f 92       	push	r4
    43cc:	5f 92       	push	r5
    43ce:	6f 92       	push	r6
    43d0:	7f 92       	push	r7
    43d2:	8f 92       	push	r8
    43d4:	9f 92       	push	r9
    43d6:	af 92       	push	r10
    43d8:	bf 92       	push	r11
    43da:	cf 92       	push	r12
    43dc:	df 92       	push	r13
    43de:	ef 92       	push	r14
    43e0:	ff 92       	push	r15
    43e2:	0f 93       	push	r16
    43e4:	1f 93       	push	r17
    43e6:	cf 93       	push	r28
    43e8:	df 93       	push	r29
    43ea:	cd b7       	in	r28, 0x3d	; 61
    43ec:	de b7       	in	r29, 0x3e	; 62
    43ee:	62 97       	sbiw	r28, 0x12	; 18
    43f0:	0f b6       	in	r0, 0x3f	; 63
    43f2:	f8 94       	cli
    43f4:	de bf       	out	0x3e, r29	; 62
    43f6:	0f be       	out	0x3f, r0	; 63
    43f8:	cd bf       	out	0x3d, r28	; 61
    43fa:	9a 8b       	std	Y+18, r25	; 0x12
    43fc:	89 8b       	std	Y+17, r24	; 0x11
	float partial_data3;
	float partial_data4;
	float partial_out1;
	float partial_out2;
	
	partial_data1=data->PAR.f_PAR_P6*(data->temperature);
    43fe:	fc 01       	movw	r30, r24
    4400:	44 80       	ldd	r4, Z+4	; 0x04
    4402:	55 80       	ldd	r5, Z+5	; 0x05
    4404:	66 80       	ldd	r6, Z+6	; 0x06
    4406:	77 80       	ldd	r7, Z+7	; 0x07
	partial_data2=data->PAR.f_PAR_P7*(data->temperature*data->temperature);
    4408:	a3 01       	movw	r20, r6
    440a:	92 01       	movw	r18, r4
    440c:	c3 01       	movw	r24, r6
    440e:	b2 01       	movw	r22, r4
    4410:	0e 94 3a 2b 	call	0x5674	; 0x5674 <__mulsf3>
    4414:	6b 01       	movw	r12, r22
    4416:	7c 01       	movw	r14, r24
	partial_data3=data->PAR.f_PAR_P8*(data->temperature*data->temperature*data->temperature);
    4418:	9b 01       	movw	r18, r22
    441a:	ac 01       	movw	r20, r24
    441c:	c3 01       	movw	r24, r6
    441e:	b2 01       	movw	r22, r4
    4420:	0e 94 3a 2b 	call	0x5674	; 0x5674 <__mulsf3>
    4424:	6d 83       	std	Y+5, r22	; 0x05
    4426:	7e 83       	std	Y+6, r23	; 0x06
    4428:	8f 83       	std	Y+7, r24	; 0x07
    442a:	98 87       	std	Y+8, r25	; 0x08
	partial_out1=data->PAR.f_PAR_P5 + partial_data1 + partial_data2 + partial_data3;
	
	partial_data1=data->PAR.f_PAR_P2*data->temperature;
	partial_data2=data->PAR.f_PAR_P3*(data->temperature*data->temperature);
	partial_data3=data->PAR.f_PAR_P4*(data->temperature*data->temperature*data->temperature);
	partial_out2=(float)data->pressure_raw*(data->PAR.f_PAR_P1 + partial_data1 + partial_data2 + partial_data3);
    442c:	e9 89       	ldd	r30, Y+17	; 0x11
    442e:	fa 89       	ldd	r31, Y+18	; 0x12
    4430:	60 85       	ldd	r22, Z+8	; 0x08
    4432:	71 85       	ldd	r23, Z+9	; 0x09
    4434:	82 85       	ldd	r24, Z+10	; 0x0a
    4436:	93 85       	ldd	r25, Z+11	; 0x0b
    4438:	0e 94 ae 2a 	call	0x555c	; 0x555c <__floatsisf>
    443c:	69 83       	std	Y+1, r22	; 0x01
    443e:	7a 83       	std	Y+2, r23	; 0x02
    4440:	8b 83       	std	Y+3, r24	; 0x03
    4442:	9c 83       	std	Y+4, r25	; 0x04
	
	partial_data1=(float)data->pressure_raw*(float)data->pressure_raw;
    4444:	9b 01       	movw	r18, r22
    4446:	ac 01       	movw	r20, r24
    4448:	0e 94 3a 2b 	call	0x5674	; 0x5674 <__mulsf3>
    444c:	69 87       	std	Y+9, r22	; 0x09
    444e:	7a 87       	std	Y+10, r23	; 0x0a
    4450:	8b 87       	std	Y+11, r24	; 0x0b
    4452:	9c 87       	std	Y+12, r25	; 0x0c
	
	//partial_out2=(float)data->pressure_raw*(data->PAR.f_PAR_P1 + partial_data1 + partial_data2 + partial_data3);

	data->pressure = partial_out1 + partial_out2 + partial_data4;
	//Pressure in 10 times hPa, value is 10.000 mean 1.000 hPa (hPa = Pa/100, 10xhPa = Pa/10)
	data->pressure /=10.0;
    4454:	e9 89       	ldd	r30, Y+17	; 0x11
    4456:	fa 89       	ldd	r31, Y+18	; 0x12
    4458:	26 a9       	ldd	r18, Z+54	; 0x36
    445a:	37 a9       	ldd	r19, Z+55	; 0x37
    445c:	40 ad       	ldd	r20, Z+56	; 0x38
    445e:	51 ad       	ldd	r21, Z+57	; 0x39
    4460:	c3 01       	movw	r24, r6
    4462:	b2 01       	movw	r22, r4
    4464:	0e 94 3a 2b 	call	0x5674	; 0x5674 <__mulsf3>
    4468:	e9 89       	ldd	r30, Y+17	; 0x11
    446a:	fa 89       	ldd	r31, Y+18	; 0x12
    446c:	22 a9       	ldd	r18, Z+50	; 0x32
    446e:	33 a9       	ldd	r19, Z+51	; 0x33
    4470:	44 a9       	ldd	r20, Z+52	; 0x34
    4472:	55 a9       	ldd	r21, Z+53	; 0x35
    4474:	0e 94 98 29 	call	0x5330	; 0x5330 <__addsf3>
    4478:	4b 01       	movw	r8, r22
    447a:	5c 01       	movw	r10, r24
    447c:	e9 89       	ldd	r30, Y+17	; 0x11
    447e:	fa 89       	ldd	r31, Y+18	; 0x12
    4480:	22 ad       	ldd	r18, Z+58	; 0x3a
    4482:	33 ad       	ldd	r19, Z+59	; 0x3b
    4484:	44 ad       	ldd	r20, Z+60	; 0x3c
    4486:	55 ad       	ldd	r21, Z+61	; 0x3d
    4488:	c7 01       	movw	r24, r14
    448a:	b6 01       	movw	r22, r12
    448c:	0e 94 3a 2b 	call	0x5674	; 0x5674 <__mulsf3>
    4490:	9b 01       	movw	r18, r22
    4492:	ac 01       	movw	r20, r24
    4494:	c5 01       	movw	r24, r10
    4496:	b4 01       	movw	r22, r8
    4498:	0e 94 98 29 	call	0x5330	; 0x5330 <__addsf3>
    449c:	4b 01       	movw	r8, r22
    449e:	5c 01       	movw	r10, r24
	partial_data3=data->PAR.f_PAR_P8*(data->temperature*data->temperature*data->temperature);
	partial_out1=data->PAR.f_PAR_P5 + partial_data1 + partial_data2 + partial_data3;
	
	partial_data1=data->PAR.f_PAR_P2*data->temperature;
	partial_data2=data->PAR.f_PAR_P3*(data->temperature*data->temperature);
	partial_data3=data->PAR.f_PAR_P4*(data->temperature*data->temperature*data->temperature);
    44a0:	e9 89       	ldd	r30, Y+17	; 0x11
    44a2:	fa 89       	ldd	r31, Y+18	; 0x12
    44a4:	fe 96       	adiw	r30, 0x3e	; 62
	
	//partial_out2=(float)data->pressure_raw*(data->PAR.f_PAR_P1 + partial_data1 + partial_data2 + partial_data3);

	data->pressure = partial_out1 + partial_out2 + partial_data4;
	//Pressure in 10 times hPa, value is 10.000 mean 1.000 hPa (hPa = Pa/100, 10xhPa = Pa/10)
	data->pressure /=10.0;
    44a6:	20 81       	ld	r18, Z
    44a8:	31 81       	ldd	r19, Z+1	; 0x01
    44aa:	42 81       	ldd	r20, Z+2	; 0x02
    44ac:	53 81       	ldd	r21, Z+3	; 0x03
    44ae:	6d 81       	ldd	r22, Y+5	; 0x05
    44b0:	7e 81       	ldd	r23, Y+6	; 0x06
    44b2:	8f 81       	ldd	r24, Y+7	; 0x07
    44b4:	98 85       	ldd	r25, Y+8	; 0x08
    44b6:	0e 94 3a 2b 	call	0x5674	; 0x5674 <__mulsf3>
    44ba:	9b 01       	movw	r18, r22
    44bc:	ac 01       	movw	r20, r24
    44be:	c5 01       	movw	r24, r10
    44c0:	b4 01       	movw	r22, r8
    44c2:	0e 94 98 29 	call	0x5330	; 0x5330 <__addsf3>
    44c6:	29 81       	ldd	r18, Y+1	; 0x01
    44c8:	3a 81       	ldd	r19, Y+2	; 0x02
    44ca:	4b 81       	ldd	r20, Y+3	; 0x03
    44cc:	5c 81       	ldd	r21, Y+4	; 0x04
    44ce:	0e 94 3a 2b 	call	0x5674	; 0x5674 <__mulsf3>
    44d2:	4b 01       	movw	r8, r22
    44d4:	5c 01       	movw	r10, r24
	float partial_data3;
	float partial_data4;
	float partial_out1;
	float partial_out2;
	
	partial_data1=data->PAR.f_PAR_P6*(data->temperature);
    44d6:	e9 89       	ldd	r30, Y+17	; 0x11
    44d8:	fa 89       	ldd	r31, Y+18	; 0x12
    44da:	ea 5b       	subi	r30, 0xBA	; 186
    44dc:	ff 4f       	sbci	r31, 0xFF	; 255
	
	//partial_out2=(float)data->pressure_raw*(data->PAR.f_PAR_P1 + partial_data1 + partial_data2 + partial_data3);

	data->pressure = partial_out1 + partial_out2 + partial_data4;
	//Pressure in 10 times hPa, value is 10.000 mean 1.000 hPa (hPa = Pa/100, 10xhPa = Pa/10)
	data->pressure /=10.0;
    44de:	20 81       	ld	r18, Z
    44e0:	31 81       	ldd	r19, Z+1	; 0x01
    44e2:	42 81       	ldd	r20, Z+2	; 0x02
    44e4:	53 81       	ldd	r21, Z+3	; 0x03
    44e6:	c3 01       	movw	r24, r6
    44e8:	b2 01       	movw	r22, r4
    44ea:	0e 94 3a 2b 	call	0x5674	; 0x5674 <__mulsf3>
	float partial_out2;
	
	partial_data1=data->PAR.f_PAR_P6*(data->temperature);
	partial_data2=data->PAR.f_PAR_P7*(data->temperature*data->temperature);
	partial_data3=data->PAR.f_PAR_P8*(data->temperature*data->temperature*data->temperature);
	partial_out1=data->PAR.f_PAR_P5 + partial_data1 + partial_data2 + partial_data3;
    44ee:	e9 89       	ldd	r30, Y+17	; 0x11
    44f0:	fa 89       	ldd	r31, Y+18	; 0x12
    44f2:	ee 5b       	subi	r30, 0xBE	; 190
    44f4:	ff 4f       	sbci	r31, 0xFF	; 255
	
	//partial_out2=(float)data->pressure_raw*(data->PAR.f_PAR_P1 + partial_data1 + partial_data2 + partial_data3);

	data->pressure = partial_out1 + partial_out2 + partial_data4;
	//Pressure in 10 times hPa, value is 10.000 mean 1.000 hPa (hPa = Pa/100, 10xhPa = Pa/10)
	data->pressure /=10.0;
    44f6:	20 81       	ld	r18, Z
    44f8:	31 81       	ldd	r19, Z+1	; 0x01
    44fa:	42 81       	ldd	r20, Z+2	; 0x02
    44fc:	53 81       	ldd	r21, Z+3	; 0x03
    44fe:	0e 94 98 29 	call	0x5330	; 0x5330 <__addsf3>
    4502:	6d 87       	std	Y+13, r22	; 0x0d
    4504:	7e 87       	std	Y+14, r23	; 0x0e
    4506:	8f 87       	std	Y+15, r24	; 0x0f
    4508:	98 8b       	std	Y+16, r25	; 0x10
	float partial_data4;
	float partial_out1;
	float partial_out2;
	
	partial_data1=data->PAR.f_PAR_P6*(data->temperature);
	partial_data2=data->PAR.f_PAR_P7*(data->temperature*data->temperature);
    450a:	e9 89       	ldd	r30, Y+17	; 0x11
    450c:	fa 89       	ldd	r31, Y+18	; 0x12
    450e:	e6 5b       	subi	r30, 0xB6	; 182
    4510:	ff 4f       	sbci	r31, 0xFF	; 255
	
	//partial_out2=(float)data->pressure_raw*(data->PAR.f_PAR_P1 + partial_data1 + partial_data2 + partial_data3);

	data->pressure = partial_out1 + partial_out2 + partial_data4;
	//Pressure in 10 times hPa, value is 10.000 mean 1.000 hPa (hPa = Pa/100, 10xhPa = Pa/10)
	data->pressure /=10.0;
    4512:	20 81       	ld	r18, Z
    4514:	31 81       	ldd	r19, Z+1	; 0x01
    4516:	42 81       	ldd	r20, Z+2	; 0x02
    4518:	53 81       	ldd	r21, Z+3	; 0x03
    451a:	c7 01       	movw	r24, r14
    451c:	b6 01       	movw	r22, r12
    451e:	0e 94 3a 2b 	call	0x5674	; 0x5674 <__mulsf3>
    4522:	9b 01       	movw	r18, r22
    4524:	ac 01       	movw	r20, r24
    4526:	6d 85       	ldd	r22, Y+13	; 0x0d
    4528:	7e 85       	ldd	r23, Y+14	; 0x0e
    452a:	8f 85       	ldd	r24, Y+15	; 0x0f
    452c:	98 89       	ldd	r25, Y+16	; 0x10
    452e:	0e 94 98 29 	call	0x5330	; 0x5330 <__addsf3>
    4532:	6b 01       	movw	r12, r22
    4534:	7c 01       	movw	r14, r24
	float partial_out1;
	float partial_out2;
	
	partial_data1=data->PAR.f_PAR_P6*(data->temperature);
	partial_data2=data->PAR.f_PAR_P7*(data->temperature*data->temperature);
	partial_data3=data->PAR.f_PAR_P8*(data->temperature*data->temperature*data->temperature);
    4536:	e9 89       	ldd	r30, Y+17	; 0x11
    4538:	fa 89       	ldd	r31, Y+18	; 0x12
    453a:	e2 5b       	subi	r30, 0xB2	; 178
    453c:	ff 4f       	sbci	r31, 0xFF	; 255
	
	//partial_out2=(float)data->pressure_raw*(data->PAR.f_PAR_P1 + partial_data1 + partial_data2 + partial_data3);

	data->pressure = partial_out1 + partial_out2 + partial_data4;
	//Pressure in 10 times hPa, value is 10.000 mean 1.000 hPa (hPa = Pa/100, 10xhPa = Pa/10)
	data->pressure /=10.0;
    453e:	20 81       	ld	r18, Z
    4540:	31 81       	ldd	r19, Z+1	; 0x01
    4542:	42 81       	ldd	r20, Z+2	; 0x02
    4544:	53 81       	ldd	r21, Z+3	; 0x03
    4546:	6d 81       	ldd	r22, Y+5	; 0x05
    4548:	7e 81       	ldd	r23, Y+6	; 0x06
    454a:	8f 81       	ldd	r24, Y+7	; 0x07
    454c:	98 85       	ldd	r25, Y+8	; 0x08
    454e:	0e 94 3a 2b 	call	0x5674	; 0x5674 <__mulsf3>
    4552:	9b 01       	movw	r18, r22
    4554:	ac 01       	movw	r20, r24
    4556:	c7 01       	movw	r24, r14
    4558:	b6 01       	movw	r22, r12
    455a:	0e 94 98 29 	call	0x5330	; 0x5330 <__addsf3>
    455e:	9b 01       	movw	r18, r22
    4560:	ac 01       	movw	r20, r24
    4562:	c5 01       	movw	r24, r10
    4564:	b4 01       	movw	r22, r8
    4566:	0e 94 98 29 	call	0x5330	; 0x5330 <__addsf3>
    456a:	6b 01       	movw	r12, r22
    456c:	7c 01       	movw	r14, r24
	partial_data2=data->PAR.f_PAR_P3*(data->temperature*data->temperature);
	partial_data3=data->PAR.f_PAR_P4*(data->temperature*data->temperature*data->temperature);
	partial_out2=(float)data->pressure_raw*(data->PAR.f_PAR_P1 + partial_data1 + partial_data2 + partial_data3);
	
	partial_data1=(float)data->pressure_raw*(float)data->pressure_raw;
	partial_data2=data->PAR.f_PAR_P9*data->PAR.f_PAR_P10*data->temperature;
    456e:	e9 89       	ldd	r30, Y+17	; 0x11
    4570:	fa 89       	ldd	r31, Y+18	; 0x12
    4572:	ee 5a       	subi	r30, 0xAE	; 174
    4574:	ff 4f       	sbci	r31, 0xFF	; 255
    4576:	a9 89       	ldd	r26, Y+17	; 0x11
    4578:	ba 89       	ldd	r27, Y+18	; 0x12
    457a:	aa 5a       	subi	r26, 0xAA	; 170
    457c:	bf 4f       	sbci	r27, 0xFF	; 255
	
	//partial_out2=(float)data->pressure_raw*(data->PAR.f_PAR_P1 + partial_data1 + partial_data2 + partial_data3);

	data->pressure = partial_out1 + partial_out2 + partial_data4;
	//Pressure in 10 times hPa, value is 10.000 mean 1.000 hPa (hPa = Pa/100, 10xhPa = Pa/10)
	data->pressure /=10.0;
    457e:	2d 91       	ld	r18, X+
    4580:	3d 91       	ld	r19, X+
    4582:	4d 91       	ld	r20, X+
    4584:	5c 91       	ld	r21, X
    4586:	60 81       	ld	r22, Z
    4588:	71 81       	ldd	r23, Z+1	; 0x01
    458a:	82 81       	ldd	r24, Z+2	; 0x02
    458c:	93 81       	ldd	r25, Z+3	; 0x03
    458e:	0e 94 3a 2b 	call	0x5674	; 0x5674 <__mulsf3>
    4592:	a3 01       	movw	r20, r6
    4594:	92 01       	movw	r18, r4
    4596:	0e 94 3a 2b 	call	0x5674	; 0x5674 <__mulsf3>
    459a:	29 85       	ldd	r18, Y+9	; 0x09
    459c:	3a 85       	ldd	r19, Y+10	; 0x0a
    459e:	4b 85       	ldd	r20, Y+11	; 0x0b
    45a0:	5c 85       	ldd	r21, Y+12	; 0x0c
    45a2:	0e 94 3a 2b 	call	0x5674	; 0x5674 <__mulsf3>
    45a6:	4b 01       	movw	r8, r22
    45a8:	5c 01       	movw	r10, r24
	partial_out2=(float)data->pressure_raw*(data->PAR.f_PAR_P1 + partial_data1 + partial_data2 + partial_data3);
	
	partial_data1=(float)data->pressure_raw*(float)data->pressure_raw;
	partial_data2=data->PAR.f_PAR_P9*data->PAR.f_PAR_P10*data->temperature;
	partial_data3=partial_data1*partial_data2;
	partial_data4=partial_data3 + ((float)data->pressure_raw*(float)data->pressure_raw*(float)data->pressure_raw)*data->PAR.f_PAR_P11;
    45aa:	09 89       	ldd	r16, Y+17	; 0x11
    45ac:	1a 89       	ldd	r17, Y+18	; 0x12
    45ae:	06 5a       	subi	r16, 0xA6	; 166
    45b0:	1f 4f       	sbci	r17, 0xFF	; 255
	
	//partial_out2=(float)data->pressure_raw*(data->PAR.f_PAR_P1 + partial_data1 + partial_data2 + partial_data3);

	data->pressure = partial_out1 + partial_out2 + partial_data4;
	//Pressure in 10 times hPa, value is 10.000 mean 1.000 hPa (hPa = Pa/100, 10xhPa = Pa/10)
	data->pressure /=10.0;
    45b2:	29 85       	ldd	r18, Y+9	; 0x09
    45b4:	3a 85       	ldd	r19, Y+10	; 0x0a
    45b6:	4b 85       	ldd	r20, Y+11	; 0x0b
    45b8:	5c 85       	ldd	r21, Y+12	; 0x0c
    45ba:	69 81       	ldd	r22, Y+1	; 0x01
    45bc:	7a 81       	ldd	r23, Y+2	; 0x02
    45be:	8b 81       	ldd	r24, Y+3	; 0x03
    45c0:	9c 81       	ldd	r25, Y+4	; 0x04
    45c2:	0e 94 3a 2b 	call	0x5674	; 0x5674 <__mulsf3>
    45c6:	f8 01       	movw	r30, r16
    45c8:	20 81       	ld	r18, Z
    45ca:	31 81       	ldd	r19, Z+1	; 0x01
    45cc:	42 81       	ldd	r20, Z+2	; 0x02
    45ce:	53 81       	ldd	r21, Z+3	; 0x03
    45d0:	0e 94 3a 2b 	call	0x5674	; 0x5674 <__mulsf3>
    45d4:	9b 01       	movw	r18, r22
    45d6:	ac 01       	movw	r20, r24
    45d8:	c5 01       	movw	r24, r10
    45da:	b4 01       	movw	r22, r8
    45dc:	0e 94 98 29 	call	0x5330	; 0x5330 <__addsf3>
    45e0:	9b 01       	movw	r18, r22
    45e2:	ac 01       	movw	r20, r24
    45e4:	c7 01       	movw	r24, r14
    45e6:	b6 01       	movw	r22, r12
    45e8:	0e 94 98 29 	call	0x5330	; 0x5330 <__addsf3>
    45ec:	20 e0       	ldi	r18, 0x00	; 0
    45ee:	30 e0       	ldi	r19, 0x00	; 0
    45f0:	40 e2       	ldi	r20, 0x20	; 32
    45f2:	51 e4       	ldi	r21, 0x41	; 65
    45f4:	0e 94 04 2a 	call	0x5408	; 0x5408 <__divsf3>
    45f8:	e9 89       	ldd	r30, Y+17	; 0x11
    45fa:	fa 89       	ldd	r31, Y+18	; 0x12
    45fc:	64 87       	std	Z+12, r22	; 0x0c
    45fe:	75 87       	std	Z+13, r23	; 0x0d
    4600:	86 87       	std	Z+14, r24	; 0x0e
    4602:	97 87       	std	Z+15, r25	; 0x0f
}
    4604:	62 96       	adiw	r28, 0x12	; 18
    4606:	0f b6       	in	r0, 0x3f	; 63
    4608:	f8 94       	cli
    460a:	de bf       	out	0x3e, r29	; 62
    460c:	0f be       	out	0x3f, r0	; 63
    460e:	cd bf       	out	0x3d, r28	; 61
    4610:	df 91       	pop	r29
    4612:	cf 91       	pop	r28
    4614:	1f 91       	pop	r17
    4616:	0f 91       	pop	r16
    4618:	ff 90       	pop	r15
    461a:	ef 90       	pop	r14
    461c:	df 90       	pop	r13
    461e:	cf 90       	pop	r12
    4620:	bf 90       	pop	r11
    4622:	af 90       	pop	r10
    4624:	9f 90       	pop	r9
    4626:	8f 90       	pop	r8
    4628:	7f 90       	pop	r7
    462a:	6f 90       	pop	r6
    462c:	5f 90       	pop	r5
    462e:	4f 90       	pop	r4
    4630:	08 95       	ret

00004632 <BMP390_temp_press_update>:

void BMP390_temp_press_update(void)
{
	BMP390_init();
    4632:	0e 94 30 21 	call	0x4260	; 0x4260 <BMP390_init>
	BMP390_read_raw_temp_press(&TempPress_data);
    4636:	8c e9       	ldi	r24, 0x9C	; 156
    4638:	9d e0       	ldi	r25, 0x0D	; 13
    463a:	0e 94 40 21 	call	0x4280	; 0x4280 <BMP390_read_raw_temp_press>
	BMP390_compensate_temperature(&TempPress_data);
    463e:	8c e9       	ldi	r24, 0x9C	; 156
    4640:	9d e0       	ldi	r25, 0x0D	; 13
    4642:	0e 94 9d 21 	call	0x433a	; 0x433a <BMP390_compensate_temperature>
	BMP390_compensate_pressure(&TempPress_data);
    4646:	8c e9       	ldi	r24, 0x9C	; 156
    4648:	9d e0       	ldi	r25, 0x0D	; 13
    464a:	0e 94 e5 21 	call	0x43ca	; 0x43ca <BMP390_compensate_pressure>
    464e:	08 95       	ret

00004650 <get_BMP390_temperature>:
}

int16_t	get_BMP390_temperature(void)
{
	return (int16_t)TempPress_data.temperature;
    4650:	60 91 a0 0d 	lds	r22, 0x0DA0	; 0x800da0 <TempPress_data+0x4>
    4654:	70 91 a1 0d 	lds	r23, 0x0DA1	; 0x800da1 <TempPress_data+0x5>
    4658:	80 91 a2 0d 	lds	r24, 0x0DA2	; 0x800da2 <TempPress_data+0x6>
    465c:	90 91 a3 0d 	lds	r25, 0x0DA3	; 0x800da3 <TempPress_data+0x7>
    4660:	0e 94 76 2a 	call	0x54ec	; 0x54ec <__fixsfsi>
}
    4664:	cb 01       	movw	r24, r22
    4666:	08 95       	ret

00004668 <get_BMP390_pressure>:
uint16_t get_BMP390_pressure(void)
{
	return (uint16_t)TempPress_data.pressure;
    4668:	60 91 a8 0d 	lds	r22, 0x0DA8	; 0x800da8 <TempPress_data+0xc>
    466c:	70 91 a9 0d 	lds	r23, 0x0DA9	; 0x800da9 <TempPress_data+0xd>
    4670:	80 91 aa 0d 	lds	r24, 0x0DAA	; 0x800daa <TempPress_data+0xe>
    4674:	90 91 ab 0d 	lds	r25, 0x0DAB	; 0x800dab <TempPress_data+0xf>
    4678:	0e 94 7d 2a 	call	0x54fa	; 0x54fa <__fixunssfsi>
    467c:	cb 01       	movw	r24, r22
    467e:	08 95       	ret

00004680 <lsm6dsox_write_register>:
#include "math.h"
#include "twi.h"
#include "IOU_board.h"
#include "uart.h"

bool lsm6dsox_write_register(uint8_t _reg, uint8_t _value) {
    4680:	cf 93       	push	r28
    4682:	df 93       	push	r29
    4684:	d8 2f       	mov	r29, r24
    4686:	c6 2f       	mov	r28, r22
	twi_start();
    4688:	0e 94 9a 18 	call	0x3134	; 0x3134 <twi_start>
	twi_write(LSM6DSOX_ADDRESS << 1);
    468c:	84 ed       	ldi	r24, 0xD4	; 212
    468e:	0e 94 b4 18 	call	0x3168	; 0x3168 <twi_write>
	twi_write(_reg);
    4692:	8d 2f       	mov	r24, r29
    4694:	0e 94 b4 18 	call	0x3168	; 0x3168 <twi_write>
	twi_write(_value);
    4698:	8c 2f       	mov	r24, r28
    469a:	0e 94 b4 18 	call	0x3168	; 0x3168 <twi_write>
	twi_stop();
    469e:	0e 94 a7 18 	call	0x314e	; 0x314e <twi_stop>
	return true;
}
    46a2:	81 e0       	ldi	r24, 0x01	; 1
    46a4:	df 91       	pop	r29
    46a6:	cf 91       	pop	r28
    46a8:	08 95       	ret

000046aa <lsm6dsox_read_register>:

uint8_t result;

uint8_t lsm6dsox_read_register(uint8_t _reg) {
    46aa:	cf 93       	push	r28
    46ac:	c8 2f       	mov	r28, r24
	twi_start();
    46ae:	0e 94 9a 18 	call	0x3134	; 0x3134 <twi_start>
	twi_write(LSM6DSOX_ADDRESS << 1);
    46b2:	84 ed       	ldi	r24, 0xD4	; 212
    46b4:	0e 94 b4 18 	call	0x3168	; 0x3168 <twi_write>
	twi_write(_reg);
    46b8:	8c 2f       	mov	r24, r28
    46ba:	0e 94 b4 18 	call	0x3168	; 0x3168 <twi_write>
	twi_start();
    46be:	0e 94 9a 18 	call	0x3134	; 0x3134 <twi_start>
	twi_write((LSM6DSOX_ADDRESS << 1) | 0x01);
    46c2:	85 ed       	ldi	r24, 0xD5	; 213
    46c4:	0e 94 b4 18 	call	0x3168	; 0x3168 <twi_write>
	result = twi_read_nack();
    46c8:	0e 94 d2 18 	call	0x31a4	; 0x31a4 <twi_read_nack>
    46cc:	80 93 fa 0d 	sts	0x0DFA, r24	; 0x800dfa <result>
	twi_stop();
    46d0:	0e 94 a7 18 	call	0x314e	; 0x314e <twi_stop>
	return result;
}
    46d4:	80 91 fa 0d 	lds	r24, 0x0DFA	; 0x800dfa <result>
    46d8:	cf 91       	pop	r28
    46da:	08 95       	ret

000046dc <lsm6dsox_init>:

bool lsm6dsox_init(void) {
	// Accelerometer: 104 Hz, 2g
	lsm6dsox_write_register(LSM6DSOX_CTRL1_XL, 0x40);
    46dc:	60 e4       	ldi	r22, 0x40	; 64
    46de:	80 e1       	ldi	r24, 0x10	; 16
    46e0:	0e 94 40 23 	call	0x4680	; 0x4680 <lsm6dsox_write_register>
	// Gyroscope: 104 Hz, 250 dps
	lsm6dsox_write_register(LSM6DSOX_CTRL2_G, 0x40);
    46e4:	60 e4       	ldi	r22, 0x40	; 64
    46e6:	81 e1       	ldi	r24, 0x11	; 17
    46e8:	0e 94 40 23 	call	0x4680	; 0x4680 <lsm6dsox_write_register>
	if (!lsm6dsox_read_register(LSM6DSOX_OUTZ_H_A))
    46ec:	8d e2       	ldi	r24, 0x2D	; 45
    46ee:	0e 94 55 23 	call	0x46aa	; 0x46aa <lsm6dsox_read_register>
    46f2:	91 e0       	ldi	r25, 0x01	; 1
    46f4:	81 11       	cpse	r24, r1
    46f6:	01 c0       	rjmp	.+2      	; 0x46fa <lsm6dsox_init+0x1e>
    46f8:	90 e0       	ldi	r25, 0x00	; 0
		return false;
	return true;
}
    46fa:	89 2f       	mov	r24, r25
    46fc:	08 95       	ret

000046fe <read_accel>:


void read_accel(Accel_Gyro_DataTypedef* _accel)
{
    46fe:	cf 92       	push	r12
    4700:	df 92       	push	r13
    4702:	ef 92       	push	r14
    4704:	ff 92       	push	r15
    4706:	0f 93       	push	r16
    4708:	1f 93       	push	r17
    470a:	cf 93       	push	r28
    470c:	df 93       	push	r29
    470e:	ec 01       	movw	r28, r24
	uint8_t ax_low	= lsm6dsox_read_register(LSM6DSOX_OUTX_L_A);
    4710:	88 e2       	ldi	r24, 0x28	; 40
    4712:	0e 94 55 23 	call	0x46aa	; 0x46aa <lsm6dsox_read_register>
    4716:	e8 2e       	mov	r14, r24
	uint8_t ax_high = lsm6dsox_read_register(LSM6DSOX_OUTX_H_A);
    4718:	89 e2       	ldi	r24, 0x29	; 41
    471a:	0e 94 55 23 	call	0x46aa	; 0x46aa <lsm6dsox_read_register>
    471e:	c8 2e       	mov	r12, r24
	uint8_t ay_low	= lsm6dsox_read_register(LSM6DSOX_OUTY_L_A);
    4720:	8a e2       	ldi	r24, 0x2A	; 42
    4722:	0e 94 55 23 	call	0x46aa	; 0x46aa <lsm6dsox_read_register>
    4726:	08 2f       	mov	r16, r24
	uint8_t ay_high = lsm6dsox_read_register(LSM6DSOX_OUTY_H_A);
    4728:	8b e2       	ldi	r24, 0x2B	; 43
    472a:	0e 94 55 23 	call	0x46aa	; 0x46aa <lsm6dsox_read_register>
    472e:	d8 2e       	mov	r13, r24
	uint8_t az_low	= lsm6dsox_read_register(LSM6DSOX_OUTZ_L_A);
    4730:	8c e2       	ldi	r24, 0x2C	; 44
    4732:	0e 94 55 23 	call	0x46aa	; 0x46aa <lsm6dsox_read_register>
    4736:	18 2f       	mov	r17, r24
	uint8_t az_high = lsm6dsox_read_register(LSM6DSOX_OUTZ_H_A);
    4738:	8d e2       	ldi	r24, 0x2D	; 45
    473a:	0e 94 55 23 	call	0x46aa	; 0x46aa <lsm6dsox_read_register>
    473e:	f8 2e       	mov	r15, r24
	
	_accel->x = (int16_t)(ax_high << 8 | ax_low) * LSM6DSOX_ACCL_FS_2G;
    4740:	6e 2d       	mov	r22, r14
    4742:	70 e0       	ldi	r23, 0x00	; 0
    4744:	7c 29       	or	r23, r12
    4746:	07 2e       	mov	r0, r23
    4748:	00 0c       	add	r0, r0
    474a:	88 0b       	sbc	r24, r24
    474c:	99 0b       	sbc	r25, r25
    474e:	0e 94 ae 2a 	call	0x555c	; 0x555c <__floatsisf>
    4752:	23 e2       	ldi	r18, 0x23	; 35
    4754:	3b ed       	ldi	r19, 0xDB	; 219
    4756:	49 e7       	ldi	r20, 0x79	; 121
    4758:	5d e3       	ldi	r21, 0x3D	; 61
    475a:	0e 94 3a 2b 	call	0x5674	; 0x5674 <__mulsf3>
    475e:	0e 94 76 2a 	call	0x54ec	; 0x54ec <__fixsfsi>
    4762:	79 83       	std	Y+1, r23	; 0x01
    4764:	68 83       	st	Y, r22
	_accel->y = (int16_t)(ay_high << 8 | ay_low) * LSM6DSOX_ACCL_FS_2G;
    4766:	60 2f       	mov	r22, r16
    4768:	70 e0       	ldi	r23, 0x00	; 0
    476a:	7d 29       	or	r23, r13
    476c:	07 2e       	mov	r0, r23
    476e:	00 0c       	add	r0, r0
    4770:	88 0b       	sbc	r24, r24
    4772:	99 0b       	sbc	r25, r25
    4774:	0e 94 ae 2a 	call	0x555c	; 0x555c <__floatsisf>
    4778:	23 e2       	ldi	r18, 0x23	; 35
    477a:	3b ed       	ldi	r19, 0xDB	; 219
    477c:	49 e7       	ldi	r20, 0x79	; 121
    477e:	5d e3       	ldi	r21, 0x3D	; 61
    4780:	0e 94 3a 2b 	call	0x5674	; 0x5674 <__mulsf3>
    4784:	0e 94 76 2a 	call	0x54ec	; 0x54ec <__fixsfsi>
    4788:	7b 83       	std	Y+3, r23	; 0x03
    478a:	6a 83       	std	Y+2, r22	; 0x02
	_accel->z = (int16_t)(az_high << 8 | az_low) * LSM6DSOX_ACCL_FS_2G;
    478c:	61 2f       	mov	r22, r17
    478e:	70 e0       	ldi	r23, 0x00	; 0
    4790:	7f 29       	or	r23, r15
    4792:	07 2e       	mov	r0, r23
    4794:	00 0c       	add	r0, r0
    4796:	88 0b       	sbc	r24, r24
    4798:	99 0b       	sbc	r25, r25
    479a:	0e 94 ae 2a 	call	0x555c	; 0x555c <__floatsisf>
    479e:	23 e2       	ldi	r18, 0x23	; 35
    47a0:	3b ed       	ldi	r19, 0xDB	; 219
    47a2:	49 e7       	ldi	r20, 0x79	; 121
    47a4:	5d e3       	ldi	r21, 0x3D	; 61
    47a6:	0e 94 3a 2b 	call	0x5674	; 0x5674 <__mulsf3>
    47aa:	0e 94 76 2a 	call	0x54ec	; 0x54ec <__fixsfsi>
    47ae:	7d 83       	std	Y+5, r23	; 0x05
    47b0:	6c 83       	std	Y+4, r22	; 0x04
}
    47b2:	df 91       	pop	r29
    47b4:	cf 91       	pop	r28
    47b6:	1f 91       	pop	r17
    47b8:	0f 91       	pop	r16
    47ba:	ff 90       	pop	r15
    47bc:	ef 90       	pop	r14
    47be:	df 90       	pop	r13
    47c0:	cf 90       	pop	r12
    47c2:	08 95       	ret

000047c4 <read_gyro>:
void read_gyro(Accel_Gyro_DataTypedef* _gyro)
{
    47c4:	cf 92       	push	r12
    47c6:	df 92       	push	r13
    47c8:	ef 92       	push	r14
    47ca:	ff 92       	push	r15
    47cc:	0f 93       	push	r16
    47ce:	1f 93       	push	r17
    47d0:	cf 93       	push	r28
    47d2:	df 93       	push	r29
    47d4:	ec 01       	movw	r28, r24
	uint8_t gx_low	= lsm6dsox_read_register(LSM6DSOX_OUTX_L_G);
    47d6:	82 e2       	ldi	r24, 0x22	; 34
    47d8:	0e 94 55 23 	call	0x46aa	; 0x46aa <lsm6dsox_read_register>
    47dc:	e8 2e       	mov	r14, r24
	uint8_t gx_high = lsm6dsox_read_register(LSM6DSOX_OUTX_H_G);
    47de:	83 e2       	ldi	r24, 0x23	; 35
    47e0:	0e 94 55 23 	call	0x46aa	; 0x46aa <lsm6dsox_read_register>
    47e4:	c8 2e       	mov	r12, r24
	uint8_t gy_low	= lsm6dsox_read_register(LSM6DSOX_OUTY_L_G);
    47e6:	84 e2       	ldi	r24, 0x24	; 36
    47e8:	0e 94 55 23 	call	0x46aa	; 0x46aa <lsm6dsox_read_register>
    47ec:	08 2f       	mov	r16, r24
	uint8_t gy_high	= lsm6dsox_read_register(LSM6DSOX_OUTY_H_A);
    47ee:	8b e2       	ldi	r24, 0x2B	; 43
    47f0:	0e 94 55 23 	call	0x46aa	; 0x46aa <lsm6dsox_read_register>
    47f4:	d8 2e       	mov	r13, r24
	uint8_t gz_low	= lsm6dsox_read_register(LSM6DSOX_OUTZ_L_A);
    47f6:	8c e2       	ldi	r24, 0x2C	; 44
    47f8:	0e 94 55 23 	call	0x46aa	; 0x46aa <lsm6dsox_read_register>
    47fc:	18 2f       	mov	r17, r24
	uint8_t gz_high	= lsm6dsox_read_register(LSM6DSOX_OUTZ_H_A);
    47fe:	8d e2       	ldi	r24, 0x2D	; 45
    4800:	0e 94 55 23 	call	0x46aa	; 0x46aa <lsm6dsox_read_register>
    4804:	f8 2e       	mov	r15, r24

	_gyro->x = (int16_t)(gx_high << 8 | gx_low) * GYRO_SENSITIVITY_250DPS / 1000.0f;  // convert mdps to dps
    4806:	6e 2d       	mov	r22, r14
    4808:	70 e0       	ldi	r23, 0x00	; 0
    480a:	7c 29       	or	r23, r12
    480c:	07 2e       	mov	r0, r23
    480e:	00 0c       	add	r0, r0
    4810:	88 0b       	sbc	r24, r24
    4812:	99 0b       	sbc	r25, r25
    4814:	0e 94 ae 2a 	call	0x555c	; 0x555c <__floatsisf>
    4818:	20 e0       	ldi	r18, 0x00	; 0
    481a:	30 e0       	ldi	r19, 0x00	; 0
    481c:	4c e0       	ldi	r20, 0x0C	; 12
    481e:	51 e4       	ldi	r21, 0x41	; 65
    4820:	0e 94 3a 2b 	call	0x5674	; 0x5674 <__mulsf3>
    4824:	20 e0       	ldi	r18, 0x00	; 0
    4826:	30 e0       	ldi	r19, 0x00	; 0
    4828:	4a e7       	ldi	r20, 0x7A	; 122
    482a:	54 e4       	ldi	r21, 0x44	; 68
    482c:	0e 94 04 2a 	call	0x5408	; 0x5408 <__divsf3>
    4830:	0e 94 76 2a 	call	0x54ec	; 0x54ec <__fixsfsi>
    4834:	79 83       	std	Y+1, r23	; 0x01
    4836:	68 83       	st	Y, r22
	_gyro->y = (int16_t)(gy_high << 8 | gy_low) * GYRO_SENSITIVITY_250DPS / 1000.0f;  // convert mdps to dps
    4838:	60 2f       	mov	r22, r16
    483a:	70 e0       	ldi	r23, 0x00	; 0
    483c:	7d 29       	or	r23, r13
    483e:	07 2e       	mov	r0, r23
    4840:	00 0c       	add	r0, r0
    4842:	88 0b       	sbc	r24, r24
    4844:	99 0b       	sbc	r25, r25
    4846:	0e 94 ae 2a 	call	0x555c	; 0x555c <__floatsisf>
    484a:	20 e0       	ldi	r18, 0x00	; 0
    484c:	30 e0       	ldi	r19, 0x00	; 0
    484e:	4c e0       	ldi	r20, 0x0C	; 12
    4850:	51 e4       	ldi	r21, 0x41	; 65
    4852:	0e 94 3a 2b 	call	0x5674	; 0x5674 <__mulsf3>
    4856:	20 e0       	ldi	r18, 0x00	; 0
    4858:	30 e0       	ldi	r19, 0x00	; 0
    485a:	4a e7       	ldi	r20, 0x7A	; 122
    485c:	54 e4       	ldi	r21, 0x44	; 68
    485e:	0e 94 04 2a 	call	0x5408	; 0x5408 <__divsf3>
    4862:	0e 94 76 2a 	call	0x54ec	; 0x54ec <__fixsfsi>
    4866:	7b 83       	std	Y+3, r23	; 0x03
    4868:	6a 83       	std	Y+2, r22	; 0x02
	_gyro->z = (int16_t)(gz_high << 8 | gz_low) * GYRO_SENSITIVITY_250DPS / 1000.0f;  // convert mdps to dps
    486a:	61 2f       	mov	r22, r17
    486c:	70 e0       	ldi	r23, 0x00	; 0
    486e:	7f 29       	or	r23, r15
    4870:	07 2e       	mov	r0, r23
    4872:	00 0c       	add	r0, r0
    4874:	88 0b       	sbc	r24, r24
    4876:	99 0b       	sbc	r25, r25
    4878:	0e 94 ae 2a 	call	0x555c	; 0x555c <__floatsisf>
    487c:	20 e0       	ldi	r18, 0x00	; 0
    487e:	30 e0       	ldi	r19, 0x00	; 0
    4880:	4c e0       	ldi	r20, 0x0C	; 12
    4882:	51 e4       	ldi	r21, 0x41	; 65
    4884:	0e 94 3a 2b 	call	0x5674	; 0x5674 <__mulsf3>
    4888:	20 e0       	ldi	r18, 0x00	; 0
    488a:	30 e0       	ldi	r19, 0x00	; 0
    488c:	4a e7       	ldi	r20, 0x7A	; 122
    488e:	54 e4       	ldi	r21, 0x44	; 68
    4890:	0e 94 04 2a 	call	0x5408	; 0x5408 <__divsf3>
    4894:	0e 94 76 2a 	call	0x54ec	; 0x54ec <__fixsfsi>
    4898:	7d 83       	std	Y+5, r23	; 0x05
    489a:	6c 83       	std	Y+4, r22	; 0x04
    489c:	df 91       	pop	r29
    489e:	cf 91       	pop	r28
    48a0:	1f 91       	pop	r17
    48a2:	0f 91       	pop	r16
    48a4:	ff 90       	pop	r15
    48a6:	ef 90       	pop	r14
    48a8:	df 90       	pop	r13
    48aa:	cf 90       	pop	r12
    48ac:	08 95       	ret

000048ae <MCP4921_init>:
void MCP4291_assert_LDAC(void);
void MCP4291_deassert_LDAC(void);

void	MCP4921_init(void)
{
		MCP4921_SS0_DDR |= 1 << MCP4921_SS0_PIN;
    48ae:	bc 9a       	sbi	0x17, 4	; 23
		MCP4921_SS1_DDR |= 1 << MCP4921_SS1_PIN;
    48b0:	8e 9a       	sbi	0x11, 6	; 17
		MCP4921_SS2_DDR |= 1 << MCP4921_SS2_PIN;
    48b2:	a4 9a       	sbi	0x14, 4	; 20
		MCP4921_SS3_DDR |= 1 << MCP4921_SS3_PIN;
    48b4:	a5 9a       	sbi	0x14, 5	; 20
		MCP4921_LDAC_DDR |= 1 << MCP4921_LDAC_PIN;
    48b6:	8f 9a       	sbi	0x11, 7	; 17
		SPI_Init();
    48b8:	0e 94 7c 18 	call	0x30f8	; 0x30f8 <SPI_Init>
    48bc:	08 95       	ret

000048be <MCP4291_AssertSS>:
}

// Assert the SS line
void MCP4291_AssertSS(uint8_t CS_line)
{
	switch (CS_line)
    48be:	81 30       	cpi	r24, 0x01	; 1
    48c0:	41 f0       	breq	.+16     	; 0x48d2 <MCP4291_AssertSS+0x14>
    48c2:	28 f0       	brcs	.+10     	; 0x48ce <MCP4291_AssertSS+0x10>
    48c4:	82 30       	cpi	r24, 0x02	; 2
    48c6:	39 f0       	breq	.+14     	; 0x48d6 <MCP4291_AssertSS+0x18>
    48c8:	83 30       	cpi	r24, 0x03	; 3
    48ca:	39 f0       	breq	.+14     	; 0x48da <MCP4291_AssertSS+0x1c>
    48cc:	08 95       	ret
	{
		case 0:
			MCP4921_SS0_PORT &= ~(1 << MCP4921_SS0_PIN);
    48ce:	c4 98       	cbi	0x18, 4	; 24
			break;
    48d0:	08 95       	ret
		case 1:
			MCP4921_SS1_PORT &= ~(1 << MCP4921_SS1_PIN);
    48d2:	96 98       	cbi	0x12, 6	; 18
			break;
    48d4:	08 95       	ret
		case 2:
			MCP4921_SS2_PORT &= ~(1 << MCP4921_SS2_PIN);
    48d6:	ac 98       	cbi	0x15, 4	; 21
			break;
    48d8:	08 95       	ret
		case 3:
			MCP4921_SS3_PORT &= ~(1 << MCP4921_SS3_PIN);
    48da:	ad 98       	cbi	0x15, 5	; 21
    48dc:	08 95       	ret

000048de <MCP4291_DeassertSS>:
}

// Deassert the SS line
void MCP4291_DeassertSS(uint8_t CS_line)
{
	switch (CS_line)
    48de:	81 30       	cpi	r24, 0x01	; 1
    48e0:	41 f0       	breq	.+16     	; 0x48f2 <MCP4291_DeassertSS+0x14>
    48e2:	28 f0       	brcs	.+10     	; 0x48ee <MCP4291_DeassertSS+0x10>
    48e4:	82 30       	cpi	r24, 0x02	; 2
    48e6:	39 f0       	breq	.+14     	; 0x48f6 <MCP4291_DeassertSS+0x18>
    48e8:	83 30       	cpi	r24, 0x03	; 3
    48ea:	39 f0       	breq	.+14     	; 0x48fa <MCP4291_DeassertSS+0x1c>
    48ec:	08 95       	ret
	{
		case 0:
			MCP4921_SS0_PORT |= (1 << MCP4921_SS0_PIN);
    48ee:	c4 9a       	sbi	0x18, 4	; 24
			break;
    48f0:	08 95       	ret
		case 1:
			MCP4921_SS1_PORT |= (1 << MCP4921_SS1_PIN);
    48f2:	96 9a       	sbi	0x12, 6	; 18
			break;
    48f4:	08 95       	ret
		case 2:
			MCP4921_SS2_PORT |= (1 << MCP4921_SS2_PIN);
    48f6:	ac 9a       	sbi	0x15, 4	; 21
			break;
    48f8:	08 95       	ret
		case 3:
			MCP4921_SS3_PORT |= (1 << MCP4921_SS3_PIN);
    48fa:	ad 9a       	sbi	0x15, 5	; 21
    48fc:	08 95       	ret

000048fe <MCP4291_assert_LDAC>:
	}
}

void MCP4291_assert_LDAC(void)
{
	MCP4921_LDAC_PORT &= ~(1 << MCP4921_LDAC_PIN);
    48fe:	97 98       	cbi	0x12, 7	; 18
    4900:	08 95       	ret

00004902 <MCP4291_deassert_LDAC>:
}
void MCP4291_deassert_LDAC(void)
{
	MCP4921_LDAC_PORT |= (1 << MCP4921_LDAC_PIN);
    4902:	97 9a       	sbi	0x12, 7	; 18
    4904:	08 95       	ret

00004906 <MCP4291_set_output>:
  * @param	buf_ena = 1: output buffered.
  * @param	DAC_number: from 0-3
  * @retval status: 0 PASS, >0: error
  *****************************************************************************/
uint8_t	MCP4291_set_output(uint16_t	Val, uint8_t shutdown, uint8_t gain_ena, uint8_t buf_ena, uint8_t DAC_num)
{
    4906:	af 92       	push	r10
    4908:	bf 92       	push	r11
    490a:	cf 92       	push	r12
    490c:	df 92       	push	r13
    490e:	ef 92       	push	r14
    4910:	ff 92       	push	r15
    4912:	0f 93       	push	r16
    4914:	1f 93       	push	r17
    4916:	cf 93       	push	r28
    4918:	df 93       	push	r29
    491a:	cd b7       	in	r28, 0x3d	; 61
    491c:	de b7       	in	r29, 0x3e	; 62
    491e:	28 97       	sbiw	r28, 0x08	; 8
    4920:	0f b6       	in	r0, 0x3f	; 63
    4922:	f8 94       	cli
    4924:	de bf       	out	0x3e, r29	; 62
    4926:	0f be       	out	0x3f, r0	; 63
    4928:	cd bf       	out	0x3d, r28	; 61
	volatile mcp4921_config_t		s_mcp4921_config[4];
	if (DAC_num >3)	return 1;
    492a:	04 30       	cpi	r16, 0x04	; 4
    492c:	08 f0       	brcs	.+2      	; 0x4930 <MCP4291_set_output+0x2a>
    492e:	6c c0       	rjmp	.+216    	; 0x4a08 <MCP4291_set_output+0x102>
    4930:	12 2f       	mov	r17, r18
    4932:	b4 2e       	mov	r11, r20
    4934:	a6 2e       	mov	r10, r22
    4936:	6c 01       	movw	r12, r24
	
	MCP4291_AssertSS(DAC_num);
    4938:	80 2f       	mov	r24, r16
    493a:	0e 94 5f 24 	call	0x48be	; 0x48be <MCP4291_AssertSS>
	s_mcp4921_config[DAC_num].bitfield.data = Val ;
    493e:	e0 2e       	mov	r14, r16
    4940:	f1 2c       	mov	r15, r1
    4942:	c6 01       	movw	r24, r12
    4944:	9f 70       	andi	r25, 0x0F	; 15
    4946:	f7 01       	movw	r30, r14
    4948:	ee 0f       	add	r30, r30
    494a:	ff 1f       	adc	r31, r31
    494c:	21 e0       	ldi	r18, 0x01	; 1
    494e:	30 e0       	ldi	r19, 0x00	; 0
    4950:	2c 0f       	add	r18, r28
    4952:	3d 1f       	adc	r19, r29
    4954:	e2 0f       	add	r30, r18
    4956:	f3 1f       	adc	r31, r19
    4958:	80 83       	st	Z, r24
    495a:	9f 70       	andi	r25, 0x0F	; 15
    495c:	81 81       	ldd	r24, Z+1	; 0x01
    495e:	80 7f       	andi	r24, 0xF0	; 240
    4960:	89 2b       	or	r24, r25
    4962:	81 83       	std	Z+1, r24	; 0x01
	if (shutdown)
    4964:	aa 20       	and	r10, r10
    4966:	49 f0       	breq	.+18     	; 0x497a <MCP4291_set_output+0x74>
		s_mcp4921_config[DAC_num].bitfield.not_shutdown = 0;
    4968:	f7 01       	movw	r30, r14
    496a:	ee 0f       	add	r30, r30
    496c:	ff 1f       	adc	r31, r31
    496e:	e2 0f       	add	r30, r18
    4970:	f3 1f       	adc	r31, r19
    4972:	81 81       	ldd	r24, Z+1	; 0x01
    4974:	8f 7e       	andi	r24, 0xEF	; 239
    4976:	81 83       	std	Z+1, r24	; 0x01
    4978:	0c c0       	rjmp	.+24     	; 0x4992 <MCP4291_set_output+0x8c>
		else s_mcp4921_config[DAC_num].bitfield.not_shutdown = 1;
    497a:	f7 01       	movw	r30, r14
    497c:	ee 0f       	add	r30, r30
    497e:	ff 1f       	adc	r31, r31
    4980:	81 e0       	ldi	r24, 0x01	; 1
    4982:	90 e0       	ldi	r25, 0x00	; 0
    4984:	8c 0f       	add	r24, r28
    4986:	9d 1f       	adc	r25, r29
    4988:	e8 0f       	add	r30, r24
    498a:	f9 1f       	adc	r31, r25
    498c:	81 81       	ldd	r24, Z+1	; 0x01
    498e:	80 61       	ori	r24, 0x10	; 16
    4990:	81 83       	std	Z+1, r24	; 0x01
	if (gain_ena)	s_mcp4921_config[DAC_num].bitfield.ga = 0;
    4992:	bb 20       	and	r11, r11
    4994:	69 f0       	breq	.+26     	; 0x49b0 <MCP4291_set_output+0xaa>
    4996:	f7 01       	movw	r30, r14
    4998:	ee 0f       	add	r30, r30
    499a:	ff 1f       	adc	r31, r31
    499c:	21 e0       	ldi	r18, 0x01	; 1
    499e:	30 e0       	ldi	r19, 0x00	; 0
    49a0:	2c 0f       	add	r18, r28
    49a2:	3d 1f       	adc	r19, r29
    49a4:	e2 0f       	add	r30, r18
    49a6:	f3 1f       	adc	r31, r19
    49a8:	81 81       	ldd	r24, Z+1	; 0x01
    49aa:	8f 7d       	andi	r24, 0xDF	; 223
    49ac:	81 83       	std	Z+1, r24	; 0x01
    49ae:	0c c0       	rjmp	.+24     	; 0x49c8 <MCP4291_set_output+0xc2>
	else s_mcp4921_config[DAC_num].bitfield.ga = 1;
    49b0:	f7 01       	movw	r30, r14
    49b2:	ee 0f       	add	r30, r30
    49b4:	ff 1f       	adc	r31, r31
    49b6:	81 e0       	ldi	r24, 0x01	; 1
    49b8:	90 e0       	ldi	r25, 0x00	; 0
    49ba:	8c 0f       	add	r24, r28
    49bc:	9d 1f       	adc	r25, r29
    49be:	e8 0f       	add	r30, r24
    49c0:	f9 1f       	adc	r31, r25
    49c2:	81 81       	ldd	r24, Z+1	; 0x01
    49c4:	80 62       	ori	r24, 0x20	; 32
    49c6:	81 83       	std	Z+1, r24	; 0x01
	s_mcp4921_config[DAC_num].bitfield.buf = buf_ena;
    49c8:	ee 0c       	add	r14, r14
    49ca:	ff 1c       	adc	r15, r15
    49cc:	e1 e0       	ldi	r30, 0x01	; 1
    49ce:	f0 e0       	ldi	r31, 0x00	; 0
    49d0:	ec 0f       	add	r30, r28
    49d2:	fd 1f       	adc	r31, r29
    49d4:	ee 0e       	add	r14, r30
    49d6:	ff 1e       	adc	r15, r31
    49d8:	f7 01       	movw	r30, r14
    49da:	81 81       	ldd	r24, Z+1	; 0x01
    49dc:	10 fb       	bst	r17, 0
    49de:	86 f9       	bld	r24, 6
    49e0:	81 83       	std	Z+1, r24	; 0x01
	s_mcp4921_config[DAC_num].bitfield.not_write = 0;
    49e2:	81 81       	ldd	r24, Z+1	; 0x01
    49e4:	8f 77       	andi	r24, 0x7F	; 127
    49e6:	81 83       	std	Z+1, r24	; 0x01
	
	SPI_SendByte(s_mcp4921_config[DAC_num].bytefield.byte1);
    49e8:	81 81       	ldd	r24, Z+1	; 0x01
    49ea:	0e 94 86 18 	call	0x310c	; 0x310c <SPI_SendByte>

	SPI_SendByte(s_mcp4921_config[DAC_num].bytefield.byte0);
    49ee:	f7 01       	movw	r30, r14
    49f0:	80 81       	ld	r24, Z
    49f2:	0e 94 86 18 	call	0x310c	; 0x310c <SPI_SendByte>

	MCP4291_DeassertSS(DAC_num);
    49f6:	80 2f       	mov	r24, r16
    49f8:	0e 94 6f 24 	call	0x48de	; 0x48de <MCP4291_DeassertSS>
	MCP4291_assert_LDAC();
    49fc:	0e 94 7f 24 	call	0x48fe	; 0x48fe <MCP4291_assert_LDAC>
	MCP4291_deassert_LDAC();
    4a00:	0e 94 81 24 	call	0x4902	; 0x4902 <MCP4291_deassert_LDAC>
	return	0;
    4a04:	80 e0       	ldi	r24, 0x00	; 0
    4a06:	01 c0       	rjmp	.+2      	; 0x4a0a <MCP4291_set_output+0x104>
  * @retval status: 0 PASS, >0: error
  *****************************************************************************/
uint8_t	MCP4291_set_output(uint16_t	Val, uint8_t shutdown, uint8_t gain_ena, uint8_t buf_ena, uint8_t DAC_num)
{
	volatile mcp4921_config_t		s_mcp4921_config[4];
	if (DAC_num >3)	return 1;
    4a08:	81 e0       	ldi	r24, 0x01	; 1

	MCP4291_DeassertSS(DAC_num);
	MCP4291_assert_LDAC();
	MCP4291_deassert_LDAC();
	return	0;
    4a0a:	28 96       	adiw	r28, 0x08	; 8
    4a0c:	0f b6       	in	r0, 0x3f	; 63
    4a0e:	f8 94       	cli
    4a10:	de bf       	out	0x3e, r29	; 62
    4a12:	0f be       	out	0x3f, r0	; 63
    4a14:	cd bf       	out	0x3d, r28	; 61
    4a16:	df 91       	pop	r29
    4a18:	cf 91       	pop	r28
    4a1a:	1f 91       	pop	r17
    4a1c:	0f 91       	pop	r16
    4a1e:	ff 90       	pop	r15
    4a20:	ef 90       	pop	r14
    4a22:	df 90       	pop	r13
    4a24:	cf 90       	pop	r12
    4a26:	bf 90       	pop	r11
    4a28:	af 90       	pop	r10
    4a2a:	08 95       	ret

00004a2c <get_NTC_temperature_using_table>:
	1969, 2045, 2136, 2249, 2394, 2593, 2902,
	3521, 4140
};

int16_t get_NTC_temperature_using_table(uint8_t channel){
	uint16_t ADCVal  = adc_read(channel);
    4a2c:	0e 94 11 18 	call	0x3022	; 0x3022 <adc_read>
	return pgm_read_word(&NTC_table[ADCVal]);
    4a30:	88 0f       	add	r24, r24
    4a32:	99 1f       	adc	r25, r25
    4a34:	fc 01       	movw	r30, r24
    4a36:	e6 5f       	subi	r30, 0xF6	; 246
    4a38:	f4 4f       	sbci	r31, 0xF4	; 244
    4a3a:	85 91       	lpm	r24, Z+
    4a3c:	94 91       	lpm	r25, Z
};
    4a3e:	08 95       	ret

00004a40 <ringled_show>:
	ringled_clear();
	ringled_show(colorMap, LED_COUNT);
}

void __attribute__((noinline)) ringled_show(const rgbw_color *colors, uint8_t pixels)
{
    4a40:	fc 01       	movw	r30, r24
	RINGLED_PORT &= ~(1 << RINGLED_DQ);
    4a42:	c7 98       	cbi	0x18, 7	; 24
	RINGLED_DDR  |= (1 << RINGLED_DQ);
    4a44:	bf 9a       	sbi	0x17, 7	; 23
	
	cli();   // Disable interrupts temporarily because we don't want our pulse timing to be messed up.
    4a46:	f8 94       	cli
	while (pixels--)
    4a48:	2f ef       	ldi	r18, 0xFF	; 255
    4a4a:	26 0f       	add	r18, r22
    4a4c:	66 23       	and	r22, r22
    4a4e:	09 f4       	brne	.+2      	; 0x4a52 <ringled_show+0x12>
    4a50:	28 c0       	rjmp	.+80     	; 0x4aa2 <led_strip_asm_end35+0x6>
	{
		uint8_t portValue = RINGLED_PORT;
    4a52:	98 b3       	in	r25, 0x18	; 24
		// Send a color to the LED strip.
		// The assembly below also increments the 'colors' pointer,
		// it will be pointing to the next color at the end of this loop.
		asm volatile (
    4a54:	89 2f       	mov	r24, r25
    4a56:	8f 77       	andi	r24, 0x7F	; 127
    4a58:	90 68       	ori	r25, 0x80	; 128
    4a5a:	01 90       	ld	r0, Z+
    4a5c:	00 80       	ld	r0, Z
    4a5e:	09 d0       	rcall	.+18     	; 0x4a72 <send_led_strip_byte35>
    4a60:	02 90       	ld	r0, -Z
    4a62:	07 d0       	rcall	.+14     	; 0x4a72 <send_led_strip_byte35>
    4a64:	01 90       	ld	r0, Z+
    4a66:	01 90       	ld	r0, Z+
    4a68:	01 90       	ld	r0, Z+
    4a6a:	03 d0       	rcall	.+6      	; 0x4a72 <send_led_strip_byte35>
    4a6c:	01 90       	ld	r0, Z+
    4a6e:	01 d0       	rcall	.+2      	; 0x4a72 <send_led_strip_byte35>
    4a70:	15 c0       	rjmp	.+42     	; 0x4a9c <led_strip_asm_end35>

00004a72 <send_led_strip_byte35>:
    4a72:	08 d0       	rcall	.+16     	; 0x4a84 <send_led_strip_bit35>
    4a74:	07 d0       	rcall	.+14     	; 0x4a84 <send_led_strip_bit35>
    4a76:	06 d0       	rcall	.+12     	; 0x4a84 <send_led_strip_bit35>
    4a78:	05 d0       	rcall	.+10     	; 0x4a84 <send_led_strip_bit35>
    4a7a:	04 d0       	rcall	.+8      	; 0x4a84 <send_led_strip_bit35>
    4a7c:	03 d0       	rcall	.+6      	; 0x4a84 <send_led_strip_bit35>
    4a7e:	02 d0       	rcall	.+4      	; 0x4a84 <send_led_strip_bit35>
    4a80:	01 d0       	rcall	.+2      	; 0x4a84 <send_led_strip_bit35>
    4a82:	08 95       	ret

00004a84 <send_led_strip_bit35>:
    4a84:	00 1c       	adc	r0, r0
    4a86:	90 93 38 00 	sts	0x0038, r25	; 0x800038 <__TEXT_REGION_LENGTH__+0x7f0038>
    4a8a:	10 f0       	brcs	.+4      	; 0x4a90 <send_led_strip_bit35+0xc>
    4a8c:	80 93 38 00 	sts	0x0038, r24	; 0x800038 <__TEXT_REGION_LENGTH__+0x7f0038>
    4a90:	00 00       	nop
    4a92:	00 00       	nop
    4a94:	10 f4       	brcc	.+4      	; 0x4a9a <send_led_strip_bit35+0x16>
    4a96:	80 93 38 00 	sts	0x0038, r24	; 0x800038 <__TEXT_REGION_LENGTH__+0x7f0038>
    4a9a:	08 95       	ret

00004a9c <led_strip_asm_end35>:
{
	RINGLED_PORT &= ~(1 << RINGLED_DQ);
	RINGLED_DDR  |= (1 << RINGLED_DQ);
	
	cli();   // Disable interrupts temporarily because we don't want our pulse timing to be messed up.
	while (pixels--)
    4a9c:	21 50       	subi	r18, 0x01	; 1
    4a9e:	08 f0       	brcs	.+2      	; 0x4aa2 <led_strip_asm_end35+0x6>
    4aa0:	d8 cf       	rjmp	.-80     	; 0x4a52 <ringled_show+0x12>
		"" (&RINGLED_PORT),   // %2 is the port register (e.g. PORTH)
		"r" ((uint8_t)(portValue & ~(1 << RINGLED_DQ))),  // %3
		"r" ((uint8_t)(portValue | (1 << RINGLED_DQ)))    // %4
		);
	}
	sei();          // Re-enable interrupts now that we are done.
    4aa2:	78 94       	sei
    4aa4:	08 95       	ret

00004aa6 <ringled_clear>:
}


void ringled_clear(void)
{
    4aa6:	80 e0       	ldi	r24, 0x00	; 0
    4aa8:	90 e0       	ldi	r25, 0x00	; 0
	for (uint8_t i = 0; i < LED_COUNT; i++)
	colorMap[i] = (rgbw_color){0, 0, 0, 0};
    4aaa:	fc 01       	movw	r30, r24
    4aac:	ee 0f       	add	r30, r30
    4aae:	ff 1f       	adc	r31, r31
    4ab0:	ee 0f       	add	r30, r30
    4ab2:	ff 1f       	adc	r31, r31
    4ab4:	e2 5d       	subi	r30, 0xD2	; 210
    4ab6:	f3 4f       	sbci	r31, 0xF3	; 243
    4ab8:	10 82       	st	Z, r1
    4aba:	11 82       	std	Z+1, r1	; 0x01
    4abc:	12 82       	std	Z+2, r1	; 0x02
    4abe:	13 82       	std	Z+3, r1	; 0x03
    4ac0:	01 96       	adiw	r24, 0x01	; 1
}


void ringled_clear(void)
{
	for (uint8_t i = 0; i < LED_COUNT; i++)
    4ac2:	8a 30       	cpi	r24, 0x0A	; 10
    4ac4:	91 05       	cpc	r25, r1
    4ac6:	89 f7       	brne	.-30     	; 0x4aaa <ringled_clear+0x4>
	colorMap[i] = (rgbw_color){0, 0, 0, 0};
}
    4ac8:	08 95       	ret

00004aca <ringled_init>:

rgbw_color status_rgbw_color;

void ringled_init(void)
{
	ringled_clear();
    4aca:	0e 94 53 25 	call	0x4aa6	; 0x4aa6 <ringled_clear>
	ringled_show(colorMap, LED_COUNT);
    4ace:	6a e0       	ldi	r22, 0x0A	; 10
    4ad0:	8e e2       	ldi	r24, 0x2E	; 46
    4ad2:	9c e0       	ldi	r25, 0x0C	; 12
    4ad4:	0e 94 20 25 	call	0x4a40	; 0x4a40 <ringled_show>
    4ad8:	08 95       	ret

00004ada <ringled_set_RGBW>:
	colorMap[i] = (rgbw_color){0, 0, 0, 0};
}

void ringled_set_RGBW(uint8_t red, uint8_t green, uint8_t blue, uint8_t white)
{
	status_rgbw_color = (rgbw_color){red, green, blue, white};
    4ada:	eb ef       	ldi	r30, 0xFB	; 251
    4adc:	fd e0       	ldi	r31, 0x0D	; 13
    4ade:	80 83       	st	Z, r24
    4ae0:	61 83       	std	Z+1, r22	; 0x01
    4ae2:	42 83       	std	Z+2, r20	; 0x02
    4ae4:	23 83       	std	Z+3, r18	; 0x03
    4ae6:	ee e2       	ldi	r30, 0x2E	; 46
    4ae8:	fc e0       	ldi	r31, 0x0C	; 12
    4aea:	a6 e5       	ldi	r26, 0x56	; 86
    4aec:	bc e0       	ldi	r27, 0x0C	; 12
	for (uint8_t i = 0; i < LED_COUNT; i++)
		colorMap[i] = (rgbw_color){red, green, blue, white};
    4aee:	80 83       	st	Z, r24
    4af0:	61 83       	std	Z+1, r22	; 0x01
    4af2:	42 83       	std	Z+2, r20	; 0x02
    4af4:	23 83       	std	Z+3, r18	; 0x03
    4af6:	34 96       	adiw	r30, 0x04	; 4
}

void ringled_set_RGBW(uint8_t red, uint8_t green, uint8_t blue, uint8_t white)
{
	status_rgbw_color = (rgbw_color){red, green, blue, white};
	for (uint8_t i = 0; i < LED_COUNT; i++)
    4af8:	ea 17       	cp	r30, r26
    4afa:	fb 07       	cpc	r31, r27
    4afc:	c1 f7       	brne	.-16     	; 0x4aee <ringled_set_RGBW+0x14>
		colorMap[i] = (rgbw_color){red, green, blue, white};
	ringled_show(colorMap, LED_COUNT);
    4afe:	6a e0       	ldi	r22, 0x0A	; 10
    4b00:	8e e2       	ldi	r24, 0x2E	; 46
    4b02:	9c e0       	ldi	r25, 0x0C	; 12
    4b04:	0e 94 20 25 	call	0x4a40	; 0x4a40 <ringled_show>
    4b08:	08 95       	ret

00004b0a <ringled_get_RGBW>:
}

rgbw_color ringled_get_RGBW(void)
{
	return status_rgbw_color;
    4b0a:	60 91 fb 0d 	lds	r22, 0x0DFB	; 0x800dfb <status_rgbw_color>
    4b0e:	70 91 fc 0d 	lds	r23, 0x0DFC	; 0x800dfc <status_rgbw_color+0x1>
    4b12:	80 91 fd 0d 	lds	r24, 0x0DFD	; 0x800dfd <status_rgbw_color+0x2>
    4b16:	90 91 fe 0d 	lds	r25, 0x0DFE	; 0x800dfe <status_rgbw_color+0x3>
    4b1a:	08 95       	ret

00004b1c <TEC_init>:
#include "TEC.h"
#include <avr/io.h>
#include "IOU_board.h"
void	TEC_init(void)
{
	TEC_SHUTDOWN_TEC0_DDR |= (1<< TEC_SHUTDOWN_TEC0_PIN);
    4b1c:	e4 e6       	ldi	r30, 0x64	; 100
    4b1e:	f0 e0       	ldi	r31, 0x00	; 0
    4b20:	80 81       	ld	r24, Z
    4b22:	81 60       	ori	r24, 0x01	; 1
    4b24:	80 83       	st	Z, r24
	TEC_SHUTDOWN_TEC1_DDR |= (1<< TEC_SHUTDOWN_TEC1_PIN);
    4b26:	d7 9a       	sbi	0x1a, 7	; 26
	TEC_SHUTDOWN_TEC2_DDR |= (1<< TEC_SHUTDOWN_TEC2_PIN);
    4b28:	d4 9a       	sbi	0x1a, 4	; 26
	TEC_SHUTDOWN_TEC3_DDR |= (1<< TEC_SHUTDOWN_TEC3_PIN);
    4b2a:	a6 9a       	sbi	0x14, 6	; 20
    4b2c:	08 95       	ret

00004b2e <TEC_enable>:
}

uint8_t	TEC_enable(uint8_t	TEC_device)
{
	switch (TEC_device)
    4b2e:	81 30       	cpi	r24, 0x01	; 1
    4b30:	69 f0       	breq	.+26     	; 0x4b4c <TEC_enable+0x1e>
    4b32:	28 f0       	brcs	.+10     	; 0x4b3e <TEC_enable+0x10>
    4b34:	82 30       	cpi	r24, 0x02	; 2
    4b36:	69 f0       	breq	.+26     	; 0x4b52 <TEC_enable+0x24>
    4b38:	83 30       	cpi	r24, 0x03	; 3
    4b3a:	71 f0       	breq	.+28     	; 0x4b58 <TEC_enable+0x2a>
    4b3c:	10 c0       	rjmp	.+32     	; 0x4b5e <TEC_enable+0x30>
	{
		case 0:
			TEC_SHUTDOWN_TEC0_PORT |= (1<< TEC_SHUTDOWN_TEC0_PIN);
    4b3e:	e5 e6       	ldi	r30, 0x65	; 101
    4b40:	f0 e0       	ldi	r31, 0x00	; 0
    4b42:	80 81       	ld	r24, Z
    4b44:	81 60       	ori	r24, 0x01	; 1
    4b46:	80 83       	st	Z, r24
			return 0;
    4b48:	80 e0       	ldi	r24, 0x00	; 0
    4b4a:	08 95       	ret
		case 1:
			TEC_SHUTDOWN_TEC1_PORT |= (1<< TEC_SHUTDOWN_TEC1_PIN);
    4b4c:	df 9a       	sbi	0x1b, 7	; 27
			return	0;
    4b4e:	80 e0       	ldi	r24, 0x00	; 0
    4b50:	08 95       	ret
		case 2:
			TEC_SHUTDOWN_TEC2_PORT |= (1<< TEC_SHUTDOWN_TEC2_PIN);
    4b52:	dc 9a       	sbi	0x1b, 4	; 27
			return 0;
    4b54:	80 e0       	ldi	r24, 0x00	; 0
    4b56:	08 95       	ret
		case 3:
			TEC_SHUTDOWN_TEC3_PORT |= (1<< TEC_SHUTDOWN_TEC3_PIN);
    4b58:	ae 9a       	sbi	0x15, 6	; 21
			return 0;
    4b5a:	80 e0       	ldi	r24, 0x00	; 0
    4b5c:	08 95       	ret
		default:
			return 1;
    4b5e:	81 e0       	ldi	r24, 0x01	; 1
	}
}
    4b60:	08 95       	ret

00004b62 <TEC_shutdown>:
	
uint8_t	TEC_shutdown(uint8_t	TEC_device)
{
	switch (TEC_device)
    4b62:	81 30       	cpi	r24, 0x01	; 1
    4b64:	69 f0       	breq	.+26     	; 0x4b80 <TEC_shutdown+0x1e>
    4b66:	28 f0       	brcs	.+10     	; 0x4b72 <TEC_shutdown+0x10>
    4b68:	82 30       	cpi	r24, 0x02	; 2
    4b6a:	69 f0       	breq	.+26     	; 0x4b86 <TEC_shutdown+0x24>
    4b6c:	83 30       	cpi	r24, 0x03	; 3
    4b6e:	71 f0       	breq	.+28     	; 0x4b8c <TEC_shutdown+0x2a>
    4b70:	10 c0       	rjmp	.+32     	; 0x4b92 <TEC_shutdown+0x30>
	{
		case 0:
			TEC_SHUTDOWN_TEC0_PORT &= ~(1<< TEC_SHUTDOWN_TEC0_PIN);
    4b72:	e5 e6       	ldi	r30, 0x65	; 101
    4b74:	f0 e0       	ldi	r31, 0x00	; 0
    4b76:	80 81       	ld	r24, Z
    4b78:	8e 7f       	andi	r24, 0xFE	; 254
    4b7a:	80 83       	st	Z, r24
			return 0;
    4b7c:	80 e0       	ldi	r24, 0x00	; 0
    4b7e:	08 95       	ret
		case 1:
			TEC_SHUTDOWN_TEC1_PORT &= ~(1<< TEC_SHUTDOWN_TEC1_PIN);
    4b80:	df 98       	cbi	0x1b, 7	; 27
			return	0;
    4b82:	80 e0       	ldi	r24, 0x00	; 0
    4b84:	08 95       	ret
		case 2:
			TEC_SHUTDOWN_TEC2_PORT &= ~(1<< TEC_SHUTDOWN_TEC2_PIN);
    4b86:	dc 98       	cbi	0x1b, 4	; 27
			return 0;
    4b88:	80 e0       	ldi	r24, 0x00	; 0
    4b8a:	08 95       	ret
		case 3:
			TEC_SHUTDOWN_TEC3_PORT &= ~(1<< TEC_SHUTDOWN_TEC3_PIN);
    4b8c:	ae 98       	cbi	0x15, 6	; 21
			return 0;
    4b8e:	80 e0       	ldi	r24, 0x00	; 0
    4b90:	08 95       	ret
		default:
			return 1;
    4b92:	81 e0       	ldi	r24, 0x01	; 1
	}
    4b94:	08 95       	ret

00004b96 <TPL5010_init>:
#include <avr/io.h>
#include "TPL5010.h"
#include "IOU_board.h"
void	TPL5010_init (void)
{
	TPL5010_DONE_DDR |=  (1 << TPL5010_DONE_PIN);	//done is output
    4b96:	12 9a       	sbi	0x02, 2	; 2
	TPL5010_WAKE_DDR &= ~(1 << TPL5010_WAKE_PIN);	//wake is input
    4b98:	16 98       	cbi	0x02, 6	; 2
	TPL5010_WAKE_PORT |=  (1 << TPL5010_WAKE_PIN);	//pull up Wake
    4b9a:	1e 9a       	sbi	0x03, 6	; 3
	TPL5010_DONE_PORT	&= ~(1 << TPL5010_DONE_PIN);	//init as 0
    4b9c:	1a 98       	cbi	0x03, 2	; 3
    4b9e:	08 95       	ret

00004ba0 <TPL5010_done_pulse>:
	return;
};
void	TPL5010_done_pulse (void)
{
	
	TPL5010_DONE_PORT	|= (1 << TPL5010_DONE_PIN);
    4ba0:	1a 9a       	sbi	0x03, 2	; 3
	TPL5010_DONE_PORT	&= ~(1 << TPL5010_DONE_PIN);
    4ba2:	1a 98       	cbi	0x03, 2	; 3
    4ba4:	08 95       	ret

00004ba6 <SCH_Initialize>:
    4ba6:	10 92 00 0e 	sts	0x0E00, r1	; 0x800e00 <s_SystemTick+0x1>
    4baa:	10 92 ff 0d 	sts	0x0DFF, r1	; 0x800dff <s_SystemTick>
    4bae:	10 92 e4 0b 	sts	0x0BE4, r1	; 0x800be4 <s_NumOfTaskScheduled>
    4bb2:	10 92 c5 0b 	sts	0x0BC5, r1	; 0x800bc5 <s_NumOfTimers>
    4bb6:	8c e3       	ldi	r24, 0x3C	; 60
    4bb8:	e5 ee       	ldi	r30, 0xE5	; 229
    4bba:	fb e0       	ldi	r31, 0x0B	; 11
    4bbc:	df 01       	movw	r26, r30
    4bbe:	1d 92       	st	X+, r1
    4bc0:	8a 95       	dec	r24
    4bc2:	e9 f7       	brne	.-6      	; 0x4bbe <SCH_Initialize+0x18>
    4bc4:	8e e1       	ldi	r24, 0x1E	; 30
    4bc6:	e6 ec       	ldi	r30, 0xC6	; 198
    4bc8:	fb e0       	ldi	r31, 0x0B	; 11
    4bca:	df 01       	movw	r26, r30
    4bcc:	1d 92       	st	X+, r1
    4bce:	8a 95       	dec	r24
    4bd0:	e9 f7       	brne	.-6      	; 0x4bcc <SCH_Initialize+0x26>
    4bd2:	88 e0       	ldi	r24, 0x08	; 8
    4bd4:	e1 e0       	ldi	r30, 0x01	; 1
    4bd6:	fe e0       	ldi	r31, 0x0E	; 14
    4bd8:	df 01       	movw	r26, r30
    4bda:	1d 92       	st	X+, r1
    4bdc:	8a 95       	dec	r24
    4bde:	e9 f7       	brne	.-6      	; 0x4bda <SCH_Initialize+0x34>
    4be0:	0e 94 93 18 	call	0x3126	; 0x3126 <timer_timer0_init>
    4be4:	08 95       	ret

00004be6 <SCH_TIM_Start>:
    4be6:	82 30       	cpi	r24, 0x02	; 2
    4be8:	40 f4       	brcc	.+16     	; 0x4bfa <SCH_TIM_Start+0x14>
    4bea:	e8 2f       	mov	r30, r24
    4bec:	f0 e0       	ldi	r31, 0x00	; 0
    4bee:	ee 0f       	add	r30, r30
    4bf0:	ff 1f       	adc	r31, r31
    4bf2:	ef 5f       	subi	r30, 0xFF	; 255
    4bf4:	f1 4f       	sbci	r31, 0xF1	; 241
    4bf6:	51 83       	std	Z+1, r21	; 0x01
    4bf8:	40 83       	st	Z, r20
    4bfa:	08 95       	ret

00004bfc <SCH_TIM_HasCompleted>:
    4bfc:	e8 2f       	mov	r30, r24
    4bfe:	f0 e0       	ldi	r31, 0x00	; 0
    4c00:	ee 0f       	add	r30, r30
    4c02:	ff 1f       	adc	r31, r31
    4c04:	ef 5f       	subi	r30, 0xFF	; 255
    4c06:	f1 4f       	sbci	r31, 0xF1	; 241
    4c08:	20 81       	ld	r18, Z
    4c0a:	31 81       	ldd	r19, Z+1	; 0x01
    4c0c:	81 e0       	ldi	r24, 0x01	; 1
    4c0e:	23 2b       	or	r18, r19
    4c10:	09 f0       	breq	.+2      	; 0x4c14 <SCH_TIM_HasCompleted+0x18>
    4c12:	80 e0       	ldi	r24, 0x00	; 0
    4c14:	08 95       	ret

00004c16 <SCH_TASK_CreateTask>:
    4c16:	cf 93       	push	r28
    4c18:	df 93       	push	r29
    4c1a:	ec 01       	movw	r28, r24
    4c1c:	89 2b       	or	r24, r25
    4c1e:	39 f1       	breq	.+78     	; 0x4c6e <SCH_TASK_CreateTask+0x58>
    4c20:	61 15       	cp	r22, r1
    4c22:	71 05       	cpc	r23, r1
    4c24:	31 f1       	breq	.+76     	; 0x4c72 <SCH_TASK_CreateTask+0x5c>
    4c26:	90 91 e4 0b 	lds	r25, 0x0BE4	; 0x800be4 <s_NumOfTaskScheduled>
    4c2a:	99 30       	cpi	r25, 0x09	; 9
    4c2c:	20 f5       	brcc	.+72     	; 0x4c76 <SCH_TASK_CreateTask+0x60>
    4c2e:	29 2f       	mov	r18, r25
    4c30:	30 e0       	ldi	r19, 0x00	; 0
    4c32:	f9 01       	movw	r30, r18
    4c34:	ee 0f       	add	r30, r30
    4c36:	ff 1f       	adc	r31, r31
    4c38:	df 01       	movw	r26, r30
    4c3a:	a2 0f       	add	r26, r18
    4c3c:	b3 1f       	adc	r27, r19
    4c3e:	aa 0f       	add	r26, r26
    4c40:	bb 1f       	adc	r27, r27
    4c42:	ab 51       	subi	r26, 0x1B	; 27
    4c44:	b4 4f       	sbci	r27, 0xF4	; 244
    4c46:	15 96       	adiw	r26, 0x05	; 5
    4c48:	7c 93       	st	X, r23
    4c4a:	6e 93       	st	-X, r22
    4c4c:	14 97       	sbiw	r26, 0x04	; 4
    4c4e:	11 96       	adiw	r26, 0x01	; 1
    4c50:	1c 92       	st	X, r1
    4c52:	11 97       	sbiw	r26, 0x01	; 1
    4c54:	13 96       	adiw	r26, 0x03	; 3
    4c56:	1c 92       	st	X, r1
    4c58:	1e 92       	st	-X, r1
    4c5a:	12 97       	sbiw	r26, 0x02	; 2
    4c5c:	fd 01       	movw	r30, r26
    4c5e:	81 e0       	ldi	r24, 0x01	; 1
    4c60:	80 83       	st	Z, r24
    4c62:	98 83       	st	Y, r25
    4c64:	9f 5f       	subi	r25, 0xFF	; 255
    4c66:	90 93 e4 0b 	sts	0x0BE4, r25	; 0x800be4 <s_NumOfTaskScheduled>
    4c6a:	80 e0       	ldi	r24, 0x00	; 0
    4c6c:	05 c0       	rjmp	.+10     	; 0x4c78 <SCH_TASK_CreateTask+0x62>
    4c6e:	81 e0       	ldi	r24, 0x01	; 1
    4c70:	03 c0       	rjmp	.+6      	; 0x4c78 <SCH_TASK_CreateTask+0x62>
    4c72:	81 e0       	ldi	r24, 0x01	; 1
    4c74:	01 c0       	rjmp	.+2      	; 0x4c78 <SCH_TASK_CreateTask+0x62>
    4c76:	81 e0       	ldi	r24, 0x01	; 1
    4c78:	df 91       	pop	r29
    4c7a:	cf 91       	pop	r28
    4c7c:	08 95       	ret

00004c7e <SCH_TIM_CreateTimer>:
    4c7e:	cf 93       	push	r28
    4c80:	df 93       	push	r29
    4c82:	ec 01       	movw	r28, r24
    4c84:	89 2b       	or	r24, r25
    4c86:	21 f1       	breq	.+72     	; 0x4cd0 <SCH_TIM_CreateTimer+0x52>
    4c88:	61 15       	cp	r22, r1
    4c8a:	71 05       	cpc	r23, r1
    4c8c:	19 f1       	breq	.+70     	; 0x4cd4 <SCH_TIM_CreateTimer+0x56>
    4c8e:	90 91 c5 0b 	lds	r25, 0x0BC5	; 0x800bc5 <s_NumOfTimers>
    4c92:	94 30       	cpi	r25, 0x04	; 4
    4c94:	08 f5       	brcc	.+66     	; 0x4cd8 <SCH_TIM_CreateTimer+0x5a>
    4c96:	29 2f       	mov	r18, r25
    4c98:	30 e0       	ldi	r19, 0x00	; 0
    4c9a:	f9 01       	movw	r30, r18
    4c9c:	ee 0f       	add	r30, r30
    4c9e:	ff 1f       	adc	r31, r31
    4ca0:	df 01       	movw	r26, r30
    4ca2:	a2 0f       	add	r26, r18
    4ca4:	b3 1f       	adc	r27, r19
    4ca6:	aa 0f       	add	r26, r26
    4ca8:	bb 1f       	adc	r27, r27
    4caa:	aa 53       	subi	r26, 0x3A	; 58
    4cac:	b4 4f       	sbci	r27, 0xF4	; 244
    4cae:	15 96       	adiw	r26, 0x05	; 5
    4cb0:	7c 93       	st	X, r23
    4cb2:	6e 93       	st	-X, r22
    4cb4:	14 97       	sbiw	r26, 0x04	; 4
    4cb6:	1c 92       	st	X, r1
    4cb8:	11 96       	adiw	r26, 0x01	; 1
    4cba:	1c 92       	st	X, r1
    4cbc:	11 97       	sbiw	r26, 0x01	; 1
    4cbe:	fd 01       	movw	r30, r26
    4cc0:	13 82       	std	Z+3, r1	; 0x03
    4cc2:	12 82       	std	Z+2, r1	; 0x02
    4cc4:	98 83       	st	Y, r25
    4cc6:	9f 5f       	subi	r25, 0xFF	; 255
    4cc8:	90 93 c5 0b 	sts	0x0BC5, r25	; 0x800bc5 <s_NumOfTimers>
    4ccc:	80 e0       	ldi	r24, 0x00	; 0
    4cce:	05 c0       	rjmp	.+10     	; 0x4cda <SCH_TIM_CreateTimer+0x5c>
    4cd0:	81 e0       	ldi	r24, 0x01	; 1
    4cd2:	03 c0       	rjmp	.+6      	; 0x4cda <SCH_TIM_CreateTimer+0x5c>
    4cd4:	81 e0       	ldi	r24, 0x01	; 1
    4cd6:	01 c0       	rjmp	.+2      	; 0x4cda <SCH_TIM_CreateTimer+0x5c>
    4cd8:	81 e0       	ldi	r24, 0x01	; 1
    4cda:	df 91       	pop	r29
    4cdc:	cf 91       	pop	r28
    4cde:	08 95       	ret

00004ce0 <SCH_TIM_RestartTimer>:
    4ce0:	90 91 c5 0b 	lds	r25, 0x0BC5	; 0x800bc5 <s_NumOfTimers>
    4ce4:	89 17       	cp	r24, r25
    4ce6:	a0 f4       	brcc	.+40     	; 0x4d10 <SCH_TIM_RestartTimer+0x30>
    4ce8:	90 e0       	ldi	r25, 0x00	; 0
    4cea:	fc 01       	movw	r30, r24
    4cec:	ee 0f       	add	r30, r30
    4cee:	ff 1f       	adc	r31, r31
    4cf0:	df 01       	movw	r26, r30
    4cf2:	a8 0f       	add	r26, r24
    4cf4:	b9 1f       	adc	r27, r25
    4cf6:	aa 0f       	add	r26, r26
    4cf8:	bb 1f       	adc	r27, r27
    4cfa:	aa 53       	subi	r26, 0x3A	; 58
    4cfc:	b4 4f       	sbci	r27, 0xF4	; 244
    4cfe:	13 96       	adiw	r26, 0x03	; 3
    4d00:	1c 92       	st	X, r1
    4d02:	1e 92       	st	-X, r1
    4d04:	12 97       	sbiw	r26, 0x02	; 2
    4d06:	fd 01       	movw	r30, r26
    4d08:	81 e0       	ldi	r24, 0x01	; 1
    4d0a:	80 83       	st	Z, r24
    4d0c:	80 e0       	ldi	r24, 0x00	; 0
    4d0e:	08 95       	ret
    4d10:	81 e0       	ldi	r24, 0x01	; 1
    4d12:	08 95       	ret

00004d14 <SCH_RunSystemTickTimer>:
    4d14:	1f 93       	push	r17
    4d16:	cf 93       	push	r28
    4d18:	df 93       	push	r29
    4d1a:	80 91 ff 0d 	lds	r24, 0x0DFF	; 0x800dff <s_SystemTick>
    4d1e:	90 91 00 0e 	lds	r25, 0x0E00	; 0x800e00 <s_SystemTick+0x1>
    4d22:	01 96       	adiw	r24, 0x01	; 1
    4d24:	90 93 00 0e 	sts	0x0E00, r25	; 0x800e00 <s_SystemTick+0x1>
    4d28:	80 93 ff 0d 	sts	0x0DFF, r24	; 0x800dff <s_SystemTick>
    4d2c:	80 91 e4 0b 	lds	r24, 0x0BE4	; 0x800be4 <s_NumOfTaskScheduled>
    4d30:	88 23       	and	r24, r24
    4d32:	59 f1       	breq	.+86     	; 0x4d8a <SCH_RunSystemTickTimer+0x76>
    4d34:	e5 ee       	ldi	r30, 0xE5	; 229
    4d36:	fb e0       	ldi	r31, 0x0B	; 11
    4d38:	81 50       	subi	r24, 0x01	; 1
    4d3a:	90 e0       	ldi	r25, 0x00	; 0
    4d3c:	01 96       	adiw	r24, 0x01	; 1
    4d3e:	9c 01       	movw	r18, r24
    4d40:	22 0f       	add	r18, r18
    4d42:	33 1f       	adc	r19, r19
    4d44:	82 0f       	add	r24, r18
    4d46:	93 1f       	adc	r25, r19
    4d48:	88 0f       	add	r24, r24
    4d4a:	99 1f       	adc	r25, r25
    4d4c:	8b 51       	subi	r24, 0x1B	; 27
    4d4e:	94 4f       	sbci	r25, 0xF4	; 244
    4d50:	61 e0       	ldi	r22, 0x01	; 1
    4d52:	a4 81       	ldd	r26, Z+4	; 0x04
    4d54:	b5 81       	ldd	r27, Z+5	; 0x05
    4d56:	2c 91       	ld	r18, X
    4d58:	21 30       	cpi	r18, 0x01	; 1
    4d5a:	99 f4       	brne	.+38     	; 0x4d82 <SCH_RunSystemTickTimer+0x6e>
    4d5c:	20 81       	ld	r18, Z
    4d5e:	21 30       	cpi	r18, 0x01	; 1
    4d60:	81 f4       	brne	.+32     	; 0x4d82 <SCH_RunSystemTickTimer+0x6e>
    4d62:	22 81       	ldd	r18, Z+2	; 0x02
    4d64:	33 81       	ldd	r19, Z+3	; 0x03
    4d66:	2f 5f       	subi	r18, 0xFF	; 255
    4d68:	3f 4f       	sbci	r19, 0xFF	; 255
    4d6a:	33 83       	std	Z+3, r19	; 0x03
    4d6c:	22 83       	std	Z+2, r18	; 0x02
    4d6e:	12 96       	adiw	r26, 0x02	; 2
    4d70:	4d 91       	ld	r20, X+
    4d72:	5c 91       	ld	r21, X
    4d74:	13 97       	sbiw	r26, 0x03	; 3
    4d76:	24 17       	cp	r18, r20
    4d78:	35 07       	cpc	r19, r21
    4d7a:	18 f0       	brcs	.+6      	; 0x4d82 <SCH_RunSystemTickTimer+0x6e>
    4d7c:	13 82       	std	Z+3, r1	; 0x03
    4d7e:	12 82       	std	Z+2, r1	; 0x02
    4d80:	61 83       	std	Z+1, r22	; 0x01
    4d82:	36 96       	adiw	r30, 0x06	; 6
    4d84:	e8 17       	cp	r30, r24
    4d86:	f9 07       	cpc	r31, r25
    4d88:	21 f7       	brne	.-56     	; 0x4d52 <SCH_RunSystemTickTimer+0x3e>
    4d8a:	40 91 c5 0b 	lds	r20, 0x0BC5	; 0x800bc5 <s_NumOfTimers>
    4d8e:	44 23       	and	r20, r20
    4d90:	61 f1       	breq	.+88     	; 0x4dea <SCH_RunSystemTickTimer+0xd6>
    4d92:	e6 ec       	ldi	r30, 0xC6	; 198
    4d94:	fb e0       	ldi	r31, 0x0B	; 11
    4d96:	80 e0       	ldi	r24, 0x00	; 0
    4d98:	51 e0       	ldi	r21, 0x01	; 1
    4d9a:	10 e0       	ldi	r17, 0x00	; 0
    4d9c:	df 01       	movw	r26, r30
    4d9e:	90 81       	ld	r25, Z
    4da0:	91 30       	cpi	r25, 0x01	; 1
    4da2:	b1 f4       	brne	.+44     	; 0x4dd0 <SCH_RunSystemTickTimer+0xbc>
    4da4:	22 81       	ldd	r18, Z+2	; 0x02
    4da6:	33 81       	ldd	r19, Z+3	; 0x03
    4da8:	2f 5f       	subi	r18, 0xFF	; 255
    4daa:	3f 4f       	sbci	r19, 0xFF	; 255
    4dac:	33 83       	std	Z+3, r19	; 0x03
    4dae:	22 83       	std	Z+2, r18	; 0x02
    4db0:	c4 81       	ldd	r28, Z+4	; 0x04
    4db2:	d5 81       	ldd	r29, Z+5	; 0x05
    4db4:	69 81       	ldd	r22, Y+1	; 0x01
    4db6:	7a 81       	ldd	r23, Y+2	; 0x02
    4db8:	26 17       	cp	r18, r22
    4dba:	37 07       	cpc	r19, r23
    4dbc:	48 f0       	brcs	.+18     	; 0x4dd0 <SCH_RunSystemTickTimer+0xbc>
    4dbe:	51 83       	std	Z+1, r21	; 0x01
    4dc0:	13 82       	std	Z+3, r1	; 0x03
    4dc2:	12 82       	std	Z+2, r1	; 0x02
    4dc4:	95 2f       	mov	r25, r21
    4dc6:	28 81       	ld	r18, Y
    4dc8:	22 30       	cpi	r18, 0x02	; 2
    4dca:	09 f0       	breq	.+2      	; 0x4dce <SCH_RunSystemTickTimer+0xba>
    4dcc:	91 2f       	mov	r25, r17
    4dce:	9c 93       	st	X, r25
    4dd0:	8f 5f       	subi	r24, 0xFF	; 255
    4dd2:	36 96       	adiw	r30, 0x06	; 6
    4dd4:	84 13       	cpse	r24, r20
    4dd6:	e2 cf       	rjmp	.-60     	; 0x4d9c <SCH_RunSystemTickTimer+0x88>
    4dd8:	08 c0       	rjmp	.+16     	; 0x4dea <SCH_RunSystemTickTimer+0xd6>
    4dda:	e1 e0       	ldi	r30, 0x01	; 1
    4ddc:	fe e0       	ldi	r31, 0x0E	; 14
    4dde:	82 81       	ldd	r24, Z+2	; 0x02
    4de0:	93 81       	ldd	r25, Z+3	; 0x03
    4de2:	01 97       	sbiw	r24, 0x01	; 1
    4de4:	93 83       	std	Z+3, r25	; 0x03
    4de6:	82 83       	std	Z+2, r24	; 0x02
    4de8:	13 c0       	rjmp	.+38     	; 0x4e10 <SCH_RunSystemTickTimer+0xfc>
    4dea:	80 91 01 0e 	lds	r24, 0x0E01	; 0x800e01 <s_SoftTimers>
    4dee:	90 91 02 0e 	lds	r25, 0x0E02	; 0x800e02 <s_SoftTimers+0x1>
    4df2:	89 2b       	or	r24, r25
    4df4:	39 f0       	breq	.+14     	; 0x4e04 <SCH_RunSystemTickTimer+0xf0>
    4df6:	e1 e0       	ldi	r30, 0x01	; 1
    4df8:	fe e0       	ldi	r31, 0x0E	; 14
    4dfa:	80 81       	ld	r24, Z
    4dfc:	91 81       	ldd	r25, Z+1	; 0x01
    4dfe:	01 97       	sbiw	r24, 0x01	; 1
    4e00:	91 83       	std	Z+1, r25	; 0x01
    4e02:	80 83       	st	Z, r24
    4e04:	80 91 03 0e 	lds	r24, 0x0E03	; 0x800e03 <s_SoftTimers+0x2>
    4e08:	90 91 04 0e 	lds	r25, 0x0E04	; 0x800e04 <s_SoftTimers+0x3>
    4e0c:	89 2b       	or	r24, r25
    4e0e:	29 f7       	brne	.-54     	; 0x4dda <SCH_RunSystemTickTimer+0xc6>
    4e10:	df 91       	pop	r29
    4e12:	cf 91       	pop	r28
    4e14:	1f 91       	pop	r17
    4e16:	08 95       	ret

00004e18 <SCH_StartSchedular>:
    4e18:	0e 94 8b 18 	call	0x3116	; 0x3116 <timer_start_timer0>
    4e1c:	08 95       	ret

00004e1e <SCH_HandleScheduledTask>:
    4e1e:	cf 93       	push	r28
    4e20:	80 91 e4 0b 	lds	r24, 0x0BE4	; 0x800be4 <s_NumOfTaskScheduled>
    4e24:	88 23       	and	r24, r24
    4e26:	b9 f1       	breq	.+110    	; 0x4e96 <SCH_HandleScheduledTask+0x78>
    4e28:	c0 e0       	ldi	r28, 0x00	; 0
    4e2a:	8c 2f       	mov	r24, r28
    4e2c:	90 e0       	ldi	r25, 0x00	; 0
    4e2e:	fc 01       	movw	r30, r24
    4e30:	ee 0f       	add	r30, r30
    4e32:	ff 1f       	adc	r31, r31
    4e34:	e8 0f       	add	r30, r24
    4e36:	f9 1f       	adc	r31, r25
    4e38:	ee 0f       	add	r30, r30
    4e3a:	ff 1f       	adc	r31, r31
    4e3c:	eb 51       	subi	r30, 0x1B	; 27
    4e3e:	f4 4f       	sbci	r31, 0xF4	; 244
    4e40:	21 81       	ldd	r18, Z+1	; 0x01
    4e42:	21 30       	cpi	r18, 0x01	; 1
    4e44:	19 f5       	brne	.+70     	; 0x4e8c <SCH_HandleScheduledTask+0x6e>
    4e46:	fc 01       	movw	r30, r24
    4e48:	ee 0f       	add	r30, r30
    4e4a:	ff 1f       	adc	r31, r31
    4e4c:	e8 0f       	add	r30, r24
    4e4e:	f9 1f       	adc	r31, r25
    4e50:	ee 0f       	add	r30, r30
    4e52:	ff 1f       	adc	r31, r31
    4e54:	eb 51       	subi	r30, 0x1B	; 27
    4e56:	f4 4f       	sbci	r31, 0xF4	; 244
    4e58:	20 81       	ld	r18, Z
    4e5a:	21 30       	cpi	r18, 0x01	; 1
    4e5c:	b9 f4       	brne	.+46     	; 0x4e8c <SCH_HandleScheduledTask+0x6e>
    4e5e:	fc 01       	movw	r30, r24
    4e60:	ee 0f       	add	r30, r30
    4e62:	ff 1f       	adc	r31, r31
    4e64:	df 01       	movw	r26, r30
    4e66:	a8 0f       	add	r26, r24
    4e68:	b9 1f       	adc	r27, r25
    4e6a:	aa 0f       	add	r26, r26
    4e6c:	bb 1f       	adc	r27, r27
    4e6e:	ab 51       	subi	r26, 0x1B	; 27
    4e70:	b4 4f       	sbci	r27, 0xF4	; 244
    4e72:	11 96       	adiw	r26, 0x01	; 1
    4e74:	1c 92       	st	X, r1
    4e76:	11 97       	sbiw	r26, 0x01	; 1
    4e78:	fd 01       	movw	r30, r26
    4e7a:	04 80       	ldd	r0, Z+4	; 0x04
    4e7c:	f5 81       	ldd	r31, Z+5	; 0x05
    4e7e:	e0 2d       	mov	r30, r0
    4e80:	04 80       	ldd	r0, Z+4	; 0x04
    4e82:	f5 81       	ldd	r31, Z+5	; 0x05
    4e84:	e0 2d       	mov	r30, r0
    4e86:	30 97       	sbiw	r30, 0x00	; 0
    4e88:	09 f0       	breq	.+2      	; 0x4e8c <SCH_HandleScheduledTask+0x6e>
    4e8a:	09 95       	icall
    4e8c:	cf 5f       	subi	r28, 0xFF	; 255
    4e8e:	80 91 e4 0b 	lds	r24, 0x0BE4	; 0x800be4 <s_NumOfTaskScheduled>
    4e92:	c8 17       	cp	r28, r24
    4e94:	50 f2       	brcs	.-108    	; 0x4e2a <SCH_HandleScheduledTask+0xc>
    4e96:	80 91 c5 0b 	lds	r24, 0x0BC5	; 0x800bc5 <s_NumOfTimers>
    4e9a:	88 23       	and	r24, r24
    4e9c:	59 f1       	breq	.+86     	; 0x4ef4 <SCH_HandleScheduledTask+0xd6>
    4e9e:	c0 e0       	ldi	r28, 0x00	; 0
    4ea0:	8c 2f       	mov	r24, r28
    4ea2:	90 e0       	ldi	r25, 0x00	; 0
    4ea4:	fc 01       	movw	r30, r24
    4ea6:	ee 0f       	add	r30, r30
    4ea8:	ff 1f       	adc	r31, r31
    4eaa:	e8 0f       	add	r30, r24
    4eac:	f9 1f       	adc	r31, r25
    4eae:	ee 0f       	add	r30, r30
    4eb0:	ff 1f       	adc	r31, r31
    4eb2:	ea 53       	subi	r30, 0x3A	; 58
    4eb4:	f4 4f       	sbci	r31, 0xF4	; 244
    4eb6:	21 81       	ldd	r18, Z+1	; 0x01
    4eb8:	21 30       	cpi	r18, 0x01	; 1
    4eba:	b9 f4       	brne	.+46     	; 0x4eea <SCH_HandleScheduledTask+0xcc>
    4ebc:	fc 01       	movw	r30, r24
    4ebe:	ee 0f       	add	r30, r30
    4ec0:	ff 1f       	adc	r31, r31
    4ec2:	df 01       	movw	r26, r30
    4ec4:	a8 0f       	add	r26, r24
    4ec6:	b9 1f       	adc	r27, r25
    4ec8:	aa 0f       	add	r26, r26
    4eca:	bb 1f       	adc	r27, r27
    4ecc:	aa 53       	subi	r26, 0x3A	; 58
    4ece:	b4 4f       	sbci	r27, 0xF4	; 244
    4ed0:	11 96       	adiw	r26, 0x01	; 1
    4ed2:	1c 92       	st	X, r1
    4ed4:	11 97       	sbiw	r26, 0x01	; 1
    4ed6:	fd 01       	movw	r30, r26
    4ed8:	04 80       	ldd	r0, Z+4	; 0x04
    4eda:	f5 81       	ldd	r31, Z+5	; 0x05
    4edc:	e0 2d       	mov	r30, r0
    4ede:	03 80       	ldd	r0, Z+3	; 0x03
    4ee0:	f4 81       	ldd	r31, Z+4	; 0x04
    4ee2:	e0 2d       	mov	r30, r0
    4ee4:	30 97       	sbiw	r30, 0x00	; 0
    4ee6:	09 f0       	breq	.+2      	; 0x4eea <SCH_HandleScheduledTask+0xcc>
    4ee8:	09 95       	icall
    4eea:	cf 5f       	subi	r28, 0xFF	; 255
    4eec:	80 91 c5 0b 	lds	r24, 0x0BC5	; 0x800bc5 <s_NumOfTimers>
    4ef0:	c8 17       	cp	r28, r24
    4ef2:	b0 f2       	brcs	.-84     	; 0x4ea0 <SCH_HandleScheduledTask+0x82>
    4ef4:	cf 91       	pop	r28
    4ef6:	08 95       	ret

00004ef8 <__vector_15>:
    4ef8:	1f 92       	push	r1
    4efa:	0f 92       	push	r0
    4efc:	0f b6       	in	r0, 0x3f	; 63
    4efe:	0f 92       	push	r0
    4f00:	11 24       	eor	r1, r1
    4f02:	2f 93       	push	r18
    4f04:	3f 93       	push	r19
    4f06:	4f 93       	push	r20
    4f08:	5f 93       	push	r21
    4f0a:	6f 93       	push	r22
    4f0c:	7f 93       	push	r23
    4f0e:	8f 93       	push	r24
    4f10:	9f 93       	push	r25
    4f12:	af 93       	push	r26
    4f14:	bf 93       	push	r27
    4f16:	ef 93       	push	r30
    4f18:	ff 93       	push	r31
    4f1a:	0e 94 8a 26 	call	0x4d14	; 0x4d14 <SCH_RunSystemTickTimer>
    4f1e:	ff 91       	pop	r31
    4f20:	ef 91       	pop	r30
    4f22:	bf 91       	pop	r27
    4f24:	af 91       	pop	r26
    4f26:	9f 91       	pop	r25
    4f28:	8f 91       	pop	r24
    4f2a:	7f 91       	pop	r23
    4f2c:	6f 91       	pop	r22
    4f2e:	5f 91       	pop	r21
    4f30:	4f 91       	pop	r20
    4f32:	3f 91       	pop	r19
    4f34:	2f 91       	pop	r18
    4f36:	0f 90       	pop	r0
    4f38:	0f be       	out	0x3f, r0	; 63
    4f3a:	0f 90       	pop	r0
    4f3c:	1f 90       	pop	r1
    4f3e:	18 95       	reti

00004f40 <crc16_CCITT>:
    4f40:	fc 01       	movw	r30, r24
    4f42:	5f ef       	ldi	r21, 0xFF	; 255
    4f44:	54 0f       	add	r21, r20
    4f46:	44 23       	and	r20, r20
    4f48:	11 f1       	breq	.+68     	; 0x4f8e <crc16_CCITT+0x4e>
    4f4a:	a6 2f       	mov	r26, r22
    4f4c:	b7 2f       	mov	r27, r23
    4f4e:	2d 91       	ld	r18, X+
    4f50:	2f 27       	eor	r18, r31
    4f52:	32 2f       	mov	r19, r18
    4f54:	32 95       	swap	r19
    4f56:	3f 70       	andi	r19, 0x0F	; 15
    4f58:	92 2f       	mov	r25, r18
    4f5a:	93 27       	eor	r25, r19
    4f5c:	29 2f       	mov	r18, r25
    4f5e:	30 e0       	ldi	r19, 0x00	; 0
    4f60:	fe 2f       	mov	r31, r30
    4f62:	ee 27       	eor	r30, r30
    4f64:	e2 27       	eor	r30, r18
    4f66:	f3 27       	eor	r31, r19
    4f68:	c9 01       	movw	r24, r18
    4f6a:	98 2f       	mov	r25, r24
    4f6c:	88 27       	eor	r24, r24
    4f6e:	92 95       	swap	r25
    4f70:	90 7f       	andi	r25, 0xF0	; 240
    4f72:	e8 27       	eor	r30, r24
    4f74:	f9 27       	eor	r31, r25
    4f76:	22 0f       	add	r18, r18
    4f78:	33 1f       	adc	r19, r19
    4f7a:	22 95       	swap	r18
    4f7c:	32 95       	swap	r19
    4f7e:	30 7f       	andi	r19, 0xF0	; 240
    4f80:	32 27       	eor	r19, r18
    4f82:	20 7f       	andi	r18, 0xF0	; 240
    4f84:	32 27       	eor	r19, r18
    4f86:	e2 27       	eor	r30, r18
    4f88:	f3 27       	eor	r31, r19
    4f8a:	51 50       	subi	r21, 0x01	; 1
    4f8c:	00 f7       	brcc	.-64     	; 0x4f4e <crc16_CCITT+0xe>
    4f8e:	cf 01       	movw	r24, r30
    4f90:	08 95       	ret

00004f92 <fsp_init>:
}

void fsp_gen_nack_pkt(uint8_t dst_adr, fsp_packet_t *fsp)
{
	fsp_gen_pkt((void*)0, (void*)0, 0, dst_adr, FSP_PKT_TYPE_NACK, fsp);
}
    4f92:	80 93 05 0e 	sts	0x0E05, r24	; 0x800e05 <fsp_my_adr>
    4f96:	10 92 21 0c 	sts	0x0C21, r1	; 0x800c21 <fsp_decode_pos>
    4f9a:	08 95       	ret

00004f9c <fsp_gen_pkt>:
    4f9c:	ef 92       	push	r14
    4f9e:	ff 92       	push	r15
    4fa0:	0f 93       	push	r16
    4fa2:	cf 93       	push	r28
    4fa4:	df 93       	push	r29
    4fa6:	e7 01       	movw	r28, r14
    4fa8:	3a ec       	ldi	r19, 0xCA	; 202
    4faa:	38 83       	st	Y, r19
    4fac:	30 91 05 0e 	lds	r19, 0x0E05	; 0x800e05 <fsp_my_adr>
    4fb0:	39 83       	std	Y+1, r19	; 0x01
    4fb2:	2a 83       	std	Y+2, r18	; 0x02
    4fb4:	4b 83       	std	Y+3, r20	; 0x03
    4fb6:	0c 83       	std	Y+4, r16	; 0x04
    4fb8:	2f ee       	ldi	r18, 0xEF	; 239
    4fba:	2a ab       	std	Y+50, r18	; 0x32
    4fbc:	00 97       	sbiw	r24, 0x00	; 0
    4fbe:	41 f0       	breq	.+16     	; 0x4fd0 <fsp_gen_pkt+0x34>
    4fc0:	21 e0       	ldi	r18, 0x01	; 1
    4fc2:	24 0f       	add	r18, r20
    4fc4:	2b 83       	std	Y+3, r18	; 0x03
    4fc6:	fc 01       	movw	r30, r24
    4fc8:	80 81       	ld	r24, Z
    4fca:	8d 83       	std	Y+5, r24	; 0x05
    4fcc:	81 e0       	ldi	r24, 0x01	; 1
    4fce:	01 c0       	rjmp	.+2      	; 0x4fd2 <fsp_gen_pkt+0x36>
    4fd0:	80 e0       	ldi	r24, 0x00	; 0
    4fd2:	44 23       	and	r20, r20
    4fd4:	61 f0       	breq	.+24     	; 0x4fee <fsp_gen_pkt+0x52>
    4fd6:	e6 2f       	mov	r30, r22
    4fd8:	f7 2f       	mov	r31, r23
    4fda:	48 0f       	add	r20, r24
    4fdc:	91 91       	ld	r25, Z+
    4fde:	de 01       	movw	r26, r28
    4fe0:	a8 0f       	add	r26, r24
    4fe2:	b1 1d       	adc	r27, r1
    4fe4:	15 96       	adiw	r26, 0x05	; 5
    4fe6:	9c 93       	st	X, r25
    4fe8:	8f 5f       	subi	r24, 0xFF	; 255
    4fea:	48 13       	cpse	r20, r24
    4fec:	f7 cf       	rjmp	.-18     	; 0x4fdc <fsp_gen_pkt+0x40>
    4fee:	4b 81       	ldd	r20, Y+3	; 0x03
    4ff0:	4c 5f       	subi	r20, 0xFC	; 252
    4ff2:	be 01       	movw	r22, r28
    4ff4:	6f 5f       	subi	r22, 0xFF	; 255
    4ff6:	7f 4f       	sbci	r23, 0xFF	; 255
    4ff8:	80 e0       	ldi	r24, 0x00	; 0
    4ffa:	90 e0       	ldi	r25, 0x00	; 0
    4ffc:	0e 94 a0 27 	call	0x4f40	; 0x4f40 <crc16_CCITT>
    5000:	99 ab       	std	Y+49, r25	; 0x31
    5002:	88 ab       	std	Y+48, r24	; 0x30
    5004:	df 91       	pop	r29
    5006:	cf 91       	pop	r28
    5008:	0f 91       	pop	r16
    500a:	ff 90       	pop	r15
    500c:	ef 90       	pop	r14
    500e:	08 95       	ret

00005010 <fsp_gen_cmd_w_data_pkt>:
    5010:	ef 92       	push	r14
    5012:	ff 92       	push	r15
    5014:	0f 93       	push	r16
    5016:	cf 93       	push	r28
    5018:	df 93       	push	r29
    501a:	1f 92       	push	r1
    501c:	cd b7       	in	r28, 0x3d	; 61
    501e:	de b7       	in	r29, 0x3e	; 62
    5020:	89 83       	std	Y+1, r24	; 0x01
    5022:	01 30       	cpi	r16, 0x01	; 1
    5024:	31 f4       	brne	.+12     	; 0x5032 <fsp_gen_cmd_w_data_pkt+0x22>
    5026:	08 e0       	ldi	r16, 0x08	; 8
    5028:	ce 01       	movw	r24, r28
    502a:	01 96       	adiw	r24, 0x01	; 1
    502c:	0e 94 ce 27 	call	0x4f9c	; 0x4f9c <fsp_gen_pkt>
    5030:	05 c0       	rjmp	.+10     	; 0x503c <fsp_gen_cmd_w_data_pkt+0x2c>
    5032:	07 e0       	ldi	r16, 0x07	; 7
    5034:	ce 01       	movw	r24, r28
    5036:	01 96       	adiw	r24, 0x01	; 1
    5038:	0e 94 ce 27 	call	0x4f9c	; 0x4f9c <fsp_gen_pkt>
    503c:	0f 90       	pop	r0
    503e:	df 91       	pop	r29
    5040:	cf 91       	pop	r28
    5042:	0f 91       	pop	r16
    5044:	ff 90       	pop	r15
    5046:	ef 90       	pop	r14
    5048:	08 95       	ret

0000504a <fsp_encode>:
	fsp->crc16 = crc16_CCITT(FSP_CRC16_INITIAL_VALUE, &fsp->src_adr, fsp->length + 4);

}

void fsp_encode(fsp_packet_t *fsp, uint8_t *pkt, uint8_t *pkt_len)
{
    504a:	af 92       	push	r10
    504c:	bf 92       	push	r11
    504e:	df 92       	push	r13
    5050:	ef 92       	push	r14
    5052:	ff 92       	push	r15
    5054:	0f 93       	push	r16
    5056:	1f 93       	push	r17
    5058:	cf 93       	push	r28
    505a:	df 93       	push	r29
    505c:	fc 01       	movw	r30, r24
    505e:	db 01       	movw	r26, r22
	uint8_t i = 0;
	uint8_t crc_msb = (uint8_t)(fsp->crc16 >> 8);
    5060:	d0 a8       	ldd	r13, Z+48	; 0x30
    5062:	e1 a8       	ldd	r14, Z+49	; 0x31
    5064:	7e 2d       	mov	r23, r14
	uint8_t crc_lsb = (uint8_t)(fsp->crc16 & 0xFF);
    5066:	6d 2d       	mov	r22, r13
	pkt[i++] = fsp->sod;
    5068:	80 81       	ld	r24, Z
    506a:	8c 93       	st	X, r24
	pkt[i++] = fsp->src_adr;
    506c:	81 81       	ldd	r24, Z+1	; 0x01
    506e:	11 96       	adiw	r26, 0x01	; 1
    5070:	8c 93       	st	X, r24
    5072:	11 97       	sbiw	r26, 0x01	; 1
	pkt[i++] = fsp->dst_adr;
    5074:	82 81       	ldd	r24, Z+2	; 0x02
    5076:	12 96       	adiw	r26, 0x02	; 2
    5078:	8c 93       	st	X, r24
    507a:	12 97       	sbiw	r26, 0x02	; 2
	pkt[i++] = fsp->length;
    507c:	83 81       	ldd	r24, Z+3	; 0x03
    507e:	13 96       	adiw	r26, 0x03	; 3
    5080:	8c 93       	st	X, r24
    5082:	13 97       	sbiw	r26, 0x03	; 3
	pkt[i++] = fsp->type;
    5084:	84 81       	ldd	r24, Z+4	; 0x04
    5086:	14 96       	adiw	r26, 0x04	; 4
    5088:	8c 93       	st	X, r24
    508a:	14 97       	sbiw	r26, 0x04	; 4
	
	uint8_t j = 0;
	for(j=0; j<fsp->length; j++)
    508c:	83 81       	ldd	r24, Z+3	; 0x03
    508e:	88 23       	and	r24, r24
    5090:	09 f4       	brne	.+2      	; 0x5094 <fsp_encode+0x4a>
    5092:	44 c0       	rjmp	.+136    	; 0x511c <fsp_encode+0xd2>
    5094:	20 e0       	ldi	r18, 0x00	; 0
    5096:	95 e0       	ldi	r25, 0x05	; 5
			pkt[i++] = FSP_PKT_TSOD;
			} else if (fsp->payload[j] == FSP_PKT_EOF) {
			pkt[i++] = FSP_PKT_ESC;
			pkt[i++] = FSP_PKT_TEOF;
			} else if (fsp->payload[j] == FSP_PKT_ESC) {
			pkt[i++] = FSP_PKT_ESC;
    5098:	8d eb       	ldi	r24, 0xBD	; 189
			pkt[i++] = FSP_PKT_TESC;
    509a:	0f 2e       	mov	r0, r31
    509c:	fb ed       	ldi	r31, 0xDB	; 219
    509e:	ff 2e       	mov	r15, r31
    50a0:	f0 2d       	mov	r31, r0
		if (fsp->payload[j] == FSP_PKT_SOD) {
			pkt[i++] = FSP_PKT_ESC;
			pkt[i++] = FSP_PKT_TSOD;
			} else if (fsp->payload[j] == FSP_PKT_EOF) {
			pkt[i++] = FSP_PKT_ESC;
			pkt[i++] = FSP_PKT_TEOF;
    50a2:	1e ed       	ldi	r17, 0xDE	; 222
	uint8_t j = 0;
	for(j=0; j<fsp->length; j++)
	{
		if (fsp->payload[j] == FSP_PKT_SOD) {
			pkt[i++] = FSP_PKT_ESC;
			pkt[i++] = FSP_PKT_TSOD;
    50a4:	3c ed       	ldi	r19, 0xDC	; 220
	pkt[i++] = fsp->type;
	
	uint8_t j = 0;
	for(j=0; j<fsp->length; j++)
	{
		if (fsp->payload[j] == FSP_PKT_SOD) {
    50a6:	ef 01       	movw	r28, r30
    50a8:	c2 0f       	add	r28, r18
    50aa:	d1 1d       	adc	r29, r1
    50ac:	0d 81       	ldd	r16, Y+5	; 0x05
    50ae:	0a 3c       	cpi	r16, 0xCA	; 202
    50b0:	69 f4       	brne	.+26     	; 0x50cc <fsp_encode+0x82>
			pkt[i++] = FSP_PKT_ESC;
    50b2:	ed 01       	movw	r28, r26
    50b4:	c9 0f       	add	r28, r25
    50b6:	d1 1d       	adc	r29, r1
    50b8:	88 83       	st	Y, r24
			pkt[i++] = FSP_PKT_TSOD;
    50ba:	c1 e0       	ldi	r28, 0x01	; 1
    50bc:	c9 0f       	add	r28, r25
    50be:	5d 01       	movw	r10, r26
    50c0:	ac 0e       	add	r10, r28
    50c2:	b1 1c       	adc	r11, r1
    50c4:	e5 01       	movw	r28, r10
    50c6:	9e 5f       	subi	r25, 0xFE	; 254
    50c8:	38 83       	st	Y, r19
    50ca:	23 c0       	rjmp	.+70     	; 0x5112 <fsp_encode+0xc8>
			} else if (fsp->payload[j] == FSP_PKT_EOF) {
    50cc:	0f 3e       	cpi	r16, 0xEF	; 239
    50ce:	69 f4       	brne	.+26     	; 0x50ea <fsp_encode+0xa0>
			pkt[i++] = FSP_PKT_ESC;
    50d0:	ed 01       	movw	r28, r26
    50d2:	c9 0f       	add	r28, r25
    50d4:	d1 1d       	adc	r29, r1
    50d6:	88 83       	st	Y, r24
			pkt[i++] = FSP_PKT_TEOF;
    50d8:	c1 e0       	ldi	r28, 0x01	; 1
    50da:	c9 0f       	add	r28, r25
    50dc:	5d 01       	movw	r10, r26
    50de:	ac 0e       	add	r10, r28
    50e0:	b1 1c       	adc	r11, r1
    50e2:	e5 01       	movw	r28, r10
    50e4:	9e 5f       	subi	r25, 0xFE	; 254
    50e6:	18 83       	st	Y, r17
    50e8:	14 c0       	rjmp	.+40     	; 0x5112 <fsp_encode+0xc8>
			} else if (fsp->payload[j] == FSP_PKT_ESC) {
    50ea:	0d 3b       	cpi	r16, 0xBD	; 189
    50ec:	69 f4       	brne	.+26     	; 0x5108 <fsp_encode+0xbe>
			pkt[i++] = FSP_PKT_ESC;
    50ee:	ed 01       	movw	r28, r26
    50f0:	c9 0f       	add	r28, r25
    50f2:	d1 1d       	adc	r29, r1
    50f4:	88 83       	st	Y, r24
			pkt[i++] = FSP_PKT_TESC;
    50f6:	c1 e0       	ldi	r28, 0x01	; 1
    50f8:	c9 0f       	add	r28, r25
    50fa:	5d 01       	movw	r10, r26
    50fc:	ac 0e       	add	r10, r28
    50fe:	b1 1c       	adc	r11, r1
    5100:	e5 01       	movw	r28, r10
    5102:	9e 5f       	subi	r25, 0xFE	; 254
    5104:	f8 82       	st	Y, r15
    5106:	05 c0       	rjmp	.+10     	; 0x5112 <fsp_encode+0xc8>
		} else
		pkt[i++] = fsp->payload[j];
    5108:	ed 01       	movw	r28, r26
    510a:	c9 0f       	add	r28, r25
    510c:	d1 1d       	adc	r29, r1
    510e:	08 83       	st	Y, r16
    5110:	9f 5f       	subi	r25, 0xFF	; 255
	pkt[i++] = fsp->dst_adr;
	pkt[i++] = fsp->length;
	pkt[i++] = fsp->type;
	
	uint8_t j = 0;
	for(j=0; j<fsp->length; j++)
    5112:	2f 5f       	subi	r18, 0xFF	; 255
    5114:	c3 81       	ldd	r28, Z+3	; 0x03
    5116:	2c 17       	cp	r18, r28
    5118:	30 f2       	brcs	.-116    	; 0x50a6 <fsp_encode+0x5c>
    511a:	01 c0       	rjmp	.+2      	; 0x511e <fsp_encode+0xd4>
	uint8_t crc_lsb = (uint8_t)(fsp->crc16 & 0xFF);
	pkt[i++] = fsp->sod;
	pkt[i++] = fsp->src_adr;
	pkt[i++] = fsp->dst_adr;
	pkt[i++] = fsp->length;
	pkt[i++] = fsp->type;
    511c:	95 e0       	ldi	r25, 0x05	; 5
			pkt[i++] = FSP_PKT_TESC;
		} else
		pkt[i++] = fsp->payload[j];
	}

	if (crc_msb == FSP_PKT_SOD) {
    511e:	7a 3c       	cpi	r23, 0xCA	; 202
    5120:	71 f4       	brne	.+28     	; 0x513e <fsp_encode+0xf4>
		pkt[i++] = FSP_PKT_ESC;
    5122:	fd 01       	movw	r30, r26
    5124:	e9 0f       	add	r30, r25
    5126:	f1 1d       	adc	r31, r1
    5128:	8d eb       	ldi	r24, 0xBD	; 189
    512a:	80 83       	st	Z, r24
		pkt[i++] = FSP_PKT_TSOD;
    512c:	22 e0       	ldi	r18, 0x02	; 2
    512e:	29 0f       	add	r18, r25
    5130:	9f 5f       	subi	r25, 0xFF	; 255
    5132:	fd 01       	movw	r30, r26
    5134:	e9 0f       	add	r30, r25
    5136:	f1 1d       	adc	r31, r1
    5138:	8c ed       	ldi	r24, 0xDC	; 220
    513a:	80 83       	st	Z, r24
    513c:	26 c0       	rjmp	.+76     	; 0x518a <fsp_encode+0x140>
		} else if (crc_msb == FSP_PKT_EOF) {
    513e:	7f 3e       	cpi	r23, 0xEF	; 239
    5140:	71 f4       	brne	.+28     	; 0x515e <fsp_encode+0x114>
		pkt[i++] = FSP_PKT_ESC;
    5142:	fd 01       	movw	r30, r26
    5144:	e9 0f       	add	r30, r25
    5146:	f1 1d       	adc	r31, r1
    5148:	8d eb       	ldi	r24, 0xBD	; 189
    514a:	80 83       	st	Z, r24
		pkt[i++] = FSP_PKT_TEOF;
    514c:	22 e0       	ldi	r18, 0x02	; 2
    514e:	29 0f       	add	r18, r25
    5150:	9f 5f       	subi	r25, 0xFF	; 255
    5152:	fd 01       	movw	r30, r26
    5154:	e9 0f       	add	r30, r25
    5156:	f1 1d       	adc	r31, r1
    5158:	8e ed       	ldi	r24, 0xDE	; 222
    515a:	80 83       	st	Z, r24
    515c:	16 c0       	rjmp	.+44     	; 0x518a <fsp_encode+0x140>
		} else if (crc_msb == FSP_PKT_ESC) {
    515e:	7d 3b       	cpi	r23, 0xBD	; 189
    5160:	71 f4       	brne	.+28     	; 0x517e <fsp_encode+0x134>
		pkt[i++] = FSP_PKT_ESC;
    5162:	fd 01       	movw	r30, r26
    5164:	e9 0f       	add	r30, r25
    5166:	f1 1d       	adc	r31, r1
    5168:	8d eb       	ldi	r24, 0xBD	; 189
    516a:	80 83       	st	Z, r24
		pkt[i++] = FSP_PKT_TESC;
    516c:	22 e0       	ldi	r18, 0x02	; 2
    516e:	29 0f       	add	r18, r25
    5170:	9f 5f       	subi	r25, 0xFF	; 255
    5172:	fd 01       	movw	r30, r26
    5174:	e9 0f       	add	r30, r25
    5176:	f1 1d       	adc	r31, r1
    5178:	8b ed       	ldi	r24, 0xDB	; 219
    517a:	80 83       	st	Z, r24
    517c:	06 c0       	rjmp	.+12     	; 0x518a <fsp_encode+0x140>
	} else
	pkt[i++] = crc_msb;
    517e:	21 e0       	ldi	r18, 0x01	; 1
    5180:	29 0f       	add	r18, r25
    5182:	fd 01       	movw	r30, r26
    5184:	e9 0f       	add	r30, r25
    5186:	f1 1d       	adc	r31, r1
    5188:	e0 82       	st	Z, r14

	if (crc_lsb == FSP_PKT_SOD) {
    518a:	6a 3c       	cpi	r22, 0xCA	; 202
    518c:	71 f4       	brne	.+28     	; 0x51aa <fsp_encode+0x160>
		pkt[i++] = FSP_PKT_ESC;
    518e:	fd 01       	movw	r30, r26
    5190:	e2 0f       	add	r30, r18
    5192:	f1 1d       	adc	r31, r1
    5194:	8d eb       	ldi	r24, 0xBD	; 189
    5196:	80 83       	st	Z, r24
		pkt[i++] = FSP_PKT_TSOD;
    5198:	82 e0       	ldi	r24, 0x02	; 2
    519a:	82 0f       	add	r24, r18
    519c:	2f 5f       	subi	r18, 0xFF	; 255
    519e:	fd 01       	movw	r30, r26
    51a0:	e2 0f       	add	r30, r18
    51a2:	f1 1d       	adc	r31, r1
    51a4:	9c ed       	ldi	r25, 0xDC	; 220
    51a6:	90 83       	st	Z, r25
    51a8:	26 c0       	rjmp	.+76     	; 0x51f6 <fsp_encode+0x1ac>
		} else if (crc_lsb == FSP_PKT_EOF) {
    51aa:	6f 3e       	cpi	r22, 0xEF	; 239
    51ac:	71 f4       	brne	.+28     	; 0x51ca <fsp_encode+0x180>
		pkt[i++] = FSP_PKT_ESC;
    51ae:	fd 01       	movw	r30, r26
    51b0:	e2 0f       	add	r30, r18
    51b2:	f1 1d       	adc	r31, r1
    51b4:	8d eb       	ldi	r24, 0xBD	; 189
    51b6:	80 83       	st	Z, r24
		pkt[i++] = FSP_PKT_TEOF;
    51b8:	82 e0       	ldi	r24, 0x02	; 2
    51ba:	82 0f       	add	r24, r18
    51bc:	2f 5f       	subi	r18, 0xFF	; 255
    51be:	fd 01       	movw	r30, r26
    51c0:	e2 0f       	add	r30, r18
    51c2:	f1 1d       	adc	r31, r1
    51c4:	9e ed       	ldi	r25, 0xDE	; 222
    51c6:	90 83       	st	Z, r25
    51c8:	16 c0       	rjmp	.+44     	; 0x51f6 <fsp_encode+0x1ac>
		} else if (crc_lsb == FSP_PKT_ESC) {
    51ca:	6d 3b       	cpi	r22, 0xBD	; 189
    51cc:	71 f4       	brne	.+28     	; 0x51ea <fsp_encode+0x1a0>
		pkt[i++] = FSP_PKT_ESC;
    51ce:	fd 01       	movw	r30, r26
    51d0:	e2 0f       	add	r30, r18
    51d2:	f1 1d       	adc	r31, r1
    51d4:	8d eb       	ldi	r24, 0xBD	; 189
    51d6:	80 83       	st	Z, r24
		pkt[i++] = FSP_PKT_TESC;
    51d8:	82 e0       	ldi	r24, 0x02	; 2
    51da:	82 0f       	add	r24, r18
    51dc:	2f 5f       	subi	r18, 0xFF	; 255
    51de:	fd 01       	movw	r30, r26
    51e0:	e2 0f       	add	r30, r18
    51e2:	f1 1d       	adc	r31, r1
    51e4:	9b ed       	ldi	r25, 0xDB	; 219
    51e6:	90 83       	st	Z, r25
    51e8:	06 c0       	rjmp	.+12     	; 0x51f6 <fsp_encode+0x1ac>
	} else
	pkt[i++] = crc_lsb;
    51ea:	81 e0       	ldi	r24, 0x01	; 1
    51ec:	82 0f       	add	r24, r18
    51ee:	fd 01       	movw	r30, r26
    51f0:	e2 0f       	add	r30, r18
    51f2:	f1 1d       	adc	r31, r1
    51f4:	d0 82       	st	Z, r13
	
	pkt[i++] = FSP_PKT_EOF;
    51f6:	a8 0f       	add	r26, r24
    51f8:	b1 1d       	adc	r27, r1
    51fa:	9f ee       	ldi	r25, 0xEF	; 239
    51fc:	9c 93       	st	X, r25
	*pkt_len = i;
    51fe:	8f 5f       	subi	r24, 0xFF	; 255
    5200:	fa 01       	movw	r30, r20
    5202:	80 83       	st	Z, r24
}
    5204:	df 91       	pop	r29
    5206:	cf 91       	pop	r28
    5208:	1f 91       	pop	r17
    520a:	0f 91       	pop	r16
    520c:	ff 90       	pop	r15
    520e:	ef 90       	pop	r14
    5210:	df 90       	pop	r13
    5212:	bf 90       	pop	r11
    5214:	af 90       	pop	r10
    5216:	08 95       	ret

00005218 <fsp_decode>:

uint8_t fsp_decode(uint8_t byte, fsp_packet_t *fsp)
{
    5218:	cf 93       	push	r28
    521a:	df 93       	push	r29
    521c:	98 2f       	mov	r25, r24
    switch(fsp_decode_pos)
    521e:	80 91 21 0c 	lds	r24, 0x0C21	; 0x800c21 <fsp_decode_pos>
    5222:	82 30       	cpi	r24, 0x02	; 2
    5224:	01 f1       	breq	.+64     	; 0x5266 <fsp_decode+0x4e>
    5226:	28 f4       	brcc	.+10     	; 0x5232 <fsp_decode+0x1a>
    5228:	88 23       	and	r24, r24
    522a:	41 f0       	breq	.+16     	; 0x523c <fsp_decode+0x24>
    522c:	81 30       	cpi	r24, 0x01	; 1
    522e:	a1 f0       	breq	.+40     	; 0x5258 <fsp_decode+0x40>
    5230:	3d c0       	rjmp	.+122    	; 0x52ac <fsp_decode+0x94>
    5232:	83 30       	cpi	r24, 0x03	; 3
    5234:	39 f1       	breq	.+78     	; 0x5284 <fsp_decode+0x6c>
    5236:	84 30       	cpi	r24, 0x04	; 4
    5238:	91 f1       	breq	.+100    	; 0x529e <fsp_decode+0x86>
    523a:	38 c0       	rjmp	.+112    	; 0x52ac <fsp_decode+0x94>
    {
	    case FSP_PKT_POS_SOD:
	    if (byte == FSP_PKT_SOD)
    523c:	9a 3c       	cpi	r25, 0xCA	; 202
    523e:	41 f4       	brne	.+16     	; 0x5250 <fsp_decode+0x38>
	    {
		    fsp->sod = byte;
    5240:	fb 01       	movw	r30, r22
    5242:	90 83       	st	Z, r25
		    fsp_decode_pos++;
    5244:	90 91 21 0c 	lds	r25, 0x0C21	; 0x800c21 <fsp_decode_pos>
    5248:	9f 5f       	subi	r25, 0xFF	; 255
    524a:	90 93 21 0c 	sts	0x0C21, r25	; 0x800c21 <fsp_decode_pos>
		    return FSP_PKT_NOT_READY;
    524e:	6c c0       	rjmp	.+216    	; 0x5328 <fsp_decode+0x110>
	    }
	    else
	    {
		    fsp_decode_pos = FSP_PKT_POS_SOD;
    5250:	10 92 21 0c 	sts	0x0C21, r1	; 0x800c21 <fsp_decode_pos>
		    return FSP_PKT_INVALID;
    5254:	82 e0       	ldi	r24, 0x02	; 2
    5256:	68 c0       	rjmp	.+208    	; 0x5328 <fsp_decode+0x110>
	    }
	    case FSP_PKT_POS_SRC_ADR:
	    fsp->src_adr = byte;
    5258:	fb 01       	movw	r30, r22
    525a:	91 83       	std	Z+1, r25	; 0x01
	    fsp_decode_pos++;
    525c:	82 e0       	ldi	r24, 0x02	; 2
    525e:	80 93 21 0c 	sts	0x0C21, r24	; 0x800c21 <fsp_decode_pos>
	    return FSP_PKT_NOT_READY;
    5262:	80 e0       	ldi	r24, 0x00	; 0
    5264:	61 c0       	rjmp	.+194    	; 0x5328 <fsp_decode+0x110>
	    case FSP_PKT_POS_DST_ADR:
	    fsp->dst_adr = byte;
    5266:	fb 01       	movw	r30, r22
    5268:	92 83       	std	Z+2, r25	; 0x02

	    if (byte == fsp_my_adr)
    526a:	80 91 05 0e 	lds	r24, 0x0E05	; 0x800e05 <fsp_my_adr>
    526e:	98 13       	cpse	r25, r24
    5270:	05 c0       	rjmp	.+10     	; 0x527c <fsp_decode+0x64>
	    {
		    fsp_decode_pos++;
    5272:	83 e0       	ldi	r24, 0x03	; 3
    5274:	80 93 21 0c 	sts	0x0C21, r24	; 0x800c21 <fsp_decode_pos>
		    return FSP_PKT_NOT_READY;
    5278:	80 e0       	ldi	r24, 0x00	; 0
    527a:	56 c0       	rjmp	.+172    	; 0x5328 <fsp_decode+0x110>
	    }
	    else
	    {
		    fsp_decode_pos = FSP_PKT_POS_SOD;
    527c:	10 92 21 0c 	sts	0x0C21, r1	; 0x800c21 <fsp_decode_pos>
		    return FSP_PKT_WRONG_ADR;
    5280:	83 e0       	ldi	r24, 0x03	; 3
    5282:	52 c0       	rjmp	.+164    	; 0x5328 <fsp_decode+0x110>
	    }
	    case FSP_PKT_POS_LEN:
	    if (byte > FSP_PAYLOAD_MAX_LENGTH)
    5284:	9c 32       	cpi	r25, 0x2C	; 44
    5286:	20 f0       	brcs	.+8      	; 0x5290 <fsp_decode+0x78>
	    {
		    fsp_decode_pos = FSP_PKT_POS_SOD;
    5288:	10 92 21 0c 	sts	0x0C21, r1	; 0x800c21 <fsp_decode_pos>
		    return FSP_PKT_INVALID;
    528c:	82 e0       	ldi	r24, 0x02	; 2
    528e:	4c c0       	rjmp	.+152    	; 0x5328 <fsp_decode+0x110>
	    }
	    else
	    {
		    fsp->length = byte;
    5290:	fb 01       	movw	r30, r22
    5292:	93 83       	std	Z+3, r25	; 0x03
		    fsp_decode_pos++;
    5294:	84 e0       	ldi	r24, 0x04	; 4
    5296:	80 93 21 0c 	sts	0x0C21, r24	; 0x800c21 <fsp_decode_pos>
		    return FSP_PKT_NOT_READY;
    529a:	80 e0       	ldi	r24, 0x00	; 0
    529c:	45 c0       	rjmp	.+138    	; 0x5328 <fsp_decode+0x110>
	    }
	    case FSP_PKT_POS_TYPE:
	    fsp->type = byte;
    529e:	fb 01       	movw	r30, r22
    52a0:	94 83       	std	Z+4, r25	; 0x04
	    fsp_decode_pos++;
    52a2:	85 e0       	ldi	r24, 0x05	; 5
    52a4:	80 93 21 0c 	sts	0x0C21, r24	; 0x800c21 <fsp_decode_pos>
	    return FSP_PKT_NOT_READY;
    52a8:	80 e0       	ldi	r24, 0x00	; 0
    52aa:	3e c0       	rjmp	.+124    	; 0x5328 <fsp_decode+0x110>
	    default:
	    if (fsp_decode_pos < (FSP_PKT_POS_TYPE + fsp->length + 1))          // Payload
    52ac:	28 2f       	mov	r18, r24
    52ae:	30 e0       	ldi	r19, 0x00	; 0
    52b0:	fb 01       	movw	r30, r22
    52b2:	43 81       	ldd	r20, Z+3	; 0x03
    52b4:	e4 2f       	mov	r30, r20
    52b6:	f0 e0       	ldi	r31, 0x00	; 0
    52b8:	df 01       	movw	r26, r30
    52ba:	15 96       	adiw	r26, 0x05	; 5
    52bc:	2a 17       	cp	r18, r26
    52be:	3b 07       	cpc	r19, r27
    52c0:	4c f4       	brge	.+18     	; 0x52d4 <fsp_decode+0xbc>
	    {
		    fsp->payload[fsp_decode_pos - FSP_PKT_POS_TYPE - 1] = byte;
    52c2:	fb 01       	movw	r30, r22
    52c4:	e2 0f       	add	r30, r18
    52c6:	f3 1f       	adc	r31, r19
    52c8:	90 83       	st	Z, r25
		    fsp_decode_pos++;
    52ca:	8f 5f       	subi	r24, 0xFF	; 255
    52cc:	80 93 21 0c 	sts	0x0C21, r24	; 0x800c21 <fsp_decode_pos>
		    return FSP_PKT_NOT_READY;
    52d0:	80 e0       	ldi	r24, 0x00	; 0
    52d2:	2a c0       	rjmp	.+84     	; 0x5328 <fsp_decode+0x110>
	    }
	    else if (fsp_decode_pos == (FSP_PKT_POS_TYPE + fsp->length + 1))    // CRC16 MSB
    52d4:	2a 17       	cp	r18, r26
    52d6:	3b 07       	cpc	r19, r27
    52d8:	41 f4       	brne	.+16     	; 0x52ea <fsp_decode+0xd2>
	    {
		    fsp->crc16 = (uint16_t)(byte << 8);
    52da:	fb 01       	movw	r30, r22
    52dc:	10 aa       	std	Z+48, r1	; 0x30
    52de:	91 ab       	std	Z+49, r25	; 0x31
		    fsp_decode_pos++;
    52e0:	8f 5f       	subi	r24, 0xFF	; 255
    52e2:	80 93 21 0c 	sts	0x0C21, r24	; 0x800c21 <fsp_decode_pos>
		    return FSP_PKT_NOT_READY;
    52e6:	80 e0       	ldi	r24, 0x00	; 0
    52e8:	1f c0       	rjmp	.+62     	; 0x5328 <fsp_decode+0x110>
	    }
	    else if (fsp_decode_pos == (FSP_PKT_POS_TYPE + fsp->length + 2))    // CRC16 LSB
    52ea:	36 96       	adiw	r30, 0x06	; 6
    52ec:	2e 17       	cp	r18, r30
    52ee:	3f 07       	cpc	r19, r31
    52f0:	c1 f4       	brne	.+48     	; 0x5322 <fsp_decode+0x10a>
    52f2:	fb 01       	movw	r30, r22
	    {
		    fsp->crc16 |= (uint16_t)(byte);
    52f4:	c0 a9       	ldd	r28, Z+48	; 0x30
    52f6:	d1 a9       	ldd	r29, Z+49	; 0x31
    52f8:	c9 2b       	or	r28, r25
    52fa:	d1 ab       	std	Z+49, r29	; 0x31
    52fc:	c0 ab       	std	Z+48, r28	; 0x30

		    if (fsp->crc16 == crc16_CCITT(FSP_CRC16_INITIAL_VALUE, &fsp->src_adr, fsp->length + 4))
    52fe:	4c 5f       	subi	r20, 0xFC	; 252
    5300:	6f 5f       	subi	r22, 0xFF	; 255
    5302:	7f 4f       	sbci	r23, 0xFF	; 255
    5304:	80 e0       	ldi	r24, 0x00	; 0
    5306:	90 e0       	ldi	r25, 0x00	; 0
    5308:	0e 94 a0 27 	call	0x4f40	; 0x4f40 <crc16_CCITT>
    530c:	c8 17       	cp	r28, r24
    530e:	d9 07       	cpc	r29, r25
    5310:	21 f4       	brne	.+8      	; 0x531a <fsp_decode+0x102>
		    {
			    fsp_decode_pos = FSP_PKT_POS_SOD;
    5312:	10 92 21 0c 	sts	0x0C21, r1	; 0x800c21 <fsp_decode_pos>
			    return FSP_PKT_READY;
    5316:	81 e0       	ldi	r24, 0x01	; 1
    5318:	07 c0       	rjmp	.+14     	; 0x5328 <fsp_decode+0x110>
		    }
		    else
		    {
			    fsp_decode_pos = FSP_PKT_POS_SOD;
    531a:	10 92 21 0c 	sts	0x0C21, r1	; 0x800c21 <fsp_decode_pos>
			    return FSP_PKT_INVALID;
    531e:	82 e0       	ldi	r24, 0x02	; 2
    5320:	03 c0       	rjmp	.+6      	; 0x5328 <fsp_decode+0x110>
		    }
	    }
	    else
	    {
		    fsp_decode_pos = FSP_PKT_POS_SOD;
    5322:	10 92 21 0c 	sts	0x0C21, r1	; 0x800c21 <fsp_decode_pos>
		    return FSP_PKT_ERROR;
    5326:	84 e0       	ldi	r24, 0x04	; 4
	    }
    }
}
    5328:	df 91       	pop	r29
    532a:	cf 91       	pop	r28
    532c:	08 95       	ret

0000532e <__subsf3>:
    532e:	50 58       	subi	r21, 0x80	; 128

00005330 <__addsf3>:
    5330:	bb 27       	eor	r27, r27
    5332:	aa 27       	eor	r26, r26
    5334:	0e 94 af 29 	call	0x535e	; 0x535e <__addsf3x>
    5338:	0c 94 00 2b 	jmp	0x5600	; 0x5600 <__fp_round>
    533c:	0e 94 f2 2a 	call	0x55e4	; 0x55e4 <__fp_pscA>
    5340:	38 f0       	brcs	.+14     	; 0x5350 <__addsf3+0x20>
    5342:	0e 94 f9 2a 	call	0x55f2	; 0x55f2 <__fp_pscB>
    5346:	20 f0       	brcs	.+8      	; 0x5350 <__addsf3+0x20>
    5348:	39 f4       	brne	.+14     	; 0x5358 <__addsf3+0x28>
    534a:	9f 3f       	cpi	r25, 0xFF	; 255
    534c:	19 f4       	brne	.+6      	; 0x5354 <__addsf3+0x24>
    534e:	26 f4       	brtc	.+8      	; 0x5358 <__addsf3+0x28>
    5350:	0c 94 ef 2a 	jmp	0x55de	; 0x55de <__fp_nan>
    5354:	0e f4       	brtc	.+2      	; 0x5358 <__addsf3+0x28>
    5356:	e0 95       	com	r30
    5358:	e7 fb       	bst	r30, 7
    535a:	0c 94 e9 2a 	jmp	0x55d2	; 0x55d2 <__fp_inf>

0000535e <__addsf3x>:
    535e:	e9 2f       	mov	r30, r25
    5360:	0e 94 11 2b 	call	0x5622	; 0x5622 <__fp_split3>
    5364:	58 f3       	brcs	.-42     	; 0x533c <__addsf3+0xc>
    5366:	ba 17       	cp	r27, r26
    5368:	62 07       	cpc	r22, r18
    536a:	73 07       	cpc	r23, r19
    536c:	84 07       	cpc	r24, r20
    536e:	95 07       	cpc	r25, r21
    5370:	20 f0       	brcs	.+8      	; 0x537a <__addsf3x+0x1c>
    5372:	79 f4       	brne	.+30     	; 0x5392 <__addsf3x+0x34>
    5374:	a6 f5       	brtc	.+104    	; 0x53de <__addsf3x+0x80>
    5376:	0c 94 33 2b 	jmp	0x5666	; 0x5666 <__fp_zero>
    537a:	0e f4       	brtc	.+2      	; 0x537e <__addsf3x+0x20>
    537c:	e0 95       	com	r30
    537e:	0b 2e       	mov	r0, r27
    5380:	ba 2f       	mov	r27, r26
    5382:	a0 2d       	mov	r26, r0
    5384:	0b 01       	movw	r0, r22
    5386:	b9 01       	movw	r22, r18
    5388:	90 01       	movw	r18, r0
    538a:	0c 01       	movw	r0, r24
    538c:	ca 01       	movw	r24, r20
    538e:	a0 01       	movw	r20, r0
    5390:	11 24       	eor	r1, r1
    5392:	ff 27       	eor	r31, r31
    5394:	59 1b       	sub	r21, r25
    5396:	99 f0       	breq	.+38     	; 0x53be <__addsf3x+0x60>
    5398:	59 3f       	cpi	r21, 0xF9	; 249
    539a:	50 f4       	brcc	.+20     	; 0x53b0 <__addsf3x+0x52>
    539c:	50 3e       	cpi	r21, 0xE0	; 224
    539e:	68 f1       	brcs	.+90     	; 0x53fa <__addsf3x+0x9c>
    53a0:	1a 16       	cp	r1, r26
    53a2:	f0 40       	sbci	r31, 0x00	; 0
    53a4:	a2 2f       	mov	r26, r18
    53a6:	23 2f       	mov	r18, r19
    53a8:	34 2f       	mov	r19, r20
    53aa:	44 27       	eor	r20, r20
    53ac:	58 5f       	subi	r21, 0xF8	; 248
    53ae:	f3 cf       	rjmp	.-26     	; 0x5396 <__addsf3x+0x38>
    53b0:	46 95       	lsr	r20
    53b2:	37 95       	ror	r19
    53b4:	27 95       	ror	r18
    53b6:	a7 95       	ror	r26
    53b8:	f0 40       	sbci	r31, 0x00	; 0
    53ba:	53 95       	inc	r21
    53bc:	c9 f7       	brne	.-14     	; 0x53b0 <__addsf3x+0x52>
    53be:	7e f4       	brtc	.+30     	; 0x53de <__addsf3x+0x80>
    53c0:	1f 16       	cp	r1, r31
    53c2:	ba 0b       	sbc	r27, r26
    53c4:	62 0b       	sbc	r22, r18
    53c6:	73 0b       	sbc	r23, r19
    53c8:	84 0b       	sbc	r24, r20
    53ca:	ba f0       	brmi	.+46     	; 0x53fa <__addsf3x+0x9c>
    53cc:	91 50       	subi	r25, 0x01	; 1
    53ce:	a1 f0       	breq	.+40     	; 0x53f8 <__addsf3x+0x9a>
    53d0:	ff 0f       	add	r31, r31
    53d2:	bb 1f       	adc	r27, r27
    53d4:	66 1f       	adc	r22, r22
    53d6:	77 1f       	adc	r23, r23
    53d8:	88 1f       	adc	r24, r24
    53da:	c2 f7       	brpl	.-16     	; 0x53cc <__addsf3x+0x6e>
    53dc:	0e c0       	rjmp	.+28     	; 0x53fa <__addsf3x+0x9c>
    53de:	ba 0f       	add	r27, r26
    53e0:	62 1f       	adc	r22, r18
    53e2:	73 1f       	adc	r23, r19
    53e4:	84 1f       	adc	r24, r20
    53e6:	48 f4       	brcc	.+18     	; 0x53fa <__addsf3x+0x9c>
    53e8:	87 95       	ror	r24
    53ea:	77 95       	ror	r23
    53ec:	67 95       	ror	r22
    53ee:	b7 95       	ror	r27
    53f0:	f7 95       	ror	r31
    53f2:	9e 3f       	cpi	r25, 0xFE	; 254
    53f4:	08 f0       	brcs	.+2      	; 0x53f8 <__addsf3x+0x9a>
    53f6:	b0 cf       	rjmp	.-160    	; 0x5358 <__addsf3+0x28>
    53f8:	93 95       	inc	r25
    53fa:	88 0f       	add	r24, r24
    53fc:	08 f0       	brcs	.+2      	; 0x5400 <__addsf3x+0xa2>
    53fe:	99 27       	eor	r25, r25
    5400:	ee 0f       	add	r30, r30
    5402:	97 95       	ror	r25
    5404:	87 95       	ror	r24
    5406:	08 95       	ret

00005408 <__divsf3>:
    5408:	0e 94 18 2a 	call	0x5430	; 0x5430 <__divsf3x>
    540c:	0c 94 00 2b 	jmp	0x5600	; 0x5600 <__fp_round>
    5410:	0e 94 f9 2a 	call	0x55f2	; 0x55f2 <__fp_pscB>
    5414:	58 f0       	brcs	.+22     	; 0x542c <__divsf3+0x24>
    5416:	0e 94 f2 2a 	call	0x55e4	; 0x55e4 <__fp_pscA>
    541a:	40 f0       	brcs	.+16     	; 0x542c <__divsf3+0x24>
    541c:	29 f4       	brne	.+10     	; 0x5428 <__divsf3+0x20>
    541e:	5f 3f       	cpi	r21, 0xFF	; 255
    5420:	29 f0       	breq	.+10     	; 0x542c <__divsf3+0x24>
    5422:	0c 94 e9 2a 	jmp	0x55d2	; 0x55d2 <__fp_inf>
    5426:	51 11       	cpse	r21, r1
    5428:	0c 94 34 2b 	jmp	0x5668	; 0x5668 <__fp_szero>
    542c:	0c 94 ef 2a 	jmp	0x55de	; 0x55de <__fp_nan>

00005430 <__divsf3x>:
    5430:	0e 94 11 2b 	call	0x5622	; 0x5622 <__fp_split3>
    5434:	68 f3       	brcs	.-38     	; 0x5410 <__divsf3+0x8>

00005436 <__divsf3_pse>:
    5436:	99 23       	and	r25, r25
    5438:	b1 f3       	breq	.-20     	; 0x5426 <__divsf3+0x1e>
    543a:	55 23       	and	r21, r21
    543c:	91 f3       	breq	.-28     	; 0x5422 <__divsf3+0x1a>
    543e:	95 1b       	sub	r25, r21
    5440:	55 0b       	sbc	r21, r21
    5442:	bb 27       	eor	r27, r27
    5444:	aa 27       	eor	r26, r26
    5446:	62 17       	cp	r22, r18
    5448:	73 07       	cpc	r23, r19
    544a:	84 07       	cpc	r24, r20
    544c:	38 f0       	brcs	.+14     	; 0x545c <__divsf3_pse+0x26>
    544e:	9f 5f       	subi	r25, 0xFF	; 255
    5450:	5f 4f       	sbci	r21, 0xFF	; 255
    5452:	22 0f       	add	r18, r18
    5454:	33 1f       	adc	r19, r19
    5456:	44 1f       	adc	r20, r20
    5458:	aa 1f       	adc	r26, r26
    545a:	a9 f3       	breq	.-22     	; 0x5446 <__divsf3_pse+0x10>
    545c:	35 d0       	rcall	.+106    	; 0x54c8 <__divsf3_pse+0x92>
    545e:	0e 2e       	mov	r0, r30
    5460:	3a f0       	brmi	.+14     	; 0x5470 <__divsf3_pse+0x3a>
    5462:	e0 e8       	ldi	r30, 0x80	; 128
    5464:	32 d0       	rcall	.+100    	; 0x54ca <__divsf3_pse+0x94>
    5466:	91 50       	subi	r25, 0x01	; 1
    5468:	50 40       	sbci	r21, 0x00	; 0
    546a:	e6 95       	lsr	r30
    546c:	00 1c       	adc	r0, r0
    546e:	ca f7       	brpl	.-14     	; 0x5462 <__divsf3_pse+0x2c>
    5470:	2b d0       	rcall	.+86     	; 0x54c8 <__divsf3_pse+0x92>
    5472:	fe 2f       	mov	r31, r30
    5474:	29 d0       	rcall	.+82     	; 0x54c8 <__divsf3_pse+0x92>
    5476:	66 0f       	add	r22, r22
    5478:	77 1f       	adc	r23, r23
    547a:	88 1f       	adc	r24, r24
    547c:	bb 1f       	adc	r27, r27
    547e:	26 17       	cp	r18, r22
    5480:	37 07       	cpc	r19, r23
    5482:	48 07       	cpc	r20, r24
    5484:	ab 07       	cpc	r26, r27
    5486:	b0 e8       	ldi	r27, 0x80	; 128
    5488:	09 f0       	breq	.+2      	; 0x548c <__divsf3_pse+0x56>
    548a:	bb 0b       	sbc	r27, r27
    548c:	80 2d       	mov	r24, r0
    548e:	bf 01       	movw	r22, r30
    5490:	ff 27       	eor	r31, r31
    5492:	93 58       	subi	r25, 0x83	; 131
    5494:	5f 4f       	sbci	r21, 0xFF	; 255
    5496:	3a f0       	brmi	.+14     	; 0x54a6 <__divsf3_pse+0x70>
    5498:	9e 3f       	cpi	r25, 0xFE	; 254
    549a:	51 05       	cpc	r21, r1
    549c:	78 f0       	brcs	.+30     	; 0x54bc <__divsf3_pse+0x86>
    549e:	0c 94 e9 2a 	jmp	0x55d2	; 0x55d2 <__fp_inf>
    54a2:	0c 94 34 2b 	jmp	0x5668	; 0x5668 <__fp_szero>
    54a6:	5f 3f       	cpi	r21, 0xFF	; 255
    54a8:	e4 f3       	brlt	.-8      	; 0x54a2 <__divsf3_pse+0x6c>
    54aa:	98 3e       	cpi	r25, 0xE8	; 232
    54ac:	d4 f3       	brlt	.-12     	; 0x54a2 <__divsf3_pse+0x6c>
    54ae:	86 95       	lsr	r24
    54b0:	77 95       	ror	r23
    54b2:	67 95       	ror	r22
    54b4:	b7 95       	ror	r27
    54b6:	f7 95       	ror	r31
    54b8:	9f 5f       	subi	r25, 0xFF	; 255
    54ba:	c9 f7       	brne	.-14     	; 0x54ae <__divsf3_pse+0x78>
    54bc:	88 0f       	add	r24, r24
    54be:	91 1d       	adc	r25, r1
    54c0:	96 95       	lsr	r25
    54c2:	87 95       	ror	r24
    54c4:	97 f9       	bld	r25, 7
    54c6:	08 95       	ret
    54c8:	e1 e0       	ldi	r30, 0x01	; 1
    54ca:	66 0f       	add	r22, r22
    54cc:	77 1f       	adc	r23, r23
    54ce:	88 1f       	adc	r24, r24
    54d0:	bb 1f       	adc	r27, r27
    54d2:	62 17       	cp	r22, r18
    54d4:	73 07       	cpc	r23, r19
    54d6:	84 07       	cpc	r24, r20
    54d8:	ba 07       	cpc	r27, r26
    54da:	20 f0       	brcs	.+8      	; 0x54e4 <__divsf3_pse+0xae>
    54dc:	62 1b       	sub	r22, r18
    54de:	73 0b       	sbc	r23, r19
    54e0:	84 0b       	sbc	r24, r20
    54e2:	ba 0b       	sbc	r27, r26
    54e4:	ee 1f       	adc	r30, r30
    54e6:	88 f7       	brcc	.-30     	; 0x54ca <__divsf3_pse+0x94>
    54e8:	e0 95       	com	r30
    54ea:	08 95       	ret

000054ec <__fixsfsi>:
    54ec:	0e 94 7d 2a 	call	0x54fa	; 0x54fa <__fixunssfsi>
    54f0:	68 94       	set
    54f2:	b1 11       	cpse	r27, r1
    54f4:	0c 94 34 2b 	jmp	0x5668	; 0x5668 <__fp_szero>
    54f8:	08 95       	ret

000054fa <__fixunssfsi>:
    54fa:	0e 94 19 2b 	call	0x5632	; 0x5632 <__fp_splitA>
    54fe:	88 f0       	brcs	.+34     	; 0x5522 <__fixunssfsi+0x28>
    5500:	9f 57       	subi	r25, 0x7F	; 127
    5502:	98 f0       	brcs	.+38     	; 0x552a <__fixunssfsi+0x30>
    5504:	b9 2f       	mov	r27, r25
    5506:	99 27       	eor	r25, r25
    5508:	b7 51       	subi	r27, 0x17	; 23
    550a:	b0 f0       	brcs	.+44     	; 0x5538 <__fixunssfsi+0x3e>
    550c:	e1 f0       	breq	.+56     	; 0x5546 <__fixunssfsi+0x4c>
    550e:	66 0f       	add	r22, r22
    5510:	77 1f       	adc	r23, r23
    5512:	88 1f       	adc	r24, r24
    5514:	99 1f       	adc	r25, r25
    5516:	1a f0       	brmi	.+6      	; 0x551e <__fixunssfsi+0x24>
    5518:	ba 95       	dec	r27
    551a:	c9 f7       	brne	.-14     	; 0x550e <__fixunssfsi+0x14>
    551c:	14 c0       	rjmp	.+40     	; 0x5546 <__fixunssfsi+0x4c>
    551e:	b1 30       	cpi	r27, 0x01	; 1
    5520:	91 f0       	breq	.+36     	; 0x5546 <__fixunssfsi+0x4c>
    5522:	0e 94 33 2b 	call	0x5666	; 0x5666 <__fp_zero>
    5526:	b1 e0       	ldi	r27, 0x01	; 1
    5528:	08 95       	ret
    552a:	0c 94 33 2b 	jmp	0x5666	; 0x5666 <__fp_zero>
    552e:	67 2f       	mov	r22, r23
    5530:	78 2f       	mov	r23, r24
    5532:	88 27       	eor	r24, r24
    5534:	b8 5f       	subi	r27, 0xF8	; 248
    5536:	39 f0       	breq	.+14     	; 0x5546 <__fixunssfsi+0x4c>
    5538:	b9 3f       	cpi	r27, 0xF9	; 249
    553a:	cc f3       	brlt	.-14     	; 0x552e <__fixunssfsi+0x34>
    553c:	86 95       	lsr	r24
    553e:	77 95       	ror	r23
    5540:	67 95       	ror	r22
    5542:	b3 95       	inc	r27
    5544:	d9 f7       	brne	.-10     	; 0x553c <__fixunssfsi+0x42>
    5546:	3e f4       	brtc	.+14     	; 0x5556 <__fixunssfsi+0x5c>
    5548:	90 95       	com	r25
    554a:	80 95       	com	r24
    554c:	70 95       	com	r23
    554e:	61 95       	neg	r22
    5550:	7f 4f       	sbci	r23, 0xFF	; 255
    5552:	8f 4f       	sbci	r24, 0xFF	; 255
    5554:	9f 4f       	sbci	r25, 0xFF	; 255
    5556:	08 95       	ret

00005558 <__floatunsisf>:
    5558:	e8 94       	clt
    555a:	09 c0       	rjmp	.+18     	; 0x556e <__floatsisf+0x12>

0000555c <__floatsisf>:
    555c:	97 fb       	bst	r25, 7
    555e:	3e f4       	brtc	.+14     	; 0x556e <__floatsisf+0x12>
    5560:	90 95       	com	r25
    5562:	80 95       	com	r24
    5564:	70 95       	com	r23
    5566:	61 95       	neg	r22
    5568:	7f 4f       	sbci	r23, 0xFF	; 255
    556a:	8f 4f       	sbci	r24, 0xFF	; 255
    556c:	9f 4f       	sbci	r25, 0xFF	; 255
    556e:	99 23       	and	r25, r25
    5570:	a9 f0       	breq	.+42     	; 0x559c <__floatsisf+0x40>
    5572:	f9 2f       	mov	r31, r25
    5574:	96 e9       	ldi	r25, 0x96	; 150
    5576:	bb 27       	eor	r27, r27
    5578:	93 95       	inc	r25
    557a:	f6 95       	lsr	r31
    557c:	87 95       	ror	r24
    557e:	77 95       	ror	r23
    5580:	67 95       	ror	r22
    5582:	b7 95       	ror	r27
    5584:	f1 11       	cpse	r31, r1
    5586:	f8 cf       	rjmp	.-16     	; 0x5578 <__floatsisf+0x1c>
    5588:	fa f4       	brpl	.+62     	; 0x55c8 <__floatsisf+0x6c>
    558a:	bb 0f       	add	r27, r27
    558c:	11 f4       	brne	.+4      	; 0x5592 <__floatsisf+0x36>
    558e:	60 ff       	sbrs	r22, 0
    5590:	1b c0       	rjmp	.+54     	; 0x55c8 <__floatsisf+0x6c>
    5592:	6f 5f       	subi	r22, 0xFF	; 255
    5594:	7f 4f       	sbci	r23, 0xFF	; 255
    5596:	8f 4f       	sbci	r24, 0xFF	; 255
    5598:	9f 4f       	sbci	r25, 0xFF	; 255
    559a:	16 c0       	rjmp	.+44     	; 0x55c8 <__floatsisf+0x6c>
    559c:	88 23       	and	r24, r24
    559e:	11 f0       	breq	.+4      	; 0x55a4 <__floatsisf+0x48>
    55a0:	96 e9       	ldi	r25, 0x96	; 150
    55a2:	11 c0       	rjmp	.+34     	; 0x55c6 <__floatsisf+0x6a>
    55a4:	77 23       	and	r23, r23
    55a6:	21 f0       	breq	.+8      	; 0x55b0 <__floatsisf+0x54>
    55a8:	9e e8       	ldi	r25, 0x8E	; 142
    55aa:	87 2f       	mov	r24, r23
    55ac:	76 2f       	mov	r23, r22
    55ae:	05 c0       	rjmp	.+10     	; 0x55ba <__floatsisf+0x5e>
    55b0:	66 23       	and	r22, r22
    55b2:	71 f0       	breq	.+28     	; 0x55d0 <__floatsisf+0x74>
    55b4:	96 e8       	ldi	r25, 0x86	; 134
    55b6:	86 2f       	mov	r24, r22
    55b8:	70 e0       	ldi	r23, 0x00	; 0
    55ba:	60 e0       	ldi	r22, 0x00	; 0
    55bc:	2a f0       	brmi	.+10     	; 0x55c8 <__floatsisf+0x6c>
    55be:	9a 95       	dec	r25
    55c0:	66 0f       	add	r22, r22
    55c2:	77 1f       	adc	r23, r23
    55c4:	88 1f       	adc	r24, r24
    55c6:	da f7       	brpl	.-10     	; 0x55be <__floatsisf+0x62>
    55c8:	88 0f       	add	r24, r24
    55ca:	96 95       	lsr	r25
    55cc:	87 95       	ror	r24
    55ce:	97 f9       	bld	r25, 7
    55d0:	08 95       	ret

000055d2 <__fp_inf>:
    55d2:	97 f9       	bld	r25, 7
    55d4:	9f 67       	ori	r25, 0x7F	; 127
    55d6:	80 e8       	ldi	r24, 0x80	; 128
    55d8:	70 e0       	ldi	r23, 0x00	; 0
    55da:	60 e0       	ldi	r22, 0x00	; 0
    55dc:	08 95       	ret

000055de <__fp_nan>:
    55de:	9f ef       	ldi	r25, 0xFF	; 255
    55e0:	80 ec       	ldi	r24, 0xC0	; 192
    55e2:	08 95       	ret

000055e4 <__fp_pscA>:
    55e4:	00 24       	eor	r0, r0
    55e6:	0a 94       	dec	r0
    55e8:	16 16       	cp	r1, r22
    55ea:	17 06       	cpc	r1, r23
    55ec:	18 06       	cpc	r1, r24
    55ee:	09 06       	cpc	r0, r25
    55f0:	08 95       	ret

000055f2 <__fp_pscB>:
    55f2:	00 24       	eor	r0, r0
    55f4:	0a 94       	dec	r0
    55f6:	12 16       	cp	r1, r18
    55f8:	13 06       	cpc	r1, r19
    55fa:	14 06       	cpc	r1, r20
    55fc:	05 06       	cpc	r0, r21
    55fe:	08 95       	ret

00005600 <__fp_round>:
    5600:	09 2e       	mov	r0, r25
    5602:	03 94       	inc	r0
    5604:	00 0c       	add	r0, r0
    5606:	11 f4       	brne	.+4      	; 0x560c <__fp_round+0xc>
    5608:	88 23       	and	r24, r24
    560a:	52 f0       	brmi	.+20     	; 0x5620 <__fp_round+0x20>
    560c:	bb 0f       	add	r27, r27
    560e:	40 f4       	brcc	.+16     	; 0x5620 <__fp_round+0x20>
    5610:	bf 2b       	or	r27, r31
    5612:	11 f4       	brne	.+4      	; 0x5618 <__fp_round+0x18>
    5614:	60 ff       	sbrs	r22, 0
    5616:	04 c0       	rjmp	.+8      	; 0x5620 <__fp_round+0x20>
    5618:	6f 5f       	subi	r22, 0xFF	; 255
    561a:	7f 4f       	sbci	r23, 0xFF	; 255
    561c:	8f 4f       	sbci	r24, 0xFF	; 255
    561e:	9f 4f       	sbci	r25, 0xFF	; 255
    5620:	08 95       	ret

00005622 <__fp_split3>:
    5622:	57 fd       	sbrc	r21, 7
    5624:	90 58       	subi	r25, 0x80	; 128
    5626:	44 0f       	add	r20, r20
    5628:	55 1f       	adc	r21, r21
    562a:	59 f0       	breq	.+22     	; 0x5642 <__fp_splitA+0x10>
    562c:	5f 3f       	cpi	r21, 0xFF	; 255
    562e:	71 f0       	breq	.+28     	; 0x564c <__fp_splitA+0x1a>
    5630:	47 95       	ror	r20

00005632 <__fp_splitA>:
    5632:	88 0f       	add	r24, r24
    5634:	97 fb       	bst	r25, 7
    5636:	99 1f       	adc	r25, r25
    5638:	61 f0       	breq	.+24     	; 0x5652 <__fp_splitA+0x20>
    563a:	9f 3f       	cpi	r25, 0xFF	; 255
    563c:	79 f0       	breq	.+30     	; 0x565c <__fp_splitA+0x2a>
    563e:	87 95       	ror	r24
    5640:	08 95       	ret
    5642:	12 16       	cp	r1, r18
    5644:	13 06       	cpc	r1, r19
    5646:	14 06       	cpc	r1, r20
    5648:	55 1f       	adc	r21, r21
    564a:	f2 cf       	rjmp	.-28     	; 0x5630 <__fp_split3+0xe>
    564c:	46 95       	lsr	r20
    564e:	f1 df       	rcall	.-30     	; 0x5632 <__fp_splitA>
    5650:	08 c0       	rjmp	.+16     	; 0x5662 <__fp_splitA+0x30>
    5652:	16 16       	cp	r1, r22
    5654:	17 06       	cpc	r1, r23
    5656:	18 06       	cpc	r1, r24
    5658:	99 1f       	adc	r25, r25
    565a:	f1 cf       	rjmp	.-30     	; 0x563e <__fp_splitA+0xc>
    565c:	86 95       	lsr	r24
    565e:	71 05       	cpc	r23, r1
    5660:	61 05       	cpc	r22, r1
    5662:	08 94       	sec
    5664:	08 95       	ret

00005666 <__fp_zero>:
    5666:	e8 94       	clt

00005668 <__fp_szero>:
    5668:	bb 27       	eor	r27, r27
    566a:	66 27       	eor	r22, r22
    566c:	77 27       	eor	r23, r23
    566e:	cb 01       	movw	r24, r22
    5670:	97 f9       	bld	r25, 7
    5672:	08 95       	ret

00005674 <__mulsf3>:
    5674:	0e 94 4d 2b 	call	0x569a	; 0x569a <__mulsf3x>
    5678:	0c 94 00 2b 	jmp	0x5600	; 0x5600 <__fp_round>
    567c:	0e 94 f2 2a 	call	0x55e4	; 0x55e4 <__fp_pscA>
    5680:	38 f0       	brcs	.+14     	; 0x5690 <__mulsf3+0x1c>
    5682:	0e 94 f9 2a 	call	0x55f2	; 0x55f2 <__fp_pscB>
    5686:	20 f0       	brcs	.+8      	; 0x5690 <__mulsf3+0x1c>
    5688:	95 23       	and	r25, r21
    568a:	11 f0       	breq	.+4      	; 0x5690 <__mulsf3+0x1c>
    568c:	0c 94 e9 2a 	jmp	0x55d2	; 0x55d2 <__fp_inf>
    5690:	0c 94 ef 2a 	jmp	0x55de	; 0x55de <__fp_nan>
    5694:	11 24       	eor	r1, r1
    5696:	0c 94 34 2b 	jmp	0x5668	; 0x5668 <__fp_szero>

0000569a <__mulsf3x>:
    569a:	0e 94 11 2b 	call	0x5622	; 0x5622 <__fp_split3>
    569e:	70 f3       	brcs	.-36     	; 0x567c <__mulsf3+0x8>

000056a0 <__mulsf3_pse>:
    56a0:	95 9f       	mul	r25, r21
    56a2:	c1 f3       	breq	.-16     	; 0x5694 <__mulsf3+0x20>
    56a4:	95 0f       	add	r25, r21
    56a6:	50 e0       	ldi	r21, 0x00	; 0
    56a8:	55 1f       	adc	r21, r21
    56aa:	62 9f       	mul	r22, r18
    56ac:	f0 01       	movw	r30, r0
    56ae:	72 9f       	mul	r23, r18
    56b0:	bb 27       	eor	r27, r27
    56b2:	f0 0d       	add	r31, r0
    56b4:	b1 1d       	adc	r27, r1
    56b6:	63 9f       	mul	r22, r19
    56b8:	aa 27       	eor	r26, r26
    56ba:	f0 0d       	add	r31, r0
    56bc:	b1 1d       	adc	r27, r1
    56be:	aa 1f       	adc	r26, r26
    56c0:	64 9f       	mul	r22, r20
    56c2:	66 27       	eor	r22, r22
    56c4:	b0 0d       	add	r27, r0
    56c6:	a1 1d       	adc	r26, r1
    56c8:	66 1f       	adc	r22, r22
    56ca:	82 9f       	mul	r24, r18
    56cc:	22 27       	eor	r18, r18
    56ce:	b0 0d       	add	r27, r0
    56d0:	a1 1d       	adc	r26, r1
    56d2:	62 1f       	adc	r22, r18
    56d4:	73 9f       	mul	r23, r19
    56d6:	b0 0d       	add	r27, r0
    56d8:	a1 1d       	adc	r26, r1
    56da:	62 1f       	adc	r22, r18
    56dc:	83 9f       	mul	r24, r19
    56de:	a0 0d       	add	r26, r0
    56e0:	61 1d       	adc	r22, r1
    56e2:	22 1f       	adc	r18, r18
    56e4:	74 9f       	mul	r23, r20
    56e6:	33 27       	eor	r19, r19
    56e8:	a0 0d       	add	r26, r0
    56ea:	61 1d       	adc	r22, r1
    56ec:	23 1f       	adc	r18, r19
    56ee:	84 9f       	mul	r24, r20
    56f0:	60 0d       	add	r22, r0
    56f2:	21 1d       	adc	r18, r1
    56f4:	82 2f       	mov	r24, r18
    56f6:	76 2f       	mov	r23, r22
    56f8:	6a 2f       	mov	r22, r26
    56fa:	11 24       	eor	r1, r1
    56fc:	9f 57       	subi	r25, 0x7F	; 127
    56fe:	50 40       	sbci	r21, 0x00	; 0
    5700:	9a f0       	brmi	.+38     	; 0x5728 <__mulsf3_pse+0x88>
    5702:	f1 f0       	breq	.+60     	; 0x5740 <__mulsf3_pse+0xa0>
    5704:	88 23       	and	r24, r24
    5706:	4a f0       	brmi	.+18     	; 0x571a <__mulsf3_pse+0x7a>
    5708:	ee 0f       	add	r30, r30
    570a:	ff 1f       	adc	r31, r31
    570c:	bb 1f       	adc	r27, r27
    570e:	66 1f       	adc	r22, r22
    5710:	77 1f       	adc	r23, r23
    5712:	88 1f       	adc	r24, r24
    5714:	91 50       	subi	r25, 0x01	; 1
    5716:	50 40       	sbci	r21, 0x00	; 0
    5718:	a9 f7       	brne	.-22     	; 0x5704 <__mulsf3_pse+0x64>
    571a:	9e 3f       	cpi	r25, 0xFE	; 254
    571c:	51 05       	cpc	r21, r1
    571e:	80 f0       	brcs	.+32     	; 0x5740 <__mulsf3_pse+0xa0>
    5720:	0c 94 e9 2a 	jmp	0x55d2	; 0x55d2 <__fp_inf>
    5724:	0c 94 34 2b 	jmp	0x5668	; 0x5668 <__fp_szero>
    5728:	5f 3f       	cpi	r21, 0xFF	; 255
    572a:	e4 f3       	brlt	.-8      	; 0x5724 <__mulsf3_pse+0x84>
    572c:	98 3e       	cpi	r25, 0xE8	; 232
    572e:	d4 f3       	brlt	.-12     	; 0x5724 <__mulsf3_pse+0x84>
    5730:	86 95       	lsr	r24
    5732:	77 95       	ror	r23
    5734:	67 95       	ror	r22
    5736:	b7 95       	ror	r27
    5738:	f7 95       	ror	r31
    573a:	e7 95       	ror	r30
    573c:	9f 5f       	subi	r25, 0xFF	; 255
    573e:	c1 f7       	brne	.-16     	; 0x5730 <__mulsf3_pse+0x90>
    5740:	fe 2b       	or	r31, r30
    5742:	88 0f       	add	r24, r24
    5744:	91 1d       	adc	r25, r1
    5746:	96 95       	lsr	r25
    5748:	87 95       	ror	r24
    574a:	97 f9       	bld	r25, 7
    574c:	08 95       	ret

0000574e <vfprintf>:
    574e:	a0 e1       	ldi	r26, 0x10	; 16
    5750:	b0 e0       	ldi	r27, 0x00	; 0
    5752:	ed ea       	ldi	r30, 0xAD	; 173
    5754:	fb e2       	ldi	r31, 0x2B	; 43
    5756:	0c 94 67 2f 	jmp	0x5ece	; 0x5ece <__prologue_saves__>
    575a:	7c 01       	movw	r14, r24
    575c:	1b 01       	movw	r2, r22
    575e:	6a 01       	movw	r12, r20
    5760:	fc 01       	movw	r30, r24
    5762:	17 82       	std	Z+7, r1	; 0x07
    5764:	16 82       	std	Z+6, r1	; 0x06
    5766:	83 81       	ldd	r24, Z+3	; 0x03
    5768:	81 ff       	sbrs	r24, 1
    576a:	44 c3       	rjmp	.+1672   	; 0x5df4 <vfprintf+0x6a6>
    576c:	9e 01       	movw	r18, r28
    576e:	2f 5f       	subi	r18, 0xFF	; 255
    5770:	3f 4f       	sbci	r19, 0xFF	; 255
    5772:	39 01       	movw	r6, r18
    5774:	f7 01       	movw	r30, r14
    5776:	93 81       	ldd	r25, Z+3	; 0x03
    5778:	f1 01       	movw	r30, r2
    577a:	93 fd       	sbrc	r25, 3
    577c:	85 91       	lpm	r24, Z+
    577e:	93 ff       	sbrs	r25, 3
    5780:	81 91       	ld	r24, Z+
    5782:	1f 01       	movw	r2, r30
    5784:	88 23       	and	r24, r24
    5786:	09 f4       	brne	.+2      	; 0x578a <vfprintf+0x3c>
    5788:	31 c3       	rjmp	.+1634   	; 0x5dec <vfprintf+0x69e>
    578a:	85 32       	cpi	r24, 0x25	; 37
    578c:	39 f4       	brne	.+14     	; 0x579c <vfprintf+0x4e>
    578e:	93 fd       	sbrc	r25, 3
    5790:	85 91       	lpm	r24, Z+
    5792:	93 ff       	sbrs	r25, 3
    5794:	81 91       	ld	r24, Z+
    5796:	1f 01       	movw	r2, r30
    5798:	85 32       	cpi	r24, 0x25	; 37
    579a:	39 f4       	brne	.+14     	; 0x57aa <vfprintf+0x5c>
    579c:	b7 01       	movw	r22, r14
    579e:	90 e0       	ldi	r25, 0x00	; 0
    57a0:	0e 94 ca 30 	call	0x6194	; 0x6194 <fputc>
    57a4:	56 01       	movw	r10, r12
    57a6:	65 01       	movw	r12, r10
    57a8:	e5 cf       	rjmp	.-54     	; 0x5774 <vfprintf+0x26>
    57aa:	10 e0       	ldi	r17, 0x00	; 0
    57ac:	51 2c       	mov	r5, r1
    57ae:	91 2c       	mov	r9, r1
    57b0:	ff e1       	ldi	r31, 0x1F	; 31
    57b2:	f9 15       	cp	r31, r9
    57b4:	d8 f0       	brcs	.+54     	; 0x57ec <vfprintf+0x9e>
    57b6:	8b 32       	cpi	r24, 0x2B	; 43
    57b8:	79 f0       	breq	.+30     	; 0x57d8 <vfprintf+0x8a>
    57ba:	38 f4       	brcc	.+14     	; 0x57ca <vfprintf+0x7c>
    57bc:	80 32       	cpi	r24, 0x20	; 32
    57be:	79 f0       	breq	.+30     	; 0x57de <vfprintf+0x90>
    57c0:	83 32       	cpi	r24, 0x23	; 35
    57c2:	a1 f4       	brne	.+40     	; 0x57ec <vfprintf+0x9e>
    57c4:	f9 2d       	mov	r31, r9
    57c6:	f0 61       	ori	r31, 0x10	; 16
    57c8:	2e c0       	rjmp	.+92     	; 0x5826 <vfprintf+0xd8>
    57ca:	8d 32       	cpi	r24, 0x2D	; 45
    57cc:	61 f0       	breq	.+24     	; 0x57e6 <vfprintf+0x98>
    57ce:	80 33       	cpi	r24, 0x30	; 48
    57d0:	69 f4       	brne	.+26     	; 0x57ec <vfprintf+0x9e>
    57d2:	29 2d       	mov	r18, r9
    57d4:	21 60       	ori	r18, 0x01	; 1
    57d6:	2d c0       	rjmp	.+90     	; 0x5832 <vfprintf+0xe4>
    57d8:	39 2d       	mov	r19, r9
    57da:	32 60       	ori	r19, 0x02	; 2
    57dc:	93 2e       	mov	r9, r19
    57de:	89 2d       	mov	r24, r9
    57e0:	84 60       	ori	r24, 0x04	; 4
    57e2:	98 2e       	mov	r9, r24
    57e4:	2a c0       	rjmp	.+84     	; 0x583a <vfprintf+0xec>
    57e6:	e9 2d       	mov	r30, r9
    57e8:	e8 60       	ori	r30, 0x08	; 8
    57ea:	15 c0       	rjmp	.+42     	; 0x5816 <vfprintf+0xc8>
    57ec:	97 fc       	sbrc	r9, 7
    57ee:	2d c0       	rjmp	.+90     	; 0x584a <vfprintf+0xfc>
    57f0:	20 ed       	ldi	r18, 0xD0	; 208
    57f2:	28 0f       	add	r18, r24
    57f4:	2a 30       	cpi	r18, 0x0A	; 10
    57f6:	88 f4       	brcc	.+34     	; 0x581a <vfprintf+0xcc>
    57f8:	96 fe       	sbrs	r9, 6
    57fa:	06 c0       	rjmp	.+12     	; 0x5808 <vfprintf+0xba>
    57fc:	3a e0       	ldi	r19, 0x0A	; 10
    57fe:	13 9f       	mul	r17, r19
    5800:	20 0d       	add	r18, r0
    5802:	11 24       	eor	r1, r1
    5804:	12 2f       	mov	r17, r18
    5806:	19 c0       	rjmp	.+50     	; 0x583a <vfprintf+0xec>
    5808:	8a e0       	ldi	r24, 0x0A	; 10
    580a:	58 9e       	mul	r5, r24
    580c:	20 0d       	add	r18, r0
    580e:	11 24       	eor	r1, r1
    5810:	52 2e       	mov	r5, r18
    5812:	e9 2d       	mov	r30, r9
    5814:	e0 62       	ori	r30, 0x20	; 32
    5816:	9e 2e       	mov	r9, r30
    5818:	10 c0       	rjmp	.+32     	; 0x583a <vfprintf+0xec>
    581a:	8e 32       	cpi	r24, 0x2E	; 46
    581c:	31 f4       	brne	.+12     	; 0x582a <vfprintf+0xdc>
    581e:	96 fc       	sbrc	r9, 6
    5820:	e5 c2       	rjmp	.+1482   	; 0x5dec <vfprintf+0x69e>
    5822:	f9 2d       	mov	r31, r9
    5824:	f0 64       	ori	r31, 0x40	; 64
    5826:	9f 2e       	mov	r9, r31
    5828:	08 c0       	rjmp	.+16     	; 0x583a <vfprintf+0xec>
    582a:	8c 36       	cpi	r24, 0x6C	; 108
    582c:	21 f4       	brne	.+8      	; 0x5836 <vfprintf+0xe8>
    582e:	29 2d       	mov	r18, r9
    5830:	20 68       	ori	r18, 0x80	; 128
    5832:	92 2e       	mov	r9, r18
    5834:	02 c0       	rjmp	.+4      	; 0x583a <vfprintf+0xec>
    5836:	88 36       	cpi	r24, 0x68	; 104
    5838:	41 f4       	brne	.+16     	; 0x584a <vfprintf+0xfc>
    583a:	f1 01       	movw	r30, r2
    583c:	93 fd       	sbrc	r25, 3
    583e:	85 91       	lpm	r24, Z+
    5840:	93 ff       	sbrs	r25, 3
    5842:	81 91       	ld	r24, Z+
    5844:	1f 01       	movw	r2, r30
    5846:	81 11       	cpse	r24, r1
    5848:	b3 cf       	rjmp	.-154    	; 0x57b0 <vfprintf+0x62>
    584a:	9b eb       	ldi	r25, 0xBB	; 187
    584c:	98 0f       	add	r25, r24
    584e:	93 30       	cpi	r25, 0x03	; 3
    5850:	20 f4       	brcc	.+8      	; 0x585a <vfprintf+0x10c>
    5852:	99 2d       	mov	r25, r9
    5854:	90 61       	ori	r25, 0x10	; 16
    5856:	80 5e       	subi	r24, 0xE0	; 224
    5858:	07 c0       	rjmp	.+14     	; 0x5868 <vfprintf+0x11a>
    585a:	9b e9       	ldi	r25, 0x9B	; 155
    585c:	98 0f       	add	r25, r24
    585e:	93 30       	cpi	r25, 0x03	; 3
    5860:	08 f0       	brcs	.+2      	; 0x5864 <vfprintf+0x116>
    5862:	66 c1       	rjmp	.+716    	; 0x5b30 <vfprintf+0x3e2>
    5864:	99 2d       	mov	r25, r9
    5866:	9f 7e       	andi	r25, 0xEF	; 239
    5868:	96 ff       	sbrs	r25, 6
    586a:	16 e0       	ldi	r17, 0x06	; 6
    586c:	9f 73       	andi	r25, 0x3F	; 63
    586e:	99 2e       	mov	r9, r25
    5870:	85 36       	cpi	r24, 0x65	; 101
    5872:	19 f4       	brne	.+6      	; 0x587a <vfprintf+0x12c>
    5874:	90 64       	ori	r25, 0x40	; 64
    5876:	99 2e       	mov	r9, r25
    5878:	08 c0       	rjmp	.+16     	; 0x588a <vfprintf+0x13c>
    587a:	86 36       	cpi	r24, 0x66	; 102
    587c:	21 f4       	brne	.+8      	; 0x5886 <vfprintf+0x138>
    587e:	39 2f       	mov	r19, r25
    5880:	30 68       	ori	r19, 0x80	; 128
    5882:	93 2e       	mov	r9, r19
    5884:	02 c0       	rjmp	.+4      	; 0x588a <vfprintf+0x13c>
    5886:	11 11       	cpse	r17, r1
    5888:	11 50       	subi	r17, 0x01	; 1
    588a:	97 fe       	sbrs	r9, 7
    588c:	07 c0       	rjmp	.+14     	; 0x589c <vfprintf+0x14e>
    588e:	1c 33       	cpi	r17, 0x3C	; 60
    5890:	50 f4       	brcc	.+20     	; 0x58a6 <vfprintf+0x158>
    5892:	44 24       	eor	r4, r4
    5894:	43 94       	inc	r4
    5896:	41 0e       	add	r4, r17
    5898:	27 e0       	ldi	r18, 0x07	; 7
    589a:	0b c0       	rjmp	.+22     	; 0x58b2 <vfprintf+0x164>
    589c:	18 30       	cpi	r17, 0x08	; 8
    589e:	38 f0       	brcs	.+14     	; 0x58ae <vfprintf+0x160>
    58a0:	27 e0       	ldi	r18, 0x07	; 7
    58a2:	17 e0       	ldi	r17, 0x07	; 7
    58a4:	05 c0       	rjmp	.+10     	; 0x58b0 <vfprintf+0x162>
    58a6:	27 e0       	ldi	r18, 0x07	; 7
    58a8:	9c e3       	ldi	r25, 0x3C	; 60
    58aa:	49 2e       	mov	r4, r25
    58ac:	02 c0       	rjmp	.+4      	; 0x58b2 <vfprintf+0x164>
    58ae:	21 2f       	mov	r18, r17
    58b0:	41 2c       	mov	r4, r1
    58b2:	56 01       	movw	r10, r12
    58b4:	84 e0       	ldi	r24, 0x04	; 4
    58b6:	a8 0e       	add	r10, r24
    58b8:	b1 1c       	adc	r11, r1
    58ba:	f6 01       	movw	r30, r12
    58bc:	60 81       	ld	r22, Z
    58be:	71 81       	ldd	r23, Z+1	; 0x01
    58c0:	82 81       	ldd	r24, Z+2	; 0x02
    58c2:	93 81       	ldd	r25, Z+3	; 0x03
    58c4:	04 2d       	mov	r16, r4
    58c6:	a3 01       	movw	r20, r6
    58c8:	0e 94 cb 2f 	call	0x5f96	; 0x5f96 <__ftoa_engine>
    58cc:	6c 01       	movw	r12, r24
    58ce:	f9 81       	ldd	r31, Y+1	; 0x01
    58d0:	fc 87       	std	Y+12, r31	; 0x0c
    58d2:	f0 ff       	sbrs	r31, 0
    58d4:	02 c0       	rjmp	.+4      	; 0x58da <vfprintf+0x18c>
    58d6:	f3 ff       	sbrs	r31, 3
    58d8:	06 c0       	rjmp	.+12     	; 0x58e6 <vfprintf+0x198>
    58da:	91 fc       	sbrc	r9, 1
    58dc:	06 c0       	rjmp	.+12     	; 0x58ea <vfprintf+0x19c>
    58de:	92 fe       	sbrs	r9, 2
    58e0:	06 c0       	rjmp	.+12     	; 0x58ee <vfprintf+0x1a0>
    58e2:	00 e2       	ldi	r16, 0x20	; 32
    58e4:	05 c0       	rjmp	.+10     	; 0x58f0 <vfprintf+0x1a2>
    58e6:	0d e2       	ldi	r16, 0x2D	; 45
    58e8:	03 c0       	rjmp	.+6      	; 0x58f0 <vfprintf+0x1a2>
    58ea:	0b e2       	ldi	r16, 0x2B	; 43
    58ec:	01 c0       	rjmp	.+2      	; 0x58f0 <vfprintf+0x1a2>
    58ee:	00 e0       	ldi	r16, 0x00	; 0
    58f0:	8c 85       	ldd	r24, Y+12	; 0x0c
    58f2:	8c 70       	andi	r24, 0x0C	; 12
    58f4:	19 f0       	breq	.+6      	; 0x58fc <vfprintf+0x1ae>
    58f6:	01 11       	cpse	r16, r1
    58f8:	5a c2       	rjmp	.+1204   	; 0x5dae <vfprintf+0x660>
    58fa:	9b c2       	rjmp	.+1334   	; 0x5e32 <vfprintf+0x6e4>
    58fc:	97 fe       	sbrs	r9, 7
    58fe:	10 c0       	rjmp	.+32     	; 0x5920 <vfprintf+0x1d2>
    5900:	4c 0c       	add	r4, r12
    5902:	fc 85       	ldd	r31, Y+12	; 0x0c
    5904:	f4 ff       	sbrs	r31, 4
    5906:	04 c0       	rjmp	.+8      	; 0x5910 <vfprintf+0x1c2>
    5908:	8a 81       	ldd	r24, Y+2	; 0x02
    590a:	81 33       	cpi	r24, 0x31	; 49
    590c:	09 f4       	brne	.+2      	; 0x5910 <vfprintf+0x1c2>
    590e:	4a 94       	dec	r4
    5910:	14 14       	cp	r1, r4
    5912:	74 f5       	brge	.+92     	; 0x5970 <vfprintf+0x222>
    5914:	28 e0       	ldi	r18, 0x08	; 8
    5916:	24 15       	cp	r18, r4
    5918:	78 f5       	brcc	.+94     	; 0x5978 <vfprintf+0x22a>
    591a:	88 e0       	ldi	r24, 0x08	; 8
    591c:	48 2e       	mov	r4, r24
    591e:	2c c0       	rjmp	.+88     	; 0x5978 <vfprintf+0x22a>
    5920:	96 fc       	sbrc	r9, 6
    5922:	2a c0       	rjmp	.+84     	; 0x5978 <vfprintf+0x22a>
    5924:	81 2f       	mov	r24, r17
    5926:	90 e0       	ldi	r25, 0x00	; 0
    5928:	8c 15       	cp	r24, r12
    592a:	9d 05       	cpc	r25, r13
    592c:	9c f0       	brlt	.+38     	; 0x5954 <vfprintf+0x206>
    592e:	3c ef       	ldi	r19, 0xFC	; 252
    5930:	c3 16       	cp	r12, r19
    5932:	3f ef       	ldi	r19, 0xFF	; 255
    5934:	d3 06       	cpc	r13, r19
    5936:	74 f0       	brlt	.+28     	; 0x5954 <vfprintf+0x206>
    5938:	89 2d       	mov	r24, r9
    593a:	80 68       	ori	r24, 0x80	; 128
    593c:	98 2e       	mov	r9, r24
    593e:	0a c0       	rjmp	.+20     	; 0x5954 <vfprintf+0x206>
    5940:	e2 e0       	ldi	r30, 0x02	; 2
    5942:	f0 e0       	ldi	r31, 0x00	; 0
    5944:	ec 0f       	add	r30, r28
    5946:	fd 1f       	adc	r31, r29
    5948:	e1 0f       	add	r30, r17
    594a:	f1 1d       	adc	r31, r1
    594c:	80 81       	ld	r24, Z
    594e:	80 33       	cpi	r24, 0x30	; 48
    5950:	19 f4       	brne	.+6      	; 0x5958 <vfprintf+0x20a>
    5952:	11 50       	subi	r17, 0x01	; 1
    5954:	11 11       	cpse	r17, r1
    5956:	f4 cf       	rjmp	.-24     	; 0x5940 <vfprintf+0x1f2>
    5958:	97 fe       	sbrs	r9, 7
    595a:	0e c0       	rjmp	.+28     	; 0x5978 <vfprintf+0x22a>
    595c:	44 24       	eor	r4, r4
    595e:	43 94       	inc	r4
    5960:	41 0e       	add	r4, r17
    5962:	81 2f       	mov	r24, r17
    5964:	90 e0       	ldi	r25, 0x00	; 0
    5966:	c8 16       	cp	r12, r24
    5968:	d9 06       	cpc	r13, r25
    596a:	2c f4       	brge	.+10     	; 0x5976 <vfprintf+0x228>
    596c:	1c 19       	sub	r17, r12
    596e:	04 c0       	rjmp	.+8      	; 0x5978 <vfprintf+0x22a>
    5970:	44 24       	eor	r4, r4
    5972:	43 94       	inc	r4
    5974:	01 c0       	rjmp	.+2      	; 0x5978 <vfprintf+0x22a>
    5976:	10 e0       	ldi	r17, 0x00	; 0
    5978:	97 fe       	sbrs	r9, 7
    597a:	06 c0       	rjmp	.+12     	; 0x5988 <vfprintf+0x23a>
    597c:	1c 14       	cp	r1, r12
    597e:	1d 04       	cpc	r1, r13
    5980:	34 f4       	brge	.+12     	; 0x598e <vfprintf+0x240>
    5982:	c6 01       	movw	r24, r12
    5984:	01 96       	adiw	r24, 0x01	; 1
    5986:	05 c0       	rjmp	.+10     	; 0x5992 <vfprintf+0x244>
    5988:	85 e0       	ldi	r24, 0x05	; 5
    598a:	90 e0       	ldi	r25, 0x00	; 0
    598c:	02 c0       	rjmp	.+4      	; 0x5992 <vfprintf+0x244>
    598e:	81 e0       	ldi	r24, 0x01	; 1
    5990:	90 e0       	ldi	r25, 0x00	; 0
    5992:	01 11       	cpse	r16, r1
    5994:	01 96       	adiw	r24, 0x01	; 1
    5996:	11 23       	and	r17, r17
    5998:	31 f0       	breq	.+12     	; 0x59a6 <vfprintf+0x258>
    599a:	21 2f       	mov	r18, r17
    599c:	30 e0       	ldi	r19, 0x00	; 0
    599e:	2f 5f       	subi	r18, 0xFF	; 255
    59a0:	3f 4f       	sbci	r19, 0xFF	; 255
    59a2:	82 0f       	add	r24, r18
    59a4:	93 1f       	adc	r25, r19
    59a6:	25 2d       	mov	r18, r5
    59a8:	30 e0       	ldi	r19, 0x00	; 0
    59aa:	82 17       	cp	r24, r18
    59ac:	93 07       	cpc	r25, r19
    59ae:	14 f4       	brge	.+4      	; 0x59b4 <vfprintf+0x266>
    59b0:	58 1a       	sub	r5, r24
    59b2:	01 c0       	rjmp	.+2      	; 0x59b6 <vfprintf+0x268>
    59b4:	51 2c       	mov	r5, r1
    59b6:	89 2d       	mov	r24, r9
    59b8:	89 70       	andi	r24, 0x09	; 9
    59ba:	49 f4       	brne	.+18     	; 0x59ce <vfprintf+0x280>
    59bc:	55 20       	and	r5, r5
    59be:	39 f0       	breq	.+14     	; 0x59ce <vfprintf+0x280>
    59c0:	b7 01       	movw	r22, r14
    59c2:	80 e2       	ldi	r24, 0x20	; 32
    59c4:	90 e0       	ldi	r25, 0x00	; 0
    59c6:	0e 94 ca 30 	call	0x6194	; 0x6194 <fputc>
    59ca:	5a 94       	dec	r5
    59cc:	f7 cf       	rjmp	.-18     	; 0x59bc <vfprintf+0x26e>
    59ce:	00 23       	and	r16, r16
    59d0:	29 f0       	breq	.+10     	; 0x59dc <vfprintf+0x28e>
    59d2:	b7 01       	movw	r22, r14
    59d4:	80 2f       	mov	r24, r16
    59d6:	90 e0       	ldi	r25, 0x00	; 0
    59d8:	0e 94 ca 30 	call	0x6194	; 0x6194 <fputc>
    59dc:	93 fc       	sbrc	r9, 3
    59de:	09 c0       	rjmp	.+18     	; 0x59f2 <vfprintf+0x2a4>
    59e0:	55 20       	and	r5, r5
    59e2:	39 f0       	breq	.+14     	; 0x59f2 <vfprintf+0x2a4>
    59e4:	b7 01       	movw	r22, r14
    59e6:	80 e3       	ldi	r24, 0x30	; 48
    59e8:	90 e0       	ldi	r25, 0x00	; 0
    59ea:	0e 94 ca 30 	call	0x6194	; 0x6194 <fputc>
    59ee:	5a 94       	dec	r5
    59f0:	f7 cf       	rjmp	.-18     	; 0x59e0 <vfprintf+0x292>
    59f2:	97 fe       	sbrs	r9, 7
    59f4:	4c c0       	rjmp	.+152    	; 0x5a8e <vfprintf+0x340>
    59f6:	46 01       	movw	r8, r12
    59f8:	d7 fe       	sbrs	r13, 7
    59fa:	02 c0       	rjmp	.+4      	; 0x5a00 <vfprintf+0x2b2>
    59fc:	81 2c       	mov	r8, r1
    59fe:	91 2c       	mov	r9, r1
    5a00:	c6 01       	movw	r24, r12
    5a02:	88 19       	sub	r24, r8
    5a04:	99 09       	sbc	r25, r9
    5a06:	f3 01       	movw	r30, r6
    5a08:	e8 0f       	add	r30, r24
    5a0a:	f9 1f       	adc	r31, r25
    5a0c:	fe 87       	std	Y+14, r31	; 0x0e
    5a0e:	ed 87       	std	Y+13, r30	; 0x0d
    5a10:	96 01       	movw	r18, r12
    5a12:	24 19       	sub	r18, r4
    5a14:	31 09       	sbc	r19, r1
    5a16:	38 8b       	std	Y+16, r19	; 0x10
    5a18:	2f 87       	std	Y+15, r18	; 0x0f
    5a1a:	01 2f       	mov	r16, r17
    5a1c:	10 e0       	ldi	r17, 0x00	; 0
    5a1e:	11 95       	neg	r17
    5a20:	01 95       	neg	r16
    5a22:	11 09       	sbc	r17, r1
    5a24:	3f ef       	ldi	r19, 0xFF	; 255
    5a26:	83 16       	cp	r8, r19
    5a28:	93 06       	cpc	r9, r19
    5a2a:	29 f4       	brne	.+10     	; 0x5a36 <vfprintf+0x2e8>
    5a2c:	b7 01       	movw	r22, r14
    5a2e:	8e e2       	ldi	r24, 0x2E	; 46
    5a30:	90 e0       	ldi	r25, 0x00	; 0
    5a32:	0e 94 ca 30 	call	0x6194	; 0x6194 <fputc>
    5a36:	c8 14       	cp	r12, r8
    5a38:	d9 04       	cpc	r13, r9
    5a3a:	4c f0       	brlt	.+18     	; 0x5a4e <vfprintf+0x300>
    5a3c:	8f 85       	ldd	r24, Y+15	; 0x0f
    5a3e:	98 89       	ldd	r25, Y+16	; 0x10
    5a40:	88 15       	cp	r24, r8
    5a42:	99 05       	cpc	r25, r9
    5a44:	24 f4       	brge	.+8      	; 0x5a4e <vfprintf+0x300>
    5a46:	ed 85       	ldd	r30, Y+13	; 0x0d
    5a48:	fe 85       	ldd	r31, Y+14	; 0x0e
    5a4a:	81 81       	ldd	r24, Z+1	; 0x01
    5a4c:	01 c0       	rjmp	.+2      	; 0x5a50 <vfprintf+0x302>
    5a4e:	80 e3       	ldi	r24, 0x30	; 48
    5a50:	f1 e0       	ldi	r31, 0x01	; 1
    5a52:	8f 1a       	sub	r8, r31
    5a54:	91 08       	sbc	r9, r1
    5a56:	2d 85       	ldd	r18, Y+13	; 0x0d
    5a58:	3e 85       	ldd	r19, Y+14	; 0x0e
    5a5a:	2f 5f       	subi	r18, 0xFF	; 255
    5a5c:	3f 4f       	sbci	r19, 0xFF	; 255
    5a5e:	3e 87       	std	Y+14, r19	; 0x0e
    5a60:	2d 87       	std	Y+13, r18	; 0x0d
    5a62:	80 16       	cp	r8, r16
    5a64:	91 06       	cpc	r9, r17
    5a66:	2c f0       	brlt	.+10     	; 0x5a72 <vfprintf+0x324>
    5a68:	b7 01       	movw	r22, r14
    5a6a:	90 e0       	ldi	r25, 0x00	; 0
    5a6c:	0e 94 ca 30 	call	0x6194	; 0x6194 <fputc>
    5a70:	d9 cf       	rjmp	.-78     	; 0x5a24 <vfprintf+0x2d6>
    5a72:	c8 14       	cp	r12, r8
    5a74:	d9 04       	cpc	r13, r9
    5a76:	41 f4       	brne	.+16     	; 0x5a88 <vfprintf+0x33a>
    5a78:	9a 81       	ldd	r25, Y+2	; 0x02
    5a7a:	96 33       	cpi	r25, 0x36	; 54
    5a7c:	20 f4       	brcc	.+8      	; 0x5a86 <vfprintf+0x338>
    5a7e:	95 33       	cpi	r25, 0x35	; 53
    5a80:	19 f4       	brne	.+6      	; 0x5a88 <vfprintf+0x33a>
    5a82:	3c 85       	ldd	r19, Y+12	; 0x0c
    5a84:	34 ff       	sbrs	r19, 4
    5a86:	81 e3       	ldi	r24, 0x31	; 49
    5a88:	b7 01       	movw	r22, r14
    5a8a:	90 e0       	ldi	r25, 0x00	; 0
    5a8c:	4e c0       	rjmp	.+156    	; 0x5b2a <vfprintf+0x3dc>
    5a8e:	8a 81       	ldd	r24, Y+2	; 0x02
    5a90:	81 33       	cpi	r24, 0x31	; 49
    5a92:	19 f0       	breq	.+6      	; 0x5a9a <vfprintf+0x34c>
    5a94:	9c 85       	ldd	r25, Y+12	; 0x0c
    5a96:	9f 7e       	andi	r25, 0xEF	; 239
    5a98:	9c 87       	std	Y+12, r25	; 0x0c
    5a9a:	b7 01       	movw	r22, r14
    5a9c:	90 e0       	ldi	r25, 0x00	; 0
    5a9e:	0e 94 ca 30 	call	0x6194	; 0x6194 <fputc>
    5aa2:	11 11       	cpse	r17, r1
    5aa4:	05 c0       	rjmp	.+10     	; 0x5ab0 <vfprintf+0x362>
    5aa6:	94 fc       	sbrc	r9, 4
    5aa8:	18 c0       	rjmp	.+48     	; 0x5ada <vfprintf+0x38c>
    5aaa:	85 e6       	ldi	r24, 0x65	; 101
    5aac:	90 e0       	ldi	r25, 0x00	; 0
    5aae:	17 c0       	rjmp	.+46     	; 0x5ade <vfprintf+0x390>
    5ab0:	b7 01       	movw	r22, r14
    5ab2:	8e e2       	ldi	r24, 0x2E	; 46
    5ab4:	90 e0       	ldi	r25, 0x00	; 0
    5ab6:	0e 94 ca 30 	call	0x6194	; 0x6194 <fputc>
    5aba:	1e 5f       	subi	r17, 0xFE	; 254
    5abc:	82 e0       	ldi	r24, 0x02	; 2
    5abe:	01 e0       	ldi	r16, 0x01	; 1
    5ac0:	08 0f       	add	r16, r24
    5ac2:	f3 01       	movw	r30, r6
    5ac4:	e8 0f       	add	r30, r24
    5ac6:	f1 1d       	adc	r31, r1
    5ac8:	80 81       	ld	r24, Z
    5aca:	b7 01       	movw	r22, r14
    5acc:	90 e0       	ldi	r25, 0x00	; 0
    5ace:	0e 94 ca 30 	call	0x6194	; 0x6194 <fputc>
    5ad2:	80 2f       	mov	r24, r16
    5ad4:	01 13       	cpse	r16, r17
    5ad6:	f3 cf       	rjmp	.-26     	; 0x5abe <vfprintf+0x370>
    5ad8:	e6 cf       	rjmp	.-52     	; 0x5aa6 <vfprintf+0x358>
    5ada:	85 e4       	ldi	r24, 0x45	; 69
    5adc:	90 e0       	ldi	r25, 0x00	; 0
    5ade:	b7 01       	movw	r22, r14
    5ae0:	0e 94 ca 30 	call	0x6194	; 0x6194 <fputc>
    5ae4:	d7 fc       	sbrc	r13, 7
    5ae6:	06 c0       	rjmp	.+12     	; 0x5af4 <vfprintf+0x3a6>
    5ae8:	c1 14       	cp	r12, r1
    5aea:	d1 04       	cpc	r13, r1
    5aec:	41 f4       	brne	.+16     	; 0x5afe <vfprintf+0x3b0>
    5aee:	ec 85       	ldd	r30, Y+12	; 0x0c
    5af0:	e4 ff       	sbrs	r30, 4
    5af2:	05 c0       	rjmp	.+10     	; 0x5afe <vfprintf+0x3b0>
    5af4:	d1 94       	neg	r13
    5af6:	c1 94       	neg	r12
    5af8:	d1 08       	sbc	r13, r1
    5afa:	8d e2       	ldi	r24, 0x2D	; 45
    5afc:	01 c0       	rjmp	.+2      	; 0x5b00 <vfprintf+0x3b2>
    5afe:	8b e2       	ldi	r24, 0x2B	; 43
    5b00:	b7 01       	movw	r22, r14
    5b02:	90 e0       	ldi	r25, 0x00	; 0
    5b04:	0e 94 ca 30 	call	0x6194	; 0x6194 <fputc>
    5b08:	80 e3       	ldi	r24, 0x30	; 48
    5b0a:	2a e0       	ldi	r18, 0x0A	; 10
    5b0c:	c2 16       	cp	r12, r18
    5b0e:	d1 04       	cpc	r13, r1
    5b10:	2c f0       	brlt	.+10     	; 0x5b1c <vfprintf+0x3ce>
    5b12:	8f 5f       	subi	r24, 0xFF	; 255
    5b14:	fa e0       	ldi	r31, 0x0A	; 10
    5b16:	cf 1a       	sub	r12, r31
    5b18:	d1 08       	sbc	r13, r1
    5b1a:	f7 cf       	rjmp	.-18     	; 0x5b0a <vfprintf+0x3bc>
    5b1c:	b7 01       	movw	r22, r14
    5b1e:	90 e0       	ldi	r25, 0x00	; 0
    5b20:	0e 94 ca 30 	call	0x6194	; 0x6194 <fputc>
    5b24:	b7 01       	movw	r22, r14
    5b26:	c6 01       	movw	r24, r12
    5b28:	c0 96       	adiw	r24, 0x30	; 48
    5b2a:	0e 94 ca 30 	call	0x6194	; 0x6194 <fputc>
    5b2e:	54 c1       	rjmp	.+680    	; 0x5dd8 <vfprintf+0x68a>
    5b30:	83 36       	cpi	r24, 0x63	; 99
    5b32:	31 f0       	breq	.+12     	; 0x5b40 <vfprintf+0x3f2>
    5b34:	83 37       	cpi	r24, 0x73	; 115
    5b36:	79 f0       	breq	.+30     	; 0x5b56 <vfprintf+0x408>
    5b38:	83 35       	cpi	r24, 0x53	; 83
    5b3a:	09 f0       	breq	.+2      	; 0x5b3e <vfprintf+0x3f0>
    5b3c:	56 c0       	rjmp	.+172    	; 0x5bea <vfprintf+0x49c>
    5b3e:	20 c0       	rjmp	.+64     	; 0x5b80 <vfprintf+0x432>
    5b40:	56 01       	movw	r10, r12
    5b42:	32 e0       	ldi	r19, 0x02	; 2
    5b44:	a3 0e       	add	r10, r19
    5b46:	b1 1c       	adc	r11, r1
    5b48:	f6 01       	movw	r30, r12
    5b4a:	80 81       	ld	r24, Z
    5b4c:	89 83       	std	Y+1, r24	; 0x01
    5b4e:	01 e0       	ldi	r16, 0x01	; 1
    5b50:	10 e0       	ldi	r17, 0x00	; 0
    5b52:	63 01       	movw	r12, r6
    5b54:	12 c0       	rjmp	.+36     	; 0x5b7a <vfprintf+0x42c>
    5b56:	56 01       	movw	r10, r12
    5b58:	f2 e0       	ldi	r31, 0x02	; 2
    5b5a:	af 0e       	add	r10, r31
    5b5c:	b1 1c       	adc	r11, r1
    5b5e:	f6 01       	movw	r30, r12
    5b60:	c0 80       	ld	r12, Z
    5b62:	d1 80       	ldd	r13, Z+1	; 0x01
    5b64:	96 fe       	sbrs	r9, 6
    5b66:	03 c0       	rjmp	.+6      	; 0x5b6e <vfprintf+0x420>
    5b68:	61 2f       	mov	r22, r17
    5b6a:	70 e0       	ldi	r23, 0x00	; 0
    5b6c:	02 c0       	rjmp	.+4      	; 0x5b72 <vfprintf+0x424>
    5b6e:	6f ef       	ldi	r22, 0xFF	; 255
    5b70:	7f ef       	ldi	r23, 0xFF	; 255
    5b72:	c6 01       	movw	r24, r12
    5b74:	0e 94 b7 30 	call	0x616e	; 0x616e <strnlen>
    5b78:	8c 01       	movw	r16, r24
    5b7a:	f9 2d       	mov	r31, r9
    5b7c:	ff 77       	andi	r31, 0x7F	; 127
    5b7e:	14 c0       	rjmp	.+40     	; 0x5ba8 <vfprintf+0x45a>
    5b80:	56 01       	movw	r10, r12
    5b82:	22 e0       	ldi	r18, 0x02	; 2
    5b84:	a2 0e       	add	r10, r18
    5b86:	b1 1c       	adc	r11, r1
    5b88:	f6 01       	movw	r30, r12
    5b8a:	c0 80       	ld	r12, Z
    5b8c:	d1 80       	ldd	r13, Z+1	; 0x01
    5b8e:	96 fe       	sbrs	r9, 6
    5b90:	03 c0       	rjmp	.+6      	; 0x5b98 <vfprintf+0x44a>
    5b92:	61 2f       	mov	r22, r17
    5b94:	70 e0       	ldi	r23, 0x00	; 0
    5b96:	02 c0       	rjmp	.+4      	; 0x5b9c <vfprintf+0x44e>
    5b98:	6f ef       	ldi	r22, 0xFF	; 255
    5b9a:	7f ef       	ldi	r23, 0xFF	; 255
    5b9c:	c6 01       	movw	r24, r12
    5b9e:	0e 94 a3 30 	call	0x6146	; 0x6146 <strnlen_P>
    5ba2:	8c 01       	movw	r16, r24
    5ba4:	f9 2d       	mov	r31, r9
    5ba6:	f0 68       	ori	r31, 0x80	; 128
    5ba8:	9f 2e       	mov	r9, r31
    5baa:	f3 fd       	sbrc	r31, 3
    5bac:	1a c0       	rjmp	.+52     	; 0x5be2 <vfprintf+0x494>
    5bae:	85 2d       	mov	r24, r5
    5bb0:	90 e0       	ldi	r25, 0x00	; 0
    5bb2:	08 17       	cp	r16, r24
    5bb4:	19 07       	cpc	r17, r25
    5bb6:	a8 f4       	brcc	.+42     	; 0x5be2 <vfprintf+0x494>
    5bb8:	b7 01       	movw	r22, r14
    5bba:	80 e2       	ldi	r24, 0x20	; 32
    5bbc:	90 e0       	ldi	r25, 0x00	; 0
    5bbe:	0e 94 ca 30 	call	0x6194	; 0x6194 <fputc>
    5bc2:	5a 94       	dec	r5
    5bc4:	f4 cf       	rjmp	.-24     	; 0x5bae <vfprintf+0x460>
    5bc6:	f6 01       	movw	r30, r12
    5bc8:	97 fc       	sbrc	r9, 7
    5bca:	85 91       	lpm	r24, Z+
    5bcc:	97 fe       	sbrs	r9, 7
    5bce:	81 91       	ld	r24, Z+
    5bd0:	6f 01       	movw	r12, r30
    5bd2:	b7 01       	movw	r22, r14
    5bd4:	90 e0       	ldi	r25, 0x00	; 0
    5bd6:	0e 94 ca 30 	call	0x6194	; 0x6194 <fputc>
    5bda:	51 10       	cpse	r5, r1
    5bdc:	5a 94       	dec	r5
    5bde:	01 50       	subi	r16, 0x01	; 1
    5be0:	11 09       	sbc	r17, r1
    5be2:	01 15       	cp	r16, r1
    5be4:	11 05       	cpc	r17, r1
    5be6:	79 f7       	brne	.-34     	; 0x5bc6 <vfprintf+0x478>
    5be8:	f7 c0       	rjmp	.+494    	; 0x5dd8 <vfprintf+0x68a>
    5bea:	84 36       	cpi	r24, 0x64	; 100
    5bec:	11 f0       	breq	.+4      	; 0x5bf2 <vfprintf+0x4a4>
    5bee:	89 36       	cpi	r24, 0x69	; 105
    5bf0:	61 f5       	brne	.+88     	; 0x5c4a <vfprintf+0x4fc>
    5bf2:	56 01       	movw	r10, r12
    5bf4:	97 fe       	sbrs	r9, 7
    5bf6:	09 c0       	rjmp	.+18     	; 0x5c0a <vfprintf+0x4bc>
    5bf8:	24 e0       	ldi	r18, 0x04	; 4
    5bfa:	a2 0e       	add	r10, r18
    5bfc:	b1 1c       	adc	r11, r1
    5bfe:	f6 01       	movw	r30, r12
    5c00:	60 81       	ld	r22, Z
    5c02:	71 81       	ldd	r23, Z+1	; 0x01
    5c04:	82 81       	ldd	r24, Z+2	; 0x02
    5c06:	93 81       	ldd	r25, Z+3	; 0x03
    5c08:	0a c0       	rjmp	.+20     	; 0x5c1e <vfprintf+0x4d0>
    5c0a:	f2 e0       	ldi	r31, 0x02	; 2
    5c0c:	af 0e       	add	r10, r31
    5c0e:	b1 1c       	adc	r11, r1
    5c10:	f6 01       	movw	r30, r12
    5c12:	60 81       	ld	r22, Z
    5c14:	71 81       	ldd	r23, Z+1	; 0x01
    5c16:	07 2e       	mov	r0, r23
    5c18:	00 0c       	add	r0, r0
    5c1a:	88 0b       	sbc	r24, r24
    5c1c:	99 0b       	sbc	r25, r25
    5c1e:	f9 2d       	mov	r31, r9
    5c20:	ff 76       	andi	r31, 0x6F	; 111
    5c22:	9f 2e       	mov	r9, r31
    5c24:	97 ff       	sbrs	r25, 7
    5c26:	09 c0       	rjmp	.+18     	; 0x5c3a <vfprintf+0x4ec>
    5c28:	90 95       	com	r25
    5c2a:	80 95       	com	r24
    5c2c:	70 95       	com	r23
    5c2e:	61 95       	neg	r22
    5c30:	7f 4f       	sbci	r23, 0xFF	; 255
    5c32:	8f 4f       	sbci	r24, 0xFF	; 255
    5c34:	9f 4f       	sbci	r25, 0xFF	; 255
    5c36:	f0 68       	ori	r31, 0x80	; 128
    5c38:	9f 2e       	mov	r9, r31
    5c3a:	2a e0       	ldi	r18, 0x0A	; 10
    5c3c:	30 e0       	ldi	r19, 0x00	; 0
    5c3e:	a3 01       	movw	r20, r6
    5c40:	0e 94 28 31 	call	0x6250	; 0x6250 <__ultoa_invert>
    5c44:	c8 2e       	mov	r12, r24
    5c46:	c6 18       	sub	r12, r6
    5c48:	3f c0       	rjmp	.+126    	; 0x5cc8 <vfprintf+0x57a>
    5c4a:	09 2d       	mov	r16, r9
    5c4c:	85 37       	cpi	r24, 0x75	; 117
    5c4e:	21 f4       	brne	.+8      	; 0x5c58 <vfprintf+0x50a>
    5c50:	0f 7e       	andi	r16, 0xEF	; 239
    5c52:	2a e0       	ldi	r18, 0x0A	; 10
    5c54:	30 e0       	ldi	r19, 0x00	; 0
    5c56:	1d c0       	rjmp	.+58     	; 0x5c92 <vfprintf+0x544>
    5c58:	09 7f       	andi	r16, 0xF9	; 249
    5c5a:	8f 36       	cpi	r24, 0x6F	; 111
    5c5c:	91 f0       	breq	.+36     	; 0x5c82 <vfprintf+0x534>
    5c5e:	18 f4       	brcc	.+6      	; 0x5c66 <vfprintf+0x518>
    5c60:	88 35       	cpi	r24, 0x58	; 88
    5c62:	59 f0       	breq	.+22     	; 0x5c7a <vfprintf+0x52c>
    5c64:	c3 c0       	rjmp	.+390    	; 0x5dec <vfprintf+0x69e>
    5c66:	80 37       	cpi	r24, 0x70	; 112
    5c68:	19 f0       	breq	.+6      	; 0x5c70 <vfprintf+0x522>
    5c6a:	88 37       	cpi	r24, 0x78	; 120
    5c6c:	11 f0       	breq	.+4      	; 0x5c72 <vfprintf+0x524>
    5c6e:	be c0       	rjmp	.+380    	; 0x5dec <vfprintf+0x69e>
    5c70:	00 61       	ori	r16, 0x10	; 16
    5c72:	04 ff       	sbrs	r16, 4
    5c74:	09 c0       	rjmp	.+18     	; 0x5c88 <vfprintf+0x53a>
    5c76:	04 60       	ori	r16, 0x04	; 4
    5c78:	07 c0       	rjmp	.+14     	; 0x5c88 <vfprintf+0x53a>
    5c7a:	94 fe       	sbrs	r9, 4
    5c7c:	08 c0       	rjmp	.+16     	; 0x5c8e <vfprintf+0x540>
    5c7e:	06 60       	ori	r16, 0x06	; 6
    5c80:	06 c0       	rjmp	.+12     	; 0x5c8e <vfprintf+0x540>
    5c82:	28 e0       	ldi	r18, 0x08	; 8
    5c84:	30 e0       	ldi	r19, 0x00	; 0
    5c86:	05 c0       	rjmp	.+10     	; 0x5c92 <vfprintf+0x544>
    5c88:	20 e1       	ldi	r18, 0x10	; 16
    5c8a:	30 e0       	ldi	r19, 0x00	; 0
    5c8c:	02 c0       	rjmp	.+4      	; 0x5c92 <vfprintf+0x544>
    5c8e:	20 e1       	ldi	r18, 0x10	; 16
    5c90:	32 e0       	ldi	r19, 0x02	; 2
    5c92:	56 01       	movw	r10, r12
    5c94:	07 ff       	sbrs	r16, 7
    5c96:	09 c0       	rjmp	.+18     	; 0x5caa <vfprintf+0x55c>
    5c98:	84 e0       	ldi	r24, 0x04	; 4
    5c9a:	a8 0e       	add	r10, r24
    5c9c:	b1 1c       	adc	r11, r1
    5c9e:	f6 01       	movw	r30, r12
    5ca0:	60 81       	ld	r22, Z
    5ca2:	71 81       	ldd	r23, Z+1	; 0x01
    5ca4:	82 81       	ldd	r24, Z+2	; 0x02
    5ca6:	93 81       	ldd	r25, Z+3	; 0x03
    5ca8:	08 c0       	rjmp	.+16     	; 0x5cba <vfprintf+0x56c>
    5caa:	f2 e0       	ldi	r31, 0x02	; 2
    5cac:	af 0e       	add	r10, r31
    5cae:	b1 1c       	adc	r11, r1
    5cb0:	f6 01       	movw	r30, r12
    5cb2:	60 81       	ld	r22, Z
    5cb4:	71 81       	ldd	r23, Z+1	; 0x01
    5cb6:	80 e0       	ldi	r24, 0x00	; 0
    5cb8:	90 e0       	ldi	r25, 0x00	; 0
    5cba:	a3 01       	movw	r20, r6
    5cbc:	0e 94 28 31 	call	0x6250	; 0x6250 <__ultoa_invert>
    5cc0:	c8 2e       	mov	r12, r24
    5cc2:	c6 18       	sub	r12, r6
    5cc4:	0f 77       	andi	r16, 0x7F	; 127
    5cc6:	90 2e       	mov	r9, r16
    5cc8:	96 fe       	sbrs	r9, 6
    5cca:	0b c0       	rjmp	.+22     	; 0x5ce2 <vfprintf+0x594>
    5ccc:	09 2d       	mov	r16, r9
    5cce:	0e 7f       	andi	r16, 0xFE	; 254
    5cd0:	c1 16       	cp	r12, r17
    5cd2:	50 f4       	brcc	.+20     	; 0x5ce8 <vfprintf+0x59a>
    5cd4:	94 fe       	sbrs	r9, 4
    5cd6:	0a c0       	rjmp	.+20     	; 0x5cec <vfprintf+0x59e>
    5cd8:	92 fc       	sbrc	r9, 2
    5cda:	08 c0       	rjmp	.+16     	; 0x5cec <vfprintf+0x59e>
    5cdc:	09 2d       	mov	r16, r9
    5cde:	0e 7e       	andi	r16, 0xEE	; 238
    5ce0:	05 c0       	rjmp	.+10     	; 0x5cec <vfprintf+0x59e>
    5ce2:	dc 2c       	mov	r13, r12
    5ce4:	09 2d       	mov	r16, r9
    5ce6:	03 c0       	rjmp	.+6      	; 0x5cee <vfprintf+0x5a0>
    5ce8:	dc 2c       	mov	r13, r12
    5cea:	01 c0       	rjmp	.+2      	; 0x5cee <vfprintf+0x5a0>
    5cec:	d1 2e       	mov	r13, r17
    5cee:	04 ff       	sbrs	r16, 4
    5cf0:	0d c0       	rjmp	.+26     	; 0x5d0c <vfprintf+0x5be>
    5cf2:	fe 01       	movw	r30, r28
    5cf4:	ec 0d       	add	r30, r12
    5cf6:	f1 1d       	adc	r31, r1
    5cf8:	80 81       	ld	r24, Z
    5cfa:	80 33       	cpi	r24, 0x30	; 48
    5cfc:	11 f4       	brne	.+4      	; 0x5d02 <vfprintf+0x5b4>
    5cfe:	09 7e       	andi	r16, 0xE9	; 233
    5d00:	09 c0       	rjmp	.+18     	; 0x5d14 <vfprintf+0x5c6>
    5d02:	02 ff       	sbrs	r16, 2
    5d04:	06 c0       	rjmp	.+12     	; 0x5d12 <vfprintf+0x5c4>
    5d06:	d3 94       	inc	r13
    5d08:	d3 94       	inc	r13
    5d0a:	04 c0       	rjmp	.+8      	; 0x5d14 <vfprintf+0x5c6>
    5d0c:	80 2f       	mov	r24, r16
    5d0e:	86 78       	andi	r24, 0x86	; 134
    5d10:	09 f0       	breq	.+2      	; 0x5d14 <vfprintf+0x5c6>
    5d12:	d3 94       	inc	r13
    5d14:	03 fd       	sbrc	r16, 3
    5d16:	11 c0       	rjmp	.+34     	; 0x5d3a <vfprintf+0x5ec>
    5d18:	00 ff       	sbrs	r16, 0
    5d1a:	06 c0       	rjmp	.+12     	; 0x5d28 <vfprintf+0x5da>
    5d1c:	1c 2d       	mov	r17, r12
    5d1e:	d5 14       	cp	r13, r5
    5d20:	80 f4       	brcc	.+32     	; 0x5d42 <vfprintf+0x5f4>
    5d22:	15 0d       	add	r17, r5
    5d24:	1d 19       	sub	r17, r13
    5d26:	0d c0       	rjmp	.+26     	; 0x5d42 <vfprintf+0x5f4>
    5d28:	d5 14       	cp	r13, r5
    5d2a:	58 f4       	brcc	.+22     	; 0x5d42 <vfprintf+0x5f4>
    5d2c:	b7 01       	movw	r22, r14
    5d2e:	80 e2       	ldi	r24, 0x20	; 32
    5d30:	90 e0       	ldi	r25, 0x00	; 0
    5d32:	0e 94 ca 30 	call	0x6194	; 0x6194 <fputc>
    5d36:	d3 94       	inc	r13
    5d38:	f7 cf       	rjmp	.-18     	; 0x5d28 <vfprintf+0x5da>
    5d3a:	d5 14       	cp	r13, r5
    5d3c:	10 f4       	brcc	.+4      	; 0x5d42 <vfprintf+0x5f4>
    5d3e:	5d 18       	sub	r5, r13
    5d40:	01 c0       	rjmp	.+2      	; 0x5d44 <vfprintf+0x5f6>
    5d42:	51 2c       	mov	r5, r1
    5d44:	04 ff       	sbrs	r16, 4
    5d46:	10 c0       	rjmp	.+32     	; 0x5d68 <vfprintf+0x61a>
    5d48:	b7 01       	movw	r22, r14
    5d4a:	80 e3       	ldi	r24, 0x30	; 48
    5d4c:	90 e0       	ldi	r25, 0x00	; 0
    5d4e:	0e 94 ca 30 	call	0x6194	; 0x6194 <fputc>
    5d52:	02 ff       	sbrs	r16, 2
    5d54:	17 c0       	rjmp	.+46     	; 0x5d84 <vfprintf+0x636>
    5d56:	01 fd       	sbrc	r16, 1
    5d58:	03 c0       	rjmp	.+6      	; 0x5d60 <vfprintf+0x612>
    5d5a:	88 e7       	ldi	r24, 0x78	; 120
    5d5c:	90 e0       	ldi	r25, 0x00	; 0
    5d5e:	02 c0       	rjmp	.+4      	; 0x5d64 <vfprintf+0x616>
    5d60:	88 e5       	ldi	r24, 0x58	; 88
    5d62:	90 e0       	ldi	r25, 0x00	; 0
    5d64:	b7 01       	movw	r22, r14
    5d66:	0c c0       	rjmp	.+24     	; 0x5d80 <vfprintf+0x632>
    5d68:	80 2f       	mov	r24, r16
    5d6a:	86 78       	andi	r24, 0x86	; 134
    5d6c:	59 f0       	breq	.+22     	; 0x5d84 <vfprintf+0x636>
    5d6e:	01 ff       	sbrs	r16, 1
    5d70:	02 c0       	rjmp	.+4      	; 0x5d76 <vfprintf+0x628>
    5d72:	8b e2       	ldi	r24, 0x2B	; 43
    5d74:	01 c0       	rjmp	.+2      	; 0x5d78 <vfprintf+0x62a>
    5d76:	80 e2       	ldi	r24, 0x20	; 32
    5d78:	07 fd       	sbrc	r16, 7
    5d7a:	8d e2       	ldi	r24, 0x2D	; 45
    5d7c:	b7 01       	movw	r22, r14
    5d7e:	90 e0       	ldi	r25, 0x00	; 0
    5d80:	0e 94 ca 30 	call	0x6194	; 0x6194 <fputc>
    5d84:	c1 16       	cp	r12, r17
    5d86:	38 f4       	brcc	.+14     	; 0x5d96 <vfprintf+0x648>
    5d88:	b7 01       	movw	r22, r14
    5d8a:	80 e3       	ldi	r24, 0x30	; 48
    5d8c:	90 e0       	ldi	r25, 0x00	; 0
    5d8e:	0e 94 ca 30 	call	0x6194	; 0x6194 <fputc>
    5d92:	11 50       	subi	r17, 0x01	; 1
    5d94:	f7 cf       	rjmp	.-18     	; 0x5d84 <vfprintf+0x636>
    5d96:	ca 94       	dec	r12
    5d98:	f3 01       	movw	r30, r6
    5d9a:	ec 0d       	add	r30, r12
    5d9c:	f1 1d       	adc	r31, r1
    5d9e:	80 81       	ld	r24, Z
    5da0:	b7 01       	movw	r22, r14
    5da2:	90 e0       	ldi	r25, 0x00	; 0
    5da4:	0e 94 ca 30 	call	0x6194	; 0x6194 <fputc>
    5da8:	c1 10       	cpse	r12, r1
    5daa:	f5 cf       	rjmp	.-22     	; 0x5d96 <vfprintf+0x648>
    5dac:	15 c0       	rjmp	.+42     	; 0x5dd8 <vfprintf+0x68a>
    5dae:	f4 e0       	ldi	r31, 0x04	; 4
    5db0:	f5 15       	cp	r31, r5
    5db2:	60 f5       	brcc	.+88     	; 0x5e0c <vfprintf+0x6be>
    5db4:	84 e0       	ldi	r24, 0x04	; 4
    5db6:	58 1a       	sub	r5, r24
    5db8:	93 fe       	sbrs	r9, 3
    5dba:	1f c0       	rjmp	.+62     	; 0x5dfa <vfprintf+0x6ac>
    5dbc:	01 11       	cpse	r16, r1
    5dbe:	27 c0       	rjmp	.+78     	; 0x5e0e <vfprintf+0x6c0>
    5dc0:	2c 85       	ldd	r18, Y+12	; 0x0c
    5dc2:	23 ff       	sbrs	r18, 3
    5dc4:	2a c0       	rjmp	.+84     	; 0x5e1a <vfprintf+0x6cc>
    5dc6:	0c ee       	ldi	r16, 0xEC	; 236
    5dc8:	12 e0       	ldi	r17, 0x02	; 2
    5dca:	39 2d       	mov	r19, r9
    5dcc:	30 71       	andi	r19, 0x10	; 16
    5dce:	93 2e       	mov	r9, r19
    5dd0:	f8 01       	movw	r30, r16
    5dd2:	84 91       	lpm	r24, Z
    5dd4:	81 11       	cpse	r24, r1
    5dd6:	24 c0       	rjmp	.+72     	; 0x5e20 <vfprintf+0x6d2>
    5dd8:	55 20       	and	r5, r5
    5dda:	09 f4       	brne	.+2      	; 0x5dde <vfprintf+0x690>
    5ddc:	e4 cc       	rjmp	.-1592   	; 0x57a6 <vfprintf+0x58>
    5dde:	b7 01       	movw	r22, r14
    5de0:	80 e2       	ldi	r24, 0x20	; 32
    5de2:	90 e0       	ldi	r25, 0x00	; 0
    5de4:	0e 94 ca 30 	call	0x6194	; 0x6194 <fputc>
    5de8:	5a 94       	dec	r5
    5dea:	f6 cf       	rjmp	.-20     	; 0x5dd8 <vfprintf+0x68a>
    5dec:	f7 01       	movw	r30, r14
    5dee:	86 81       	ldd	r24, Z+6	; 0x06
    5df0:	97 81       	ldd	r25, Z+7	; 0x07
    5df2:	26 c0       	rjmp	.+76     	; 0x5e40 <vfprintf+0x6f2>
    5df4:	8f ef       	ldi	r24, 0xFF	; 255
    5df6:	9f ef       	ldi	r25, 0xFF	; 255
    5df8:	23 c0       	rjmp	.+70     	; 0x5e40 <vfprintf+0x6f2>
    5dfa:	b7 01       	movw	r22, r14
    5dfc:	80 e2       	ldi	r24, 0x20	; 32
    5dfe:	90 e0       	ldi	r25, 0x00	; 0
    5e00:	0e 94 ca 30 	call	0x6194	; 0x6194 <fputc>
    5e04:	5a 94       	dec	r5
    5e06:	51 10       	cpse	r5, r1
    5e08:	f8 cf       	rjmp	.-16     	; 0x5dfa <vfprintf+0x6ac>
    5e0a:	d8 cf       	rjmp	.-80     	; 0x5dbc <vfprintf+0x66e>
    5e0c:	51 2c       	mov	r5, r1
    5e0e:	b7 01       	movw	r22, r14
    5e10:	80 2f       	mov	r24, r16
    5e12:	90 e0       	ldi	r25, 0x00	; 0
    5e14:	0e 94 ca 30 	call	0x6194	; 0x6194 <fputc>
    5e18:	d3 cf       	rjmp	.-90     	; 0x5dc0 <vfprintf+0x672>
    5e1a:	00 ef       	ldi	r16, 0xF0	; 240
    5e1c:	12 e0       	ldi	r17, 0x02	; 2
    5e1e:	d5 cf       	rjmp	.-86     	; 0x5dca <vfprintf+0x67c>
    5e20:	91 10       	cpse	r9, r1
    5e22:	80 52       	subi	r24, 0x20	; 32
    5e24:	b7 01       	movw	r22, r14
    5e26:	90 e0       	ldi	r25, 0x00	; 0
    5e28:	0e 94 ca 30 	call	0x6194	; 0x6194 <fputc>
    5e2c:	0f 5f       	subi	r16, 0xFF	; 255
    5e2e:	1f 4f       	sbci	r17, 0xFF	; 255
    5e30:	cf cf       	rjmp	.-98     	; 0x5dd0 <vfprintf+0x682>
    5e32:	23 e0       	ldi	r18, 0x03	; 3
    5e34:	25 15       	cp	r18, r5
    5e36:	10 f4       	brcc	.+4      	; 0x5e3c <vfprintf+0x6ee>
    5e38:	83 e0       	ldi	r24, 0x03	; 3
    5e3a:	bd cf       	rjmp	.-134    	; 0x5db6 <vfprintf+0x668>
    5e3c:	51 2c       	mov	r5, r1
    5e3e:	c0 cf       	rjmp	.-128    	; 0x5dc0 <vfprintf+0x672>
    5e40:	60 96       	adiw	r28, 0x10	; 16
    5e42:	e2 e1       	ldi	r30, 0x12	; 18
    5e44:	0c 94 83 2f 	jmp	0x5f06	; 0x5f06 <__epilogue_restores__>

00005e48 <__mulsi3>:
    5e48:	db 01       	movw	r26, r22
    5e4a:	8f 93       	push	r24
    5e4c:	9f 93       	push	r25
    5e4e:	0e 94 5c 2f 	call	0x5eb8	; 0x5eb8 <__muluhisi3>
    5e52:	bf 91       	pop	r27
    5e54:	af 91       	pop	r26
    5e56:	a2 9f       	mul	r26, r18
    5e58:	80 0d       	add	r24, r0
    5e5a:	91 1d       	adc	r25, r1
    5e5c:	a3 9f       	mul	r26, r19
    5e5e:	90 0d       	add	r25, r0
    5e60:	b2 9f       	mul	r27, r18
    5e62:	90 0d       	add	r25, r0
    5e64:	11 24       	eor	r1, r1
    5e66:	08 95       	ret

00005e68 <__udivmodsi4>:
    5e68:	a1 e2       	ldi	r26, 0x21	; 33
    5e6a:	1a 2e       	mov	r1, r26
    5e6c:	aa 1b       	sub	r26, r26
    5e6e:	bb 1b       	sub	r27, r27
    5e70:	fd 01       	movw	r30, r26
    5e72:	0d c0       	rjmp	.+26     	; 0x5e8e <__udivmodsi4_ep>

00005e74 <__udivmodsi4_loop>:
    5e74:	aa 1f       	adc	r26, r26
    5e76:	bb 1f       	adc	r27, r27
    5e78:	ee 1f       	adc	r30, r30
    5e7a:	ff 1f       	adc	r31, r31
    5e7c:	a2 17       	cp	r26, r18
    5e7e:	b3 07       	cpc	r27, r19
    5e80:	e4 07       	cpc	r30, r20
    5e82:	f5 07       	cpc	r31, r21
    5e84:	20 f0       	brcs	.+8      	; 0x5e8e <__udivmodsi4_ep>
    5e86:	a2 1b       	sub	r26, r18
    5e88:	b3 0b       	sbc	r27, r19
    5e8a:	e4 0b       	sbc	r30, r20
    5e8c:	f5 0b       	sbc	r31, r21

00005e8e <__udivmodsi4_ep>:
    5e8e:	66 1f       	adc	r22, r22
    5e90:	77 1f       	adc	r23, r23
    5e92:	88 1f       	adc	r24, r24
    5e94:	99 1f       	adc	r25, r25
    5e96:	1a 94       	dec	r1
    5e98:	69 f7       	brne	.-38     	; 0x5e74 <__udivmodsi4_loop>
    5e9a:	60 95       	com	r22
    5e9c:	70 95       	com	r23
    5e9e:	80 95       	com	r24
    5ea0:	90 95       	com	r25
    5ea2:	9b 01       	movw	r18, r22
    5ea4:	ac 01       	movw	r20, r24
    5ea6:	bd 01       	movw	r22, r26
    5ea8:	cf 01       	movw	r24, r30
    5eaa:	08 95       	ret

00005eac <__tablejump2__>:
    5eac:	ee 0f       	add	r30, r30
    5eae:	ff 1f       	adc	r31, r31
    5eb0:	05 90       	lpm	r0, Z+
    5eb2:	f4 91       	lpm	r31, Z
    5eb4:	e0 2d       	mov	r30, r0
    5eb6:	09 94       	ijmp

00005eb8 <__muluhisi3>:
    5eb8:	0e 94 9e 2f 	call	0x5f3c	; 0x5f3c <__umulhisi3>
    5ebc:	a5 9f       	mul	r26, r21
    5ebe:	90 0d       	add	r25, r0
    5ec0:	b4 9f       	mul	r27, r20
    5ec2:	90 0d       	add	r25, r0
    5ec4:	a4 9f       	mul	r26, r20
    5ec6:	80 0d       	add	r24, r0
    5ec8:	91 1d       	adc	r25, r1
    5eca:	11 24       	eor	r1, r1
    5ecc:	08 95       	ret

00005ece <__prologue_saves__>:
    5ece:	2f 92       	push	r2
    5ed0:	3f 92       	push	r3
    5ed2:	4f 92       	push	r4
    5ed4:	5f 92       	push	r5
    5ed6:	6f 92       	push	r6
    5ed8:	7f 92       	push	r7
    5eda:	8f 92       	push	r8
    5edc:	9f 92       	push	r9
    5ede:	af 92       	push	r10
    5ee0:	bf 92       	push	r11
    5ee2:	cf 92       	push	r12
    5ee4:	df 92       	push	r13
    5ee6:	ef 92       	push	r14
    5ee8:	ff 92       	push	r15
    5eea:	0f 93       	push	r16
    5eec:	1f 93       	push	r17
    5eee:	cf 93       	push	r28
    5ef0:	df 93       	push	r29
    5ef2:	cd b7       	in	r28, 0x3d	; 61
    5ef4:	de b7       	in	r29, 0x3e	; 62
    5ef6:	ca 1b       	sub	r28, r26
    5ef8:	db 0b       	sbc	r29, r27
    5efa:	0f b6       	in	r0, 0x3f	; 63
    5efc:	f8 94       	cli
    5efe:	de bf       	out	0x3e, r29	; 62
    5f00:	0f be       	out	0x3f, r0	; 63
    5f02:	cd bf       	out	0x3d, r28	; 61
    5f04:	09 94       	ijmp

00005f06 <__epilogue_restores__>:
    5f06:	2a 88       	ldd	r2, Y+18	; 0x12
    5f08:	39 88       	ldd	r3, Y+17	; 0x11
    5f0a:	48 88       	ldd	r4, Y+16	; 0x10
    5f0c:	5f 84       	ldd	r5, Y+15	; 0x0f
    5f0e:	6e 84       	ldd	r6, Y+14	; 0x0e
    5f10:	7d 84       	ldd	r7, Y+13	; 0x0d
    5f12:	8c 84       	ldd	r8, Y+12	; 0x0c
    5f14:	9b 84       	ldd	r9, Y+11	; 0x0b
    5f16:	aa 84       	ldd	r10, Y+10	; 0x0a
    5f18:	b9 84       	ldd	r11, Y+9	; 0x09
    5f1a:	c8 84       	ldd	r12, Y+8	; 0x08
    5f1c:	df 80       	ldd	r13, Y+7	; 0x07
    5f1e:	ee 80       	ldd	r14, Y+6	; 0x06
    5f20:	fd 80       	ldd	r15, Y+5	; 0x05
    5f22:	0c 81       	ldd	r16, Y+4	; 0x04
    5f24:	1b 81       	ldd	r17, Y+3	; 0x03
    5f26:	aa 81       	ldd	r26, Y+2	; 0x02
    5f28:	b9 81       	ldd	r27, Y+1	; 0x01
    5f2a:	ce 0f       	add	r28, r30
    5f2c:	d1 1d       	adc	r29, r1
    5f2e:	0f b6       	in	r0, 0x3f	; 63
    5f30:	f8 94       	cli
    5f32:	de bf       	out	0x3e, r29	; 62
    5f34:	0f be       	out	0x3f, r0	; 63
    5f36:	cd bf       	out	0x3d, r28	; 61
    5f38:	ed 01       	movw	r28, r26
    5f3a:	08 95       	ret

00005f3c <__umulhisi3>:
    5f3c:	a2 9f       	mul	r26, r18
    5f3e:	b0 01       	movw	r22, r0
    5f40:	b3 9f       	mul	r27, r19
    5f42:	c0 01       	movw	r24, r0
    5f44:	a3 9f       	mul	r26, r19
    5f46:	70 0d       	add	r23, r0
    5f48:	81 1d       	adc	r24, r1
    5f4a:	11 24       	eor	r1, r1
    5f4c:	91 1d       	adc	r25, r1
    5f4e:	b2 9f       	mul	r27, r18
    5f50:	70 0d       	add	r23, r0
    5f52:	81 1d       	adc	r24, r1
    5f54:	11 24       	eor	r1, r1
    5f56:	91 1d       	adc	r25, r1
    5f58:	08 95       	ret

00005f5a <atoi>:
    5f5a:	fc 01       	movw	r30, r24
    5f5c:	88 27       	eor	r24, r24
    5f5e:	99 27       	eor	r25, r25
    5f60:	e8 94       	clt
    5f62:	21 91       	ld	r18, Z+
    5f64:	20 32       	cpi	r18, 0x20	; 32
    5f66:	e9 f3       	breq	.-6      	; 0x5f62 <atoi+0x8>
    5f68:	29 30       	cpi	r18, 0x09	; 9
    5f6a:	10 f0       	brcs	.+4      	; 0x5f70 <atoi+0x16>
    5f6c:	2e 30       	cpi	r18, 0x0E	; 14
    5f6e:	c8 f3       	brcs	.-14     	; 0x5f62 <atoi+0x8>
    5f70:	2b 32       	cpi	r18, 0x2B	; 43
    5f72:	41 f0       	breq	.+16     	; 0x5f84 <atoi+0x2a>
    5f74:	2d 32       	cpi	r18, 0x2D	; 45
    5f76:	39 f4       	brne	.+14     	; 0x5f86 <atoi+0x2c>
    5f78:	68 94       	set
    5f7a:	04 c0       	rjmp	.+8      	; 0x5f84 <atoi+0x2a>
    5f7c:	0e 94 c2 30 	call	0x6184	; 0x6184 <__mulhi_const_10>
    5f80:	82 0f       	add	r24, r18
    5f82:	91 1d       	adc	r25, r1
    5f84:	21 91       	ld	r18, Z+
    5f86:	20 53       	subi	r18, 0x30	; 48
    5f88:	2a 30       	cpi	r18, 0x0A	; 10
    5f8a:	c0 f3       	brcs	.-16     	; 0x5f7c <atoi+0x22>
    5f8c:	1e f4       	brtc	.+6      	; 0x5f94 <atoi+0x3a>
    5f8e:	90 95       	com	r25
    5f90:	81 95       	neg	r24
    5f92:	9f 4f       	sbci	r25, 0xFF	; 255
    5f94:	08 95       	ret

00005f96 <__ftoa_engine>:
    5f96:	28 30       	cpi	r18, 0x08	; 8
    5f98:	08 f0       	brcs	.+2      	; 0x5f9c <__ftoa_engine+0x6>
    5f9a:	27 e0       	ldi	r18, 0x07	; 7
    5f9c:	33 27       	eor	r19, r19
    5f9e:	da 01       	movw	r26, r20
    5fa0:	99 0f       	add	r25, r25
    5fa2:	31 1d       	adc	r19, r1
    5fa4:	87 fd       	sbrc	r24, 7
    5fa6:	91 60       	ori	r25, 0x01	; 1
    5fa8:	00 96       	adiw	r24, 0x00	; 0
    5faa:	61 05       	cpc	r22, r1
    5fac:	71 05       	cpc	r23, r1
    5fae:	39 f4       	brne	.+14     	; 0x5fbe <__ftoa_engine+0x28>
    5fb0:	32 60       	ori	r19, 0x02	; 2
    5fb2:	2e 5f       	subi	r18, 0xFE	; 254
    5fb4:	3d 93       	st	X+, r19
    5fb6:	30 e3       	ldi	r19, 0x30	; 48
    5fb8:	2a 95       	dec	r18
    5fba:	e1 f7       	brne	.-8      	; 0x5fb4 <__ftoa_engine+0x1e>
    5fbc:	08 95       	ret
    5fbe:	9f 3f       	cpi	r25, 0xFF	; 255
    5fc0:	30 f0       	brcs	.+12     	; 0x5fce <__ftoa_engine+0x38>
    5fc2:	80 38       	cpi	r24, 0x80	; 128
    5fc4:	71 05       	cpc	r23, r1
    5fc6:	61 05       	cpc	r22, r1
    5fc8:	09 f0       	breq	.+2      	; 0x5fcc <__ftoa_engine+0x36>
    5fca:	3c 5f       	subi	r19, 0xFC	; 252
    5fcc:	3c 5f       	subi	r19, 0xFC	; 252
    5fce:	3d 93       	st	X+, r19
    5fd0:	91 30       	cpi	r25, 0x01	; 1
    5fd2:	08 f0       	brcs	.+2      	; 0x5fd6 <__ftoa_engine+0x40>
    5fd4:	80 68       	ori	r24, 0x80	; 128
    5fd6:	91 1d       	adc	r25, r1
    5fd8:	df 93       	push	r29
    5fda:	cf 93       	push	r28
    5fdc:	1f 93       	push	r17
    5fde:	0f 93       	push	r16
    5fe0:	ff 92       	push	r15
    5fe2:	ef 92       	push	r14
    5fe4:	19 2f       	mov	r17, r25
    5fe6:	98 7f       	andi	r25, 0xF8	; 248
    5fe8:	96 95       	lsr	r25
    5fea:	e9 2f       	mov	r30, r25
    5fec:	96 95       	lsr	r25
    5fee:	96 95       	lsr	r25
    5ff0:	e9 0f       	add	r30, r25
    5ff2:	ff 27       	eor	r31, r31
    5ff4:	e2 5b       	subi	r30, 0xB2	; 178
    5ff6:	fc 4f       	sbci	r31, 0xFC	; 252
    5ff8:	99 27       	eor	r25, r25
    5ffa:	33 27       	eor	r19, r19
    5ffc:	ee 24       	eor	r14, r14
    5ffe:	ff 24       	eor	r15, r15
    6000:	a7 01       	movw	r20, r14
    6002:	e7 01       	movw	r28, r14
    6004:	05 90       	lpm	r0, Z+
    6006:	08 94       	sec
    6008:	07 94       	ror	r0
    600a:	28 f4       	brcc	.+10     	; 0x6016 <__ftoa_engine+0x80>
    600c:	36 0f       	add	r19, r22
    600e:	e7 1e       	adc	r14, r23
    6010:	f8 1e       	adc	r15, r24
    6012:	49 1f       	adc	r20, r25
    6014:	51 1d       	adc	r21, r1
    6016:	66 0f       	add	r22, r22
    6018:	77 1f       	adc	r23, r23
    601a:	88 1f       	adc	r24, r24
    601c:	99 1f       	adc	r25, r25
    601e:	06 94       	lsr	r0
    6020:	a1 f7       	brne	.-24     	; 0x600a <__ftoa_engine+0x74>
    6022:	05 90       	lpm	r0, Z+
    6024:	07 94       	ror	r0
    6026:	28 f4       	brcc	.+10     	; 0x6032 <__ftoa_engine+0x9c>
    6028:	e7 0e       	add	r14, r23
    602a:	f8 1e       	adc	r15, r24
    602c:	49 1f       	adc	r20, r25
    602e:	56 1f       	adc	r21, r22
    6030:	c1 1d       	adc	r28, r1
    6032:	77 0f       	add	r23, r23
    6034:	88 1f       	adc	r24, r24
    6036:	99 1f       	adc	r25, r25
    6038:	66 1f       	adc	r22, r22
    603a:	06 94       	lsr	r0
    603c:	a1 f7       	brne	.-24     	; 0x6026 <__ftoa_engine+0x90>
    603e:	05 90       	lpm	r0, Z+
    6040:	07 94       	ror	r0
    6042:	28 f4       	brcc	.+10     	; 0x604e <__ftoa_engine+0xb8>
    6044:	f8 0e       	add	r15, r24
    6046:	49 1f       	adc	r20, r25
    6048:	56 1f       	adc	r21, r22
    604a:	c7 1f       	adc	r28, r23
    604c:	d1 1d       	adc	r29, r1
    604e:	88 0f       	add	r24, r24
    6050:	99 1f       	adc	r25, r25
    6052:	66 1f       	adc	r22, r22
    6054:	77 1f       	adc	r23, r23
    6056:	06 94       	lsr	r0
    6058:	a1 f7       	brne	.-24     	; 0x6042 <__ftoa_engine+0xac>
    605a:	05 90       	lpm	r0, Z+
    605c:	07 94       	ror	r0
    605e:	20 f4       	brcc	.+8      	; 0x6068 <__ftoa_engine+0xd2>
    6060:	49 0f       	add	r20, r25
    6062:	56 1f       	adc	r21, r22
    6064:	c7 1f       	adc	r28, r23
    6066:	d8 1f       	adc	r29, r24
    6068:	99 0f       	add	r25, r25
    606a:	66 1f       	adc	r22, r22
    606c:	77 1f       	adc	r23, r23
    606e:	88 1f       	adc	r24, r24
    6070:	06 94       	lsr	r0
    6072:	a9 f7       	brne	.-22     	; 0x605e <__ftoa_engine+0xc8>
    6074:	84 91       	lpm	r24, Z
    6076:	10 95       	com	r17
    6078:	17 70       	andi	r17, 0x07	; 7
    607a:	41 f0       	breq	.+16     	; 0x608c <__ftoa_engine+0xf6>
    607c:	d6 95       	lsr	r29
    607e:	c7 95       	ror	r28
    6080:	57 95       	ror	r21
    6082:	47 95       	ror	r20
    6084:	f7 94       	ror	r15
    6086:	e7 94       	ror	r14
    6088:	1a 95       	dec	r17
    608a:	c1 f7       	brne	.-16     	; 0x607c <__ftoa_engine+0xe6>
    608c:	e4 ef       	ldi	r30, 0xF4	; 244
    608e:	f2 e0       	ldi	r31, 0x02	; 2
    6090:	68 94       	set
    6092:	15 90       	lpm	r1, Z+
    6094:	15 91       	lpm	r17, Z+
    6096:	35 91       	lpm	r19, Z+
    6098:	65 91       	lpm	r22, Z+
    609a:	95 91       	lpm	r25, Z+
    609c:	05 90       	lpm	r0, Z+
    609e:	7f e2       	ldi	r23, 0x2F	; 47
    60a0:	73 95       	inc	r23
    60a2:	e1 18       	sub	r14, r1
    60a4:	f1 0a       	sbc	r15, r17
    60a6:	43 0b       	sbc	r20, r19
    60a8:	56 0b       	sbc	r21, r22
    60aa:	c9 0b       	sbc	r28, r25
    60ac:	d0 09       	sbc	r29, r0
    60ae:	c0 f7       	brcc	.-16     	; 0x60a0 <__ftoa_engine+0x10a>
    60b0:	e1 0c       	add	r14, r1
    60b2:	f1 1e       	adc	r15, r17
    60b4:	43 1f       	adc	r20, r19
    60b6:	56 1f       	adc	r21, r22
    60b8:	c9 1f       	adc	r28, r25
    60ba:	d0 1d       	adc	r29, r0
    60bc:	7e f4       	brtc	.+30     	; 0x60dc <__ftoa_engine+0x146>
    60be:	70 33       	cpi	r23, 0x30	; 48
    60c0:	11 f4       	brne	.+4      	; 0x60c6 <__ftoa_engine+0x130>
    60c2:	8a 95       	dec	r24
    60c4:	e6 cf       	rjmp	.-52     	; 0x6092 <__ftoa_engine+0xfc>
    60c6:	e8 94       	clt
    60c8:	01 50       	subi	r16, 0x01	; 1
    60ca:	30 f0       	brcs	.+12     	; 0x60d8 <__ftoa_engine+0x142>
    60cc:	08 0f       	add	r16, r24
    60ce:	0a f4       	brpl	.+2      	; 0x60d2 <__ftoa_engine+0x13c>
    60d0:	00 27       	eor	r16, r16
    60d2:	02 17       	cp	r16, r18
    60d4:	08 f4       	brcc	.+2      	; 0x60d8 <__ftoa_engine+0x142>
    60d6:	20 2f       	mov	r18, r16
    60d8:	23 95       	inc	r18
    60da:	02 2f       	mov	r16, r18
    60dc:	7a 33       	cpi	r23, 0x3A	; 58
    60de:	28 f0       	brcs	.+10     	; 0x60ea <__ftoa_engine+0x154>
    60e0:	79 e3       	ldi	r23, 0x39	; 57
    60e2:	7d 93       	st	X+, r23
    60e4:	2a 95       	dec	r18
    60e6:	e9 f7       	brne	.-6      	; 0x60e2 <__ftoa_engine+0x14c>
    60e8:	10 c0       	rjmp	.+32     	; 0x610a <__ftoa_engine+0x174>
    60ea:	7d 93       	st	X+, r23
    60ec:	2a 95       	dec	r18
    60ee:	89 f6       	brne	.-94     	; 0x6092 <__ftoa_engine+0xfc>
    60f0:	06 94       	lsr	r0
    60f2:	97 95       	ror	r25
    60f4:	67 95       	ror	r22
    60f6:	37 95       	ror	r19
    60f8:	17 95       	ror	r17
    60fa:	17 94       	ror	r1
    60fc:	e1 18       	sub	r14, r1
    60fe:	f1 0a       	sbc	r15, r17
    6100:	43 0b       	sbc	r20, r19
    6102:	56 0b       	sbc	r21, r22
    6104:	c9 0b       	sbc	r28, r25
    6106:	d0 09       	sbc	r29, r0
    6108:	98 f0       	brcs	.+38     	; 0x6130 <__ftoa_engine+0x19a>
    610a:	23 95       	inc	r18
    610c:	7e 91       	ld	r23, -X
    610e:	73 95       	inc	r23
    6110:	7a 33       	cpi	r23, 0x3A	; 58
    6112:	08 f0       	brcs	.+2      	; 0x6116 <__ftoa_engine+0x180>
    6114:	70 e3       	ldi	r23, 0x30	; 48
    6116:	7c 93       	st	X, r23
    6118:	20 13       	cpse	r18, r16
    611a:	b8 f7       	brcc	.-18     	; 0x610a <__ftoa_engine+0x174>
    611c:	7e 91       	ld	r23, -X
    611e:	70 61       	ori	r23, 0x10	; 16
    6120:	7d 93       	st	X+, r23
    6122:	30 f0       	brcs	.+12     	; 0x6130 <__ftoa_engine+0x19a>
    6124:	83 95       	inc	r24
    6126:	71 e3       	ldi	r23, 0x31	; 49
    6128:	7d 93       	st	X+, r23
    612a:	70 e3       	ldi	r23, 0x30	; 48
    612c:	2a 95       	dec	r18
    612e:	e1 f7       	brne	.-8      	; 0x6128 <__ftoa_engine+0x192>
    6130:	11 24       	eor	r1, r1
    6132:	ef 90       	pop	r14
    6134:	ff 90       	pop	r15
    6136:	0f 91       	pop	r16
    6138:	1f 91       	pop	r17
    613a:	cf 91       	pop	r28
    613c:	df 91       	pop	r29
    613e:	99 27       	eor	r25, r25
    6140:	87 fd       	sbrc	r24, 7
    6142:	90 95       	com	r25
    6144:	08 95       	ret

00006146 <strnlen_P>:
    6146:	fc 01       	movw	r30, r24
    6148:	05 90       	lpm	r0, Z+
    614a:	61 50       	subi	r22, 0x01	; 1
    614c:	70 40       	sbci	r23, 0x00	; 0
    614e:	01 10       	cpse	r0, r1
    6150:	d8 f7       	brcc	.-10     	; 0x6148 <strnlen_P+0x2>
    6152:	80 95       	com	r24
    6154:	90 95       	com	r25
    6156:	8e 0f       	add	r24, r30
    6158:	9f 1f       	adc	r25, r31
    615a:	08 95       	ret

0000615c <strcmp>:
    615c:	fb 01       	movw	r30, r22
    615e:	dc 01       	movw	r26, r24
    6160:	8d 91       	ld	r24, X+
    6162:	01 90       	ld	r0, Z+
    6164:	80 19       	sub	r24, r0
    6166:	01 10       	cpse	r0, r1
    6168:	d9 f3       	breq	.-10     	; 0x6160 <strcmp+0x4>
    616a:	99 0b       	sbc	r25, r25
    616c:	08 95       	ret

0000616e <strnlen>:
    616e:	fc 01       	movw	r30, r24
    6170:	61 50       	subi	r22, 0x01	; 1
    6172:	70 40       	sbci	r23, 0x00	; 0
    6174:	01 90       	ld	r0, Z+
    6176:	01 10       	cpse	r0, r1
    6178:	d8 f7       	brcc	.-10     	; 0x6170 <strnlen+0x2>
    617a:	80 95       	com	r24
    617c:	90 95       	com	r25
    617e:	8e 0f       	add	r24, r30
    6180:	9f 1f       	adc	r25, r31
    6182:	08 95       	ret

00006184 <__mulhi_const_10>:
    6184:	7a e0       	ldi	r23, 0x0A	; 10
    6186:	97 9f       	mul	r25, r23
    6188:	90 2d       	mov	r25, r0
    618a:	87 9f       	mul	r24, r23
    618c:	80 2d       	mov	r24, r0
    618e:	91 0d       	add	r25, r1
    6190:	11 24       	eor	r1, r1
    6192:	08 95       	ret

00006194 <fputc>:
    6194:	0f 93       	push	r16
    6196:	1f 93       	push	r17
    6198:	cf 93       	push	r28
    619a:	df 93       	push	r29
    619c:	fb 01       	movw	r30, r22
    619e:	23 81       	ldd	r18, Z+3	; 0x03
    61a0:	21 fd       	sbrc	r18, 1
    61a2:	03 c0       	rjmp	.+6      	; 0x61aa <fputc+0x16>
    61a4:	8f ef       	ldi	r24, 0xFF	; 255
    61a6:	9f ef       	ldi	r25, 0xFF	; 255
    61a8:	2c c0       	rjmp	.+88     	; 0x6202 <fputc+0x6e>
    61aa:	22 ff       	sbrs	r18, 2
    61ac:	16 c0       	rjmp	.+44     	; 0x61da <fputc+0x46>
    61ae:	46 81       	ldd	r20, Z+6	; 0x06
    61b0:	57 81       	ldd	r21, Z+7	; 0x07
    61b2:	24 81       	ldd	r18, Z+4	; 0x04
    61b4:	35 81       	ldd	r19, Z+5	; 0x05
    61b6:	42 17       	cp	r20, r18
    61b8:	53 07       	cpc	r21, r19
    61ba:	44 f4       	brge	.+16     	; 0x61cc <fputc+0x38>
    61bc:	a0 81       	ld	r26, Z
    61be:	b1 81       	ldd	r27, Z+1	; 0x01
    61c0:	9d 01       	movw	r18, r26
    61c2:	2f 5f       	subi	r18, 0xFF	; 255
    61c4:	3f 4f       	sbci	r19, 0xFF	; 255
    61c6:	31 83       	std	Z+1, r19	; 0x01
    61c8:	20 83       	st	Z, r18
    61ca:	8c 93       	st	X, r24
    61cc:	26 81       	ldd	r18, Z+6	; 0x06
    61ce:	37 81       	ldd	r19, Z+7	; 0x07
    61d0:	2f 5f       	subi	r18, 0xFF	; 255
    61d2:	3f 4f       	sbci	r19, 0xFF	; 255
    61d4:	37 83       	std	Z+7, r19	; 0x07
    61d6:	26 83       	std	Z+6, r18	; 0x06
    61d8:	14 c0       	rjmp	.+40     	; 0x6202 <fputc+0x6e>
    61da:	8b 01       	movw	r16, r22
    61dc:	ec 01       	movw	r28, r24
    61de:	fb 01       	movw	r30, r22
    61e0:	00 84       	ldd	r0, Z+8	; 0x08
    61e2:	f1 85       	ldd	r31, Z+9	; 0x09
    61e4:	e0 2d       	mov	r30, r0
    61e6:	09 95       	icall
    61e8:	89 2b       	or	r24, r25
    61ea:	e1 f6       	brne	.-72     	; 0x61a4 <fputc+0x10>
    61ec:	d8 01       	movw	r26, r16
    61ee:	16 96       	adiw	r26, 0x06	; 6
    61f0:	8d 91       	ld	r24, X+
    61f2:	9c 91       	ld	r25, X
    61f4:	17 97       	sbiw	r26, 0x07	; 7
    61f6:	01 96       	adiw	r24, 0x01	; 1
    61f8:	17 96       	adiw	r26, 0x07	; 7
    61fa:	9c 93       	st	X, r25
    61fc:	8e 93       	st	-X, r24
    61fe:	16 97       	sbiw	r26, 0x06	; 6
    6200:	ce 01       	movw	r24, r28
    6202:	df 91       	pop	r29
    6204:	cf 91       	pop	r28
    6206:	1f 91       	pop	r17
    6208:	0f 91       	pop	r16
    620a:	08 95       	ret

0000620c <sprintf>:
    620c:	ae e0       	ldi	r26, 0x0E	; 14
    620e:	b0 e0       	ldi	r27, 0x00	; 0
    6210:	ec e0       	ldi	r30, 0x0C	; 12
    6212:	f1 e3       	ldi	r31, 0x31	; 49
    6214:	0c 94 75 2f 	jmp	0x5eea	; 0x5eea <__prologue_saves__+0x1c>
    6218:	0d 89       	ldd	r16, Y+21	; 0x15
    621a:	1e 89       	ldd	r17, Y+22	; 0x16
    621c:	86 e0       	ldi	r24, 0x06	; 6
    621e:	8c 83       	std	Y+4, r24	; 0x04
    6220:	1a 83       	std	Y+2, r17	; 0x02
    6222:	09 83       	std	Y+1, r16	; 0x01
    6224:	8f ef       	ldi	r24, 0xFF	; 255
    6226:	9f e7       	ldi	r25, 0x7F	; 127
    6228:	9e 83       	std	Y+6, r25	; 0x06
    622a:	8d 83       	std	Y+5, r24	; 0x05
    622c:	ae 01       	movw	r20, r28
    622e:	47 5e       	subi	r20, 0xE7	; 231
    6230:	5f 4f       	sbci	r21, 0xFF	; 255
    6232:	6f 89       	ldd	r22, Y+23	; 0x17
    6234:	78 8d       	ldd	r23, Y+24	; 0x18
    6236:	ce 01       	movw	r24, r28
    6238:	01 96       	adiw	r24, 0x01	; 1
    623a:	0e 94 a7 2b 	call	0x574e	; 0x574e <vfprintf>
    623e:	ef 81       	ldd	r30, Y+7	; 0x07
    6240:	f8 85       	ldd	r31, Y+8	; 0x08
    6242:	e0 0f       	add	r30, r16
    6244:	f1 1f       	adc	r31, r17
    6246:	10 82       	st	Z, r1
    6248:	2e 96       	adiw	r28, 0x0e	; 14
    624a:	e4 e0       	ldi	r30, 0x04	; 4
    624c:	0c 94 91 2f 	jmp	0x5f22	; 0x5f22 <__epilogue_restores__+0x1c>

00006250 <__ultoa_invert>:
    6250:	fa 01       	movw	r30, r20
    6252:	aa 27       	eor	r26, r26
    6254:	28 30       	cpi	r18, 0x08	; 8
    6256:	51 f1       	breq	.+84     	; 0x62ac <__ultoa_invert+0x5c>
    6258:	20 31       	cpi	r18, 0x10	; 16
    625a:	81 f1       	breq	.+96     	; 0x62bc <__ultoa_invert+0x6c>
    625c:	e8 94       	clt
    625e:	6f 93       	push	r22
    6260:	6e 7f       	andi	r22, 0xFE	; 254
    6262:	6e 5f       	subi	r22, 0xFE	; 254
    6264:	7f 4f       	sbci	r23, 0xFF	; 255
    6266:	8f 4f       	sbci	r24, 0xFF	; 255
    6268:	9f 4f       	sbci	r25, 0xFF	; 255
    626a:	af 4f       	sbci	r26, 0xFF	; 255
    626c:	b1 e0       	ldi	r27, 0x01	; 1
    626e:	3e d0       	rcall	.+124    	; 0x62ec <__ultoa_invert+0x9c>
    6270:	b4 e0       	ldi	r27, 0x04	; 4
    6272:	3c d0       	rcall	.+120    	; 0x62ec <__ultoa_invert+0x9c>
    6274:	67 0f       	add	r22, r23
    6276:	78 1f       	adc	r23, r24
    6278:	89 1f       	adc	r24, r25
    627a:	9a 1f       	adc	r25, r26
    627c:	a1 1d       	adc	r26, r1
    627e:	68 0f       	add	r22, r24
    6280:	79 1f       	adc	r23, r25
    6282:	8a 1f       	adc	r24, r26
    6284:	91 1d       	adc	r25, r1
    6286:	a1 1d       	adc	r26, r1
    6288:	6a 0f       	add	r22, r26
    628a:	71 1d       	adc	r23, r1
    628c:	81 1d       	adc	r24, r1
    628e:	91 1d       	adc	r25, r1
    6290:	a1 1d       	adc	r26, r1
    6292:	20 d0       	rcall	.+64     	; 0x62d4 <__ultoa_invert+0x84>
    6294:	09 f4       	brne	.+2      	; 0x6298 <__ultoa_invert+0x48>
    6296:	68 94       	set
    6298:	3f 91       	pop	r19
    629a:	2a e0       	ldi	r18, 0x0A	; 10
    629c:	26 9f       	mul	r18, r22
    629e:	11 24       	eor	r1, r1
    62a0:	30 19       	sub	r19, r0
    62a2:	30 5d       	subi	r19, 0xD0	; 208
    62a4:	31 93       	st	Z+, r19
    62a6:	de f6       	brtc	.-74     	; 0x625e <__ultoa_invert+0xe>
    62a8:	cf 01       	movw	r24, r30
    62aa:	08 95       	ret
    62ac:	46 2f       	mov	r20, r22
    62ae:	47 70       	andi	r20, 0x07	; 7
    62b0:	40 5d       	subi	r20, 0xD0	; 208
    62b2:	41 93       	st	Z+, r20
    62b4:	b3 e0       	ldi	r27, 0x03	; 3
    62b6:	0f d0       	rcall	.+30     	; 0x62d6 <__ultoa_invert+0x86>
    62b8:	c9 f7       	brne	.-14     	; 0x62ac <__ultoa_invert+0x5c>
    62ba:	f6 cf       	rjmp	.-20     	; 0x62a8 <__ultoa_invert+0x58>
    62bc:	46 2f       	mov	r20, r22
    62be:	4f 70       	andi	r20, 0x0F	; 15
    62c0:	40 5d       	subi	r20, 0xD0	; 208
    62c2:	4a 33       	cpi	r20, 0x3A	; 58
    62c4:	18 f0       	brcs	.+6      	; 0x62cc <__ultoa_invert+0x7c>
    62c6:	49 5d       	subi	r20, 0xD9	; 217
    62c8:	31 fd       	sbrc	r19, 1
    62ca:	40 52       	subi	r20, 0x20	; 32
    62cc:	41 93       	st	Z+, r20
    62ce:	02 d0       	rcall	.+4      	; 0x62d4 <__ultoa_invert+0x84>
    62d0:	a9 f7       	brne	.-22     	; 0x62bc <__ultoa_invert+0x6c>
    62d2:	ea cf       	rjmp	.-44     	; 0x62a8 <__ultoa_invert+0x58>
    62d4:	b4 e0       	ldi	r27, 0x04	; 4
    62d6:	a6 95       	lsr	r26
    62d8:	97 95       	ror	r25
    62da:	87 95       	ror	r24
    62dc:	77 95       	ror	r23
    62de:	67 95       	ror	r22
    62e0:	ba 95       	dec	r27
    62e2:	c9 f7       	brne	.-14     	; 0x62d6 <__ultoa_invert+0x86>
    62e4:	00 97       	sbiw	r24, 0x00	; 0
    62e6:	61 05       	cpc	r22, r1
    62e8:	71 05       	cpc	r23, r1
    62ea:	08 95       	ret
    62ec:	9b 01       	movw	r18, r22
    62ee:	ac 01       	movw	r20, r24
    62f0:	0a 2e       	mov	r0, r26
    62f2:	06 94       	lsr	r0
    62f4:	57 95       	ror	r21
    62f6:	47 95       	ror	r20
    62f8:	37 95       	ror	r19
    62fa:	27 95       	ror	r18
    62fc:	ba 95       	dec	r27
    62fe:	c9 f7       	brne	.-14     	; 0x62f2 <__ultoa_invert+0xa2>
    6300:	62 0f       	add	r22, r18
    6302:	73 1f       	adc	r23, r19
    6304:	84 1f       	adc	r24, r20
    6306:	95 1f       	adc	r25, r21
    6308:	a0 1d       	adc	r26, r0
    630a:	08 95       	ret

0000630c <_exit>:
    630c:	f8 94       	cli

0000630e <__stop_program>:
    630e:	ff cf       	rjmp	.-2      	; 0x630e <__stop_program>
