
IOUFirmware.elf:     file format elf32-avr

Sections:
Idx Name          Size      VMA       LMA       File off  Algn
  0 .data         00000926  00800100  00005678  0000570c  2**0
                  CONTENTS, ALLOC, LOAD, DATA
  1 .text         00005678  00000000  00000000  00000094  2**1
                  CONTENTS, ALLOC, LOAD, READONLY, CODE
  2 .bss          00000339  00800a26  00800a26  00006032  2**0
                  ALLOC
  3 .comment      0000005c  00000000  00000000  00006032  2**0
                  CONTENTS, READONLY
  4 .note.gnu.avr.deviceinfo 0000003c  00000000  00000000  00006090  2**2
                  CONTENTS, READONLY
  5 .debug_aranges 00000978  00000000  00000000  000060cc  2**0
                  CONTENTS, READONLY, DEBUGGING
  6 .debug_info   000096bd  00000000  00000000  00006a44  2**0
                  CONTENTS, READONLY, DEBUGGING
  7 .debug_abbrev 00002a9d  00000000  00000000  00010101  2**0
                  CONTENTS, READONLY, DEBUGGING
  8 .debug_line   00008bf8  00000000  00000000  00012b9e  2**0
                  CONTENTS, READONLY, DEBUGGING
  9 .debug_frame  000019d0  00000000  00000000  0001b798  2**2
                  CONTENTS, READONLY, DEBUGGING
 10 .debug_str    0000dfde  00000000  00000000  0001d168  2**0
                  CONTENTS, READONLY, DEBUGGING
 11 .debug_loc    00006d40  00000000  00000000  0002b146  2**0
                  CONTENTS, READONLY, DEBUGGING
 12 .debug_ranges 00000820  00000000  00000000  00031e86  2**0
                  CONTENTS, READONLY, DEBUGGING
 13 .debug_macro  00005eac  00000000  00000000  000326a6  2**0
                  CONTENTS, READONLY, DEBUGGING

Disassembly of section .text:

00000000 <__vectors>:
       0:	0c 94 85 09 	jmp	0x130a	; 0x130a <__ctors_end>
       4:	0c 94 a2 09 	jmp	0x1344	; 0x1344 <__bad_interrupt>
       8:	0c 94 a2 09 	jmp	0x1344	; 0x1344 <__bad_interrupt>
       c:	0c 94 a2 09 	jmp	0x1344	; 0x1344 <__bad_interrupt>
      10:	0c 94 a2 09 	jmp	0x1344	; 0x1344 <__bad_interrupt>
      14:	0c 94 a2 09 	jmp	0x1344	; 0x1344 <__bad_interrupt>
      18:	0c 94 a2 09 	jmp	0x1344	; 0x1344 <__bad_interrupt>
      1c:	0c 94 a2 09 	jmp	0x1344	; 0x1344 <__bad_interrupt>
      20:	0c 94 a2 09 	jmp	0x1344	; 0x1344 <__bad_interrupt>
      24:	0c 94 a2 09 	jmp	0x1344	; 0x1344 <__bad_interrupt>
      28:	0c 94 a2 09 	jmp	0x1344	; 0x1344 <__bad_interrupt>
      2c:	0c 94 a2 09 	jmp	0x1344	; 0x1344 <__bad_interrupt>
      30:	0c 94 a2 09 	jmp	0x1344	; 0x1344 <__bad_interrupt>
      34:	0c 94 a2 09 	jmp	0x1344	; 0x1344 <__bad_interrupt>
      38:	0c 94 a2 09 	jmp	0x1344	; 0x1344 <__bad_interrupt>
      3c:	0c 94 0f 22 	jmp	0x441e	; 0x441e <__vector_15>
      40:	0c 94 a2 09 	jmp	0x1344	; 0x1344 <__bad_interrupt>
      44:	0c 94 a2 09 	jmp	0x1344	; 0x1344 <__bad_interrupt>
      48:	0c 94 74 1a 	jmp	0x34e8	; 0x34e8 <__vector_18>
      4c:	0c 94 b8 1a 	jmp	0x3570	; 0x3570 <__vector_19>
      50:	0c 94 a2 09 	jmp	0x1344	; 0x1344 <__bad_interrupt>
      54:	0c 94 a2 09 	jmp	0x1344	; 0x1344 <__bad_interrupt>
      58:	0c 94 a2 09 	jmp	0x1344	; 0x1344 <__bad_interrupt>
      5c:	0c 94 a2 09 	jmp	0x1344	; 0x1344 <__bad_interrupt>
      60:	0c 94 a2 09 	jmp	0x1344	; 0x1344 <__bad_interrupt>
      64:	0c 94 a2 09 	jmp	0x1344	; 0x1344 <__bad_interrupt>
      68:	0c 94 a2 09 	jmp	0x1344	; 0x1344 <__bad_interrupt>
      6c:	0c 94 a2 09 	jmp	0x1344	; 0x1344 <__bad_interrupt>
      70:	0c 94 a2 09 	jmp	0x1344	; 0x1344 <__bad_interrupt>
      74:	0c 94 a2 09 	jmp	0x1344	; 0x1344 <__bad_interrupt>
      78:	0c 94 eb 1a 	jmp	0x35d6	; 0x35d6 <__vector_30>
      7c:	0c 94 32 1b 	jmp	0x3664	; 0x3664 <__vector_31>
      80:	0c 94 a2 09 	jmp	0x1344	; 0x1344 <__bad_interrupt>
      84:	0c 94 56 18 	jmp	0x30ac	; 0x30ac <__vector_33>
      88:	0c 94 a2 09 	jmp	0x1344	; 0x1344 <__bad_interrupt>
      8c:	ef 12       	cpse	r14, r31
      8e:	f2 12       	cpse	r15, r18
      90:	f5 12       	cpse	r15, r21
      92:	f8 12       	cpse	r15, r24
      94:	fb 12       	cpse	r15, r27
      96:	fe 12       	cpse	r15, r30
      98:	01 13       	cpse	r16, r17
      9a:	04 13       	cpse	r16, r20
      9c:	07 13       	cpse	r16, r23
      9e:	1e 13       	cpse	r17, r30
      a0:	1e 13       	cpse	r17, r30
      a2:	1e 13       	cpse	r17, r30
      a4:	0a 13       	cpse	r16, r26
      a6:	0d 13       	cpse	r16, r29
      a8:	10 13       	cpse	r17, r16
      aa:	13 13       	cpse	r17, r19
      ac:	16 13       	cpse	r17, r22
      ae:	19 13       	cpse	r17, r25
      b0:	1c 13       	cpse	r17, r28
      b2:	62 19       	sub	r22, r2
      b4:	66 19       	sub	r22, r6
      b6:	66 19       	sub	r22, r6
      b8:	66 19       	sub	r22, r6
      ba:	66 19       	sub	r22, r6
      bc:	66 19       	sub	r22, r6
      be:	66 19       	sub	r22, r6
      c0:	66 19       	sub	r22, r6
      c2:	76 18       	sub	r7, r6
      c4:	66 19       	sub	r22, r6
      c6:	66 19       	sub	r22, r6
      c8:	66 19       	sub	r22, r6
      ca:	66 19       	sub	r22, r6
      cc:	66 19       	sub	r22, r6
      ce:	66 19       	sub	r22, r6
      d0:	66 19       	sub	r22, r6
      d2:	76 18       	sub	r7, r6
      d4:	66 19       	sub	r22, r6
      d6:	66 19       	sub	r22, r6
      d8:	66 19       	sub	r22, r6
      da:	66 19       	sub	r22, r6
      dc:	66 19       	sub	r22, r6
      de:	66 19       	sub	r22, r6
      e0:	66 19       	sub	r22, r6
      e2:	7e 18       	sub	r7, r14
      e4:	66 19       	sub	r22, r6
      e6:	66 19       	sub	r22, r6
      e8:	66 19       	sub	r22, r6
      ea:	66 19       	sub	r22, r6
      ec:	66 19       	sub	r22, r6
      ee:	66 19       	sub	r22, r6
      f0:	66 19       	sub	r22, r6
      f2:	a4 18       	sub	r10, r4
      f4:	66 19       	sub	r22, r6
      f6:	66 19       	sub	r22, r6
      f8:	66 19       	sub	r22, r6
      fa:	66 19       	sub	r22, r6
      fc:	66 19       	sub	r22, r6
      fe:	66 19       	sub	r22, r6
     100:	66 19       	sub	r22, r6
     102:	7e 18       	sub	r7, r14
     104:	66 19       	sub	r22, r6
     106:	66 19       	sub	r22, r6
     108:	66 19       	sub	r22, r6
     10a:	66 19       	sub	r22, r6
     10c:	66 19       	sub	r22, r6
     10e:	66 19       	sub	r22, r6
     110:	66 19       	sub	r22, r6
     112:	aa 18       	sub	r10, r10
     114:	66 19       	sub	r22, r6
     116:	66 19       	sub	r22, r6
     118:	66 19       	sub	r22, r6
     11a:	66 19       	sub	r22, r6
     11c:	66 19       	sub	r22, r6
     11e:	66 19       	sub	r22, r6
     120:	66 19       	sub	r22, r6
     122:	b0 18       	sub	r11, r0
     124:	66 19       	sub	r22, r6
     126:	66 19       	sub	r22, r6
     128:	66 19       	sub	r22, r6
     12a:	66 19       	sub	r22, r6
     12c:	66 19       	sub	r22, r6
     12e:	66 19       	sub	r22, r6
     130:	66 19       	sub	r22, r6
     132:	c2 18       	sub	r12, r2
     134:	66 19       	sub	r22, r6
     136:	66 19       	sub	r22, r6
     138:	66 19       	sub	r22, r6
     13a:	66 19       	sub	r22, r6
     13c:	66 19       	sub	r22, r6
     13e:	66 19       	sub	r22, r6
     140:	66 19       	sub	r22, r6
     142:	ec 18       	sub	r14, r12
     144:	66 19       	sub	r22, r6
     146:	66 19       	sub	r22, r6
     148:	66 19       	sub	r22, r6
     14a:	66 19       	sub	r22, r6
     14c:	66 19       	sub	r22, r6
     14e:	66 19       	sub	r22, r6
     150:	66 19       	sub	r22, r6
     152:	b6 18       	sub	r11, r6
     154:	66 19       	sub	r22, r6
     156:	66 19       	sub	r22, r6
     158:	66 19       	sub	r22, r6
     15a:	66 19       	sub	r22, r6
     15c:	66 19       	sub	r22, r6
     15e:	66 19       	sub	r22, r6
     160:	66 19       	sub	r22, r6
     162:	d0 18       	sub	r13, r0
     164:	66 19       	sub	r22, r6
     166:	66 19       	sub	r22, r6
     168:	66 19       	sub	r22, r6
     16a:	66 19       	sub	r22, r6
     16c:	66 19       	sub	r22, r6
     16e:	66 19       	sub	r22, r6
     170:	66 19       	sub	r22, r6
     172:	ef 18       	sub	r14, r15
     174:	66 19       	sub	r22, r6
     176:	66 19       	sub	r22, r6
     178:	66 19       	sub	r22, r6
     17a:	66 19       	sub	r22, r6
     17c:	66 19       	sub	r22, r6
     17e:	66 19       	sub	r22, r6
     180:	66 19       	sub	r22, r6
     182:	ef 18       	sub	r14, r15
     184:	66 19       	sub	r22, r6
     186:	66 19       	sub	r22, r6
     188:	66 19       	sub	r22, r6
     18a:	66 19       	sub	r22, r6
     18c:	66 19       	sub	r22, r6
     18e:	66 19       	sub	r22, r6
     190:	66 19       	sub	r22, r6
     192:	ef 18       	sub	r14, r15
     194:	66 19       	sub	r22, r6
     196:	66 19       	sub	r22, r6
     198:	66 19       	sub	r22, r6
     19a:	66 19       	sub	r22, r6
     19c:	66 19       	sub	r22, r6
     19e:	66 19       	sub	r22, r6
     1a0:	66 19       	sub	r22, r6
     1a2:	ef 18       	sub	r14, r15
     1a4:	66 19       	sub	r22, r6
     1a6:	66 19       	sub	r22, r6
     1a8:	66 19       	sub	r22, r6
     1aa:	66 19       	sub	r22, r6
     1ac:	66 19       	sub	r22, r6
     1ae:	66 19       	sub	r22, r6
     1b0:	66 19       	sub	r22, r6
     1b2:	f8 18       	sub	r15, r8
     1b4:	66 19       	sub	r22, r6
     1b6:	66 19       	sub	r22, r6
     1b8:	66 19       	sub	r22, r6
     1ba:	66 19       	sub	r22, r6
     1bc:	66 19       	sub	r22, r6
     1be:	66 19       	sub	r22, r6
     1c0:	66 19       	sub	r22, r6
     1c2:	29 19       	sub	r18, r9
     1c4:	66 19       	sub	r22, r6
     1c6:	66 19       	sub	r22, r6
     1c8:	66 19       	sub	r22, r6
     1ca:	66 19       	sub	r22, r6
     1cc:	66 19       	sub	r22, r6
     1ce:	66 19       	sub	r22, r6
     1d0:	66 19       	sub	r22, r6
     1d2:	f8 18       	sub	r15, r8
     1d4:	66 19       	sub	r22, r6
     1d6:	66 19       	sub	r22, r6
     1d8:	66 19       	sub	r22, r6
     1da:	66 19       	sub	r22, r6
     1dc:	66 19       	sub	r22, r6
     1de:	66 19       	sub	r22, r6
     1e0:	66 19       	sub	r22, r6
     1e2:	29 19       	sub	r18, r9
     1e4:	66 19       	sub	r22, r6
     1e6:	66 19       	sub	r22, r6
     1e8:	66 19       	sub	r22, r6
     1ea:	66 19       	sub	r22, r6
     1ec:	66 19       	sub	r22, r6
     1ee:	66 19       	sub	r22, r6
     1f0:	66 19       	sub	r22, r6
     1f2:	10 19       	sub	r17, r0
     1f4:	66 19       	sub	r22, r6
     1f6:	66 19       	sub	r22, r6
     1f8:	66 19       	sub	r22, r6
     1fa:	66 19       	sub	r22, r6
     1fc:	66 19       	sub	r22, r6
     1fe:	66 19       	sub	r22, r6
     200:	66 19       	sub	r22, r6
     202:	2d 19       	sub	r18, r13
     204:	66 19       	sub	r22, r6
     206:	66 19       	sub	r22, r6
     208:	66 19       	sub	r22, r6
     20a:	66 19       	sub	r22, r6
     20c:	66 19       	sub	r22, r6
     20e:	66 19       	sub	r22, r6
     210:	66 19       	sub	r22, r6
     212:	2d 19       	sub	r18, r13
     214:	66 19       	sub	r22, r6
     216:	66 19       	sub	r22, r6
     218:	66 19       	sub	r22, r6
     21a:	66 19       	sub	r22, r6
     21c:	66 19       	sub	r22, r6
     21e:	66 19       	sub	r22, r6
     220:	66 19       	sub	r22, r6
     222:	42 19       	sub	r20, r2
     224:	66 19       	sub	r22, r6
     226:	66 19       	sub	r22, r6
     228:	66 19       	sub	r22, r6
     22a:	66 19       	sub	r22, r6
     22c:	66 19       	sub	r22, r6
     22e:	66 19       	sub	r22, r6
     230:	66 19       	sub	r22, r6
     232:	5c 19       	sub	r21, r12
     234:	66 19       	sub	r22, r6
     236:	66 19       	sub	r22, r6
     238:	66 19       	sub	r22, r6
     23a:	66 19       	sub	r22, r6
     23c:	66 19       	sub	r22, r6
     23e:	66 19       	sub	r22, r6
     240:	66 19       	sub	r22, r6
     242:	5c 19       	sub	r21, r12
     244:	95 1e       	adc	r9, r21
     246:	9a 1e       	adc	r9, r26
     248:	9a 1e       	adc	r9, r26
     24a:	9a 1e       	adc	r9, r26
     24c:	9a 1e       	adc	r9, r26
     24e:	9a 1e       	adc	r9, r26
     250:	9a 1e       	adc	r9, r26
     252:	9a 1e       	adc	r9, r26
     254:	9a 1e       	adc	r9, r26
     256:	9a 1e       	adc	r9, r26
     258:	9a 1e       	adc	r9, r26
     25a:	f3 1b       	sub	r31, r19
     25c:	f3 1b       	sub	r31, r19
     25e:	f3 1b       	sub	r31, r19
     260:	f3 1b       	sub	r31, r19
     262:	f3 1b       	sub	r31, r19
     264:	f3 1b       	sub	r31, r19
     266:	f3 1b       	sub	r31, r19
     268:	f3 1b       	sub	r31, r19
     26a:	f3 1b       	sub	r31, r19
     26c:	f3 1b       	sub	r31, r19
     26e:	9a 1e       	adc	r9, r26
     270:	9a 1e       	adc	r9, r26
     272:	9a 1e       	adc	r9, r26
     274:	9a 1e       	adc	r9, r26
     276:	9a 1e       	adc	r9, r26
     278:	9a 1e       	adc	r9, r26
     27a:	9a 1e       	adc	r9, r26
     27c:	9a 1e       	adc	r9, r26
     27e:	9a 1e       	adc	r9, r26
     280:	9a 1e       	adc	r9, r26
     282:	9a 1e       	adc	r9, r26
     284:	9a 1e       	adc	r9, r26
     286:	9a 1e       	adc	r9, r26
     288:	9a 1e       	adc	r9, r26
     28a:	9a 1e       	adc	r9, r26
     28c:	9a 1e       	adc	r9, r26
     28e:	9a 1e       	adc	r9, r26
     290:	9a 1e       	adc	r9, r26
     292:	9a 1e       	adc	r9, r26
     294:	9a 1e       	adc	r9, r26
     296:	9a 1e       	adc	r9, r26
     298:	9a 1e       	adc	r9, r26
     29a:	9a 1e       	adc	r9, r26
     29c:	9a 1e       	adc	r9, r26
     29e:	9a 1e       	adc	r9, r26
     2a0:	9a 1e       	adc	r9, r26
     2a2:	9a 1e       	adc	r9, r26
     2a4:	9a 1e       	adc	r9, r26
     2a6:	9a 1e       	adc	r9, r26
     2a8:	9a 1e       	adc	r9, r26
     2aa:	25 1d       	adc	r18, r5
     2ac:	9a 1e       	adc	r9, r26
     2ae:	9a 1e       	adc	r9, r26
     2b0:	9a 1e       	adc	r9, r26
     2b2:	9a 1e       	adc	r9, r26
     2b4:	9a 1e       	adc	r9, r26
     2b6:	9a 1e       	adc	r9, r26
     2b8:	9a 1e       	adc	r9, r26
     2ba:	9a 1e       	adc	r9, r26
     2bc:	9a 1e       	adc	r9, r26
     2be:	9a 1e       	adc	r9, r26
     2c0:	32 1c       	adc	r3, r2
     2c2:	49 1c       	adc	r4, r9
     2c4:	9a 1e       	adc	r9, r26
     2c6:	9a 1e       	adc	r9, r26
     2c8:	9a 1e       	adc	r9, r26
     2ca:	9a 1e       	adc	r9, r26
     2cc:	49 1c       	adc	r4, r9
     2ce:	9a 1e       	adc	r9, r26
     2d0:	9a 1e       	adc	r9, r26
     2d2:	9a 1e       	adc	r9, r26
     2d4:	9a 1e       	adc	r9, r26
     2d6:	9a 1e       	adc	r9, r26
     2d8:	9a 1e       	adc	r9, r26
     2da:	25 1d       	adc	r18, r5
     2dc:	9a 1e       	adc	r9, r26
     2de:	9a 1e       	adc	r9, r26
     2e0:	88 1c       	adc	r8, r8
     2e2:	9a 1e       	adc	r9, r26
     2e4:	07 1d       	adc	r16, r7
     2e6:	9a 1e       	adc	r9, r26
     2e8:	9a 1e       	adc	r9, r26
     2ea:	25 1d       	adc	r18, r5

000002ec <__trampolines_end>:
     2ec:	6e 61       	ori	r22, 0x1E	; 30
     2ee:	6e 00       	.word	0x006e	; ????

000002f0 <__c.2332>:
     2f0:	69 6e 66 00 00 40 7a 10 f3 5a 00 a0 72 4e 18 09     inf..@z..Z..rN..
     300:	00 10 a5 d4 e8 00 00 e8 76 48 17 00 00 e4 0b 54     ........vH.....T
     310:	02 00 00 ca 9a 3b 00 00 00 e1 f5 05 00 00 80 96     .....;..........
     320:	98 00 00 00 40 42 0f 00 00 00 a0 86 01 00 00 00     ....@B..........
     330:	10 27 00 00 00 00 e8 03 00 00 00 00 64 00 00 00     .'..........d...
     340:	00 00 0a 00 00 00 00 00 01 00 00 00 00 00 2c 76     ..............,v
     350:	d8 88 dc 67 4f 08 23 df c1 df ae 59 e1 b1 b7 96     ...gO.#....Y....
     360:	e5 e3 e4 53 c6 3a e6 51 99 76 96 e8 e6 c2 84 26     ...S.:.Q.v.....&
     370:	eb 89 8c 9b 62 ed 40 7c 6f fc ef bc 9c 9f 40 f2     ....b.@|o.....@.
     380:	ba a5 6f a5 f4 90 05 5a 2a f7 5c 93 6b 6c f9 67     ..o....Z*.\.kl.g
     390:	6d c1 1b fc e0 e4 0d 47 fe f5 20 e6 b5 00 d0 ed     m......G.. .....
     3a0:	90 2e 03 00 94 35 77 05 00 80 84 1e 08 00 00 20     .....5w........ 
     3b0:	4e 0a 00 00 00 c8 0c 33 33 33 33 0f 98 6e 12 83     N......3333..n..
     3c0:	11 41 ef 8d 21 14 89 3b e6 55 16 cf fe e6 db 18     .A..!..;.U......
     3d0:	d1 84 4b 38 1b f7 7c 1d 90 1d a4 bb e4 24 20 32     ..K8..|......$ 2
     3e0:	84 72 5e 22 81 00 c9 f1 24 ec a1 e5 3d 27           .r^"....$...='

000003ee <SPLASH>:
     3ee:	2e 2e 2e 2e 2e 2e 2e 2e 2e 2e 2e 2e 2e 2e 2e 2e     ................
     3fe:	2e 2e 2e 2e 2e 2e 2e 2e 2e 2e 2e 2e 2e 2e 2e 2e     ................
     40e:	2e 2e 2e 2e 2e 2e 2e 2e 2e 2e 2e 2e 2e 2e 2e 2e     ................
     41e:	2e 2e 2e 2e 2e 2e 2e 0d 0a 00 00 00 00 00 00 00     ................
     42e:	00 2e 2e 2e 2e 2e 2e 2e 2e 2e 2e 2e 2e 2e 2e 2e     ................
     43e:	2e 2e 2e 2e 2e 2e 2e 2e 2e 2e 2e 2e 2e 2e 2e 2e     ................
     44e:	2e 2e 2e 2e 2e 2e 2e 2e 2e 2e 2e 2e 2e 2e 2e 2e     ................
     45e:	2e 2e 2e 2e 2e 2e 2e 2e 0d 0a 00 00 00 00 00 00     ................
     46e:	00 00 2e 2e 20 20 20 20 20 20 20 20 20 20 20 20     ....            
     47e:	20 20 20 20 20 20 20 20 20 20 20 20 20 20 20 20                     
     48e:	20 20 20 20 20 20 20 20 20 20 20 20 20 20 20 20                     
     49e:	20 20 20 20 20 20 20 2e 2e 0d 0a 00 00 00 00 00            .........
     4ae:	00 00 00 2e 2e 20 20 20 20 20 20 20 20 20 20 20     .....           
     4be:	20 20 20 20 20 20 20 20 20 20 20 20 20 20 20 20                     
     4ce:	20 20 20 20 20 20 20 20 20 20 20 20 20 20 20 20                     
     4de:	20 20 20 20 20 20 20 20 2e 2e 0d 0a 00 00 00 00             ........
     4ee:	00 00 00 00 2e 2e 20 20 20 20 20 20 20 20 20 20     ......          
     4fe:	20 20 20 20 5f 5f 5f 5f 5f 20 20 20 20 20 20 20         _____       
     50e:	20 20 20 20 20 20 20 20 20 20 20 20 20 20 20 20                     
     51e:	20 20 20 20 20 20 20 20 20 2e 2e 0d 0a 00 00 00              .......
     52e:	00 00 00 00 00 2e 2e 20 20 20 20 20 20 20 20 20     .......         
     53e:	20 20 20 20 2f 20 5f 5f 5f 5f 7c 20 20 20 20 20         / ____|     
     54e:	20 20 20 20 20 20 20 20 20 20 20 20 20 20 20 20                     
     55e:	20 20 20 20 20 20 20 20 20 20 2e 2e 0d 0a 00 00               ......
     56e:	00 00 00 00 00 00 2e 2e 20 20 20 20 20 20 20 20     ........        
     57e:	20 20 20 20 7c 20 28 5f 5f 5f 20 20 5f 20 5f 5f         | (___  _ __
     58e:	20 20 20 5f 5f 20 5f 20 20 5f 5f 5f 20 5f 5f 5f        __ _  ___ ___
     59e:	20 20 20 20 20 20 20 20 20 20 20 2e 2e 0d 0a 00                .....
     5ae:	00 00 00 00 00 00 00 2e 2e 20 20 20 20 20 20 20     .........       
     5be:	20 20 20 20 20 20 5c 5f 5f 5f 20 5c 7c 20 27 5f           \___ \| '_
     5ce:	20 5c 20 2f 20 5f 60 20 7c 2f 20 5f 5f 2f 20 5f      \ / _` |/ __/ _
     5de:	20 5c 20 20 20 20 20 20 20 20 20 20 2e 2e 0d 0a      \          ....
	...
     5f6:	2e 2e 20 20 20 20 20 20 20 20 20 20 20 20 20 5f     ..             _
     606:	5f 5f 5f 29 20 7c 20 7c 5f 29 20 7c 20 28 5f 7c     ___) | |_) | (_|
     616:	20 7c 20 28 5f 7c 20 20 5f 5f 2f 20 20 20 20 20      | (_|  __/     
     626:	20 20 20 20 20 2e 2e 0d 0a 00 00 00 00 00 00 00          ...........
     636:	00 2e 2e 20 20 20 20 20 20 20 20 20 20 20 20 7c     ...            |
     646:	5f 5f 5f 5f 5f 2f 7c 20 2e 5f 5f 2f 20 5c 5f 5f     _____/| .__/ \__
     656:	2c 5f 7c 5c 5f 5f 5f 5c 5f 5f 5f 7c 20 20 20 20     ,_|\___\___|    
     666:	20 20 20 20 20 20 2e 2e 0d 0a 00 00 00 00 00 00           ..........
     676:	00 00 2e 2e 20 20 20 20 20 20 20 20 20 5f 20 20     ....         _  
     686:	20 20 20 20 5f 20 5f 7c 20 7c 20 5f 5f 5f 5f 5f         _ _| | _____
     696:	5f 5f 20 20 20 20 20 20 20 20 5f 20 20 20 20 20     __        _     
     6a6:	20 20 20 20 20 20 20 2e 2e 0d 0a 00 00 00 00 00            .........
     6b6:	00 00 00 2e 2e 20 20 20 20 20 20 20 20 7c 20 7c     .....        | |
     6c6:	20 20 20 20 28 5f 7c 5f 29 5f 7c 7c 5f 5f 20 20         (_|_)_||__  
     6d6:	20 5f 5f 7c 20 20 20 20 20 20 7c 20 7c 20 20 20      __|      | |   
     6e6:	20 20 20 20 20 20 20 20 2e 2e 0d 0a 00 00 00 00             ........
     6f6:	00 00 00 00 2e 2e 20 20 20 20 20 20 20 20 7c 20     ......        | 
     706:	7c 20 20 20 20 20 5f 20 5f 20 5f 20 5f 5f 20 7c     |     _ _ _ __ |
     716:	20 7c 20 5f 5f 5f 20 20 5f 5f 5f 7c 20 7c 5f 5f      | ___  ___| |__
     726:	20 20 20 20 20 20 20 20 20 2e 2e 0d 0a 00 00 00              .......
     736:	00 00 00 00 00 2e 2e 20 20 20 20 20 20 20 20 7c     .......        |
     746:	20 7c 20 20 20 20 7c 20 7c 20 7c 20 27 5f 20 5c      |    | | | '_ \
     756:	7c 20 7c 2f 20 5f 20 5c 2f 20 5f 5f 7c 20 27 5f     | |/ _ \/ __| '_
     766:	20 5c 20 20 20 20 20 20 20 20 2e 2e 0d 0a 00 00      \        ......
     776:	00 00 00 00 00 00 2e 2e 20 20 20 20 20 20 20 20     ........        
     786:	7c 20 7c 5f 5f 5f 5f 7c 20 7c 20 7c 20 7c 20 7c     | |____| | | | |
     796:	20 7c 20 7c 20 20 5f 5f 2f 20 28 5f 5f 7c 20 7c      | |  __/ (__| |
     7a6:	20 7c 20 7c 20 20 20 20 20 20 20 2e 2e 0d 0a 00      | |       .....
     7b6:	00 00 00 00 00 00 00 2e 2e 20 20 20 20 20 20 20     .........       
     7c6:	20 7c 5f 5f 5f 5f 5f 5f 7c 5f 7c 5f 7c 5f 7c 20      |______|_|_|_| 
     7d6:	7c 5f 7c 5f 7c 5c 5f 5f 5f 7c 5c 5f 5f 5f 7c 5f     |_|_|\___|\___|_
     7e6:	7c 20 7c 5f 7c 20 20 20 20 20 20 20 2e 2e 0d 0a     | |_|       ....
	...
     7fe:	2e 2e 20 20 20 20 20 20 20 20 20 20 20 20 20 20     ..              
     80e:	20 20 20 20 20 20 20 20 20 20 20 20 20 20 20 20                     
     81e:	20 20 20 20 20 20 20 20 20 20 20 20 20 20 20 20                     
     82e:	20 20 20 20 20 2e 2e 0d 0a 00 00 00 00 00 00 00          ...........
     83e:	00 2e 2e 20 20 20 20 20 20 20 20 20 20 20 20 20     ...             
     84e:	20 20 20 20 20 20 20 20 20 20 20 20 20 20 20 20                     
     85e:	20 20 20 20 20 20 20 20 20 20 20 20 20 20 20 20                     
     86e:	20 20 20 20 20 20 2e 2e 0d 0a 00 00 00 00 00 00           ..........
     87e:	00 00 2e 2e 20 20 20 20 5f 5f 5f 5f 5f 20 5f 5f     ....    _____ __
     88e:	5f 5f 20 20 5f 20 20 20 20 5f 20 20 5f 5f 20 20     __  _    _  __  
     89e:	20 20 5f 5f 5f 5f 20 20 20 5f 5f 5f 20 20 20 5f       ____   ___   _
     8ae:	5f 5f 20 20 20 20 20 2e 2e 0d 0a 00 00 00 00 00     __     .........
     8be:	00 00 00 2e 2e 20 20 20 7c 5f 20 20 20 5f 2f 20     .....   |_   _/ 
     8ce:	5f 5f 20 5c 7c 20 7c 20 20 7c 20 7c 20 5c 20 5c     __ \| |  | | \ \
     8de:	20 20 2f 20 2f 5f 20 7c 20 2f 20 5f 20 5c 20 2f       / /_ | / _ \ /
     8ee:	20 5f 20 5c 20 20 20 20 2e 2e 0d 0a 00 00 00 00      _ \    ........
     8fe:	00 00 00 00 2e 2e 20 20 20 20 20 7c 20 7c 7c 20     ......     | || 
     90e:	7c 20 20 7c 20 7c 20 7c 20 20 7c 20 7c 20 20 5c     |  | | |  | |  \
     91e:	20 5c 2f 20 2f 20 7c 20 7c 7c 20 7c 20 7c 20 7c      \/ / | || | | |
     92e:	20 7c 20 7c 20 7c 20 20 20 2e 2e 0d 0a 00 00 00      | | |   .......
     93e:	00 00 00 00 00 2e 2e 20 20 20 20 5f 7c 20 7c 7c     .......    _| ||
     94e:	20 7c 5f 5f 7c 20 7c 20 7c 5f 5f 7c 20 7c 20 20      |__| | |__| |  
     95e:	20 5c 20 20 2f 20 20 7c 20 7c 7c 20 7c 5f 7c 20      \  /  | || |_| 
     96e:	7c 20 7c 5f 7c 20 7c 20 20 20 2e 2e 0d 0a 00 00     | |_| |   ......
     97e:	00 00 00 00 00 00 2e 2e 20 20 20 7c 5f 5f 5f 5f     ........   |____
     98e:	5f 5c 5f 5f 5f 5f 2f 20 5c 5f 5f 5f 5f 2f 20 20     _\____/ \____/  
     99e:	20 20 20 5c 2f 20 20 20 7c 5f 28 5f 29 5f 5f 5f        \/   |_(_)___
     9ae:	28 5f 29 5f 5f 5f 2f 20 20 20 20 2e 2e 0d 0a 00     (_)___/    .....
     9be:	00 00 00 00 00 00 00 2e 2e 20 20 20 20 20 20 20     .........       
     9ce:	20 20 20 20 20 20 20 20 20 20 20 20 20 20 20 20                     
     9de:	20 20 20 20 20 20 20 20 20 20 20 20 20 20 20 20                     
     9ee:	20 20 20 20 20 20 20 20 20 20 20 20 2e 2e 0d 0a                 ....
	...
     a06:	2e 2e 20 20 20 20 20 20 20 20 20 20 20 20 20 20     ..              
     a16:	20 20 20 20 20 20 20 20 20 20 20 20 20 20 20 20                     
     a26:	20 20 20 20 20 20 20 20 20 20 20 20 20 20 20 20                     
     a36:	20 20 20 20 20 2e 2e 0d 0a 00 00 00 00 00 00 00          ...........
     a46:	00 2e 2e 2e 2e 2e 2e 2e 2e 2e 2e 2e 2e 2e 2e 2e     ................
     a56:	2e 2e 2e 2e 2e 2e 2e 2e 2e 2e 2e 2e 2e 2e 2e 2e     ................
     a66:	2e 2e 2e 2e 2e 2e 2e 2e 2e 2e 2e 2e 2e 2e 2e 2e     ................
     a76:	2e 2e 2e 2e 2e 2e 2e 2e 0d 0a 00 00 00 00 00 00     ................
     a86:	00 00 2e 2e 2e 2e 2e 2e 2e 2e 2e 2e 2e 2e 2e 2e     ................
     a96:	2e 2e 2e 2e 2e 2e 2e 2e 2e 2e 2e 2e 2e 2e 2e 2e     ................
     aa6:	2e 2e 2e 2e 2e 2e 2e 2e 2e 2e 2e 2e 2e 2e 2e 2e     ................
     ab6:	2e 2e 2e 2e 2e 2e 2e 2e 2e 0d 0a 00 00 00 00 00     ................
     ac6:	00 00 00 0d 0a 00 00 00 00 00 00 00 00 00 00 00     ................
	...

00000b0a <NTC_table>:
     b0a:	15 fd 40 fd 6b fd 8b fd a4 fd b9 fd cc fd dc fd     ..@.k...........
     b1a:	ea fd f7 fd 03 fe 0e fe 19 fe 22 fe 2b fe 34 fe     ..........".+.4.
     b2a:	3c fe 43 fe 4b fe 52 fe 58 fe 5f fe 65 fe 6b fe     <.C.K.R.X._.e.k.
     b3a:	71 fe 76 fe 7c fe 81 fe 86 fe 8b fe 90 fe 94 fe     q.v.|...........
     b4a:	99 fe 9d fe a1 fe a6 fe aa fe ae fe b2 fe b6 fe     ................
     b5a:	b9 fe bd fe c1 fe c4 fe c8 fe cb fe ce fe d2 fe     ................
     b6a:	d5 fe d8 fe db fe de fe e1 fe e4 fe e7 fe ea fe     ................
     b7a:	ed fe f0 fe f3 fe f5 fe f8 fe fb fe fd fe 00 ff     ................
     b8a:	03 ff 05 ff 08 ff 0a ff 0d ff 0f ff 11 ff 14 ff     ................
     b9a:	16 ff 18 ff 1b ff 1d ff 1f ff 21 ff 24 ff 26 ff     ..........!.$.&.
     baa:	28 ff 2a ff 2c ff 2e ff 30 ff 32 ff 34 ff 37 ff     (.*.,...0.2.4.7.
     bba:	39 ff 3a ff 3c ff 3e ff 40 ff 42 ff 44 ff 46 ff     9.:.<.>.@.B.D.F.
     bca:	48 ff 4a ff 4c ff 4e ff 4f ff 51 ff 53 ff 55 ff     H.J.L.N.O.Q.S.U.
     bda:	56 ff 58 ff 5a ff 5c ff 5d ff 5f ff 61 ff 63 ff     V.X.Z.\.]._.a.c.
     bea:	64 ff 66 ff 68 ff 69 ff 6b ff 6c ff 6e ff 70 ff     d.f.h.i.k.l.n.p.
     bfa:	71 ff 73 ff 74 ff 76 ff 78 ff 79 ff 7b ff 7c ff     q.s.t.v.x.y.{.|.
     c0a:	7e ff 7f ff 81 ff 82 ff 84 ff 85 ff 87 ff 88 ff     ~...............
     c1a:	8a ff 8b ff 8c ff 8e ff 8f ff 91 ff 92 ff 94 ff     ................
     c2a:	95 ff 96 ff 98 ff 99 ff 9b ff 9c ff 9d ff 9f ff     ................
     c3a:	a0 ff a1 ff a3 ff a4 ff a5 ff a7 ff a8 ff a9 ff     ................
     c4a:	ab ff ac ff ad ff af ff b0 ff b1 ff b2 ff b4 ff     ................
     c5a:	b5 ff b6 ff b7 ff b9 ff ba ff bb ff bc ff be ff     ................
     c6a:	bf ff c0 ff c1 ff c3 ff c4 ff c5 ff c6 ff c7 ff     ................
     c7a:	c9 ff ca ff cb ff cc ff cd ff cf ff d0 ff d1 ff     ................
     c8a:	d2 ff d3 ff d4 ff d6 ff d7 ff d8 ff d9 ff da ff     ................
     c9a:	db ff dc ff de ff df ff e0 ff e1 ff e2 ff e3 ff     ................
     caa:	e4 ff e5 ff e6 ff e8 ff e9 ff ea ff eb ff ec ff     ................
     cba:	ed ff ee ff ef ff f0 ff f1 ff f2 ff f4 ff f5 ff     ................
     cca:	f6 ff f7 ff f8 ff f9 ff fa ff fb ff fc ff fd ff     ................
     cda:	fe ff ff ff 00 00 01 00 02 00 03 00 04 00 05 00     ................
     cea:	06 00 08 00 09 00 0a 00 0b 00 0c 00 0d 00 0e 00     ................
     cfa:	0f 00 10 00 11 00 12 00 13 00 14 00 15 00 16 00     ................
     d0a:	17 00 18 00 19 00 1a 00 1b 00 1c 00 1d 00 1e 00     ................
     d1a:	1f 00 20 00 21 00 22 00 23 00 24 00 24 00 25 00     .. .!.".#.$.$.%.
     d2a:	26 00 27 00 28 00 29 00 2a 00 2b 00 2c 00 2d 00     &.'.(.).*.+.,.-.
     d3a:	2e 00 2f 00 30 00 31 00 32 00 33 00 34 00 35 00     ../.0.1.2.3.4.5.
     d4a:	36 00 37 00 38 00 39 00 3a 00 3a 00 3b 00 3c 00     6.7.8.9.:.:.;.<.
     d5a:	3d 00 3e 00 3f 00 40 00 41 00 42 00 43 00 44 00     =.>.?.@.A.B.C.D.
     d6a:	45 00 46 00 47 00 48 00 48 00 49 00 4a 00 4b 00     E.F.G.H.H.I.J.K.
     d7a:	4c 00 4d 00 4e 00 4f 00 50 00 51 00 52 00 53 00     L.M.N.O.P.Q.R.S.
     d8a:	53 00 54 00 55 00 56 00 57 00 58 00 59 00 5a 00     S.T.U.V.W.X.Y.Z.
     d9a:	5b 00 5c 00 5c 00 5d 00 5e 00 5f 00 60 00 61 00     [.\.\.].^._.`.a.
     daa:	62 00 63 00 64 00 65 00 65 00 66 00 67 00 68 00     b.c.d.e.e.f.g.h.
     dba:	69 00 6a 00 6b 00 6c 00 6d 00 6d 00 6e 00 6f 00     i.j.k.l.m.m.n.o.
     dca:	70 00 71 00 72 00 73 00 74 00 75 00 75 00 76 00     p.q.r.s.t.u.u.v.
     dda:	77 00 78 00 79 00 7a 00 7b 00 7c 00 7c 00 7d 00     w.x.y.z.{.|.|.}.
     dea:	7e 00 7f 00 80 00 81 00 82 00 83 00 83 00 84 00     ~...............
     dfa:	85 00 86 00 87 00 88 00 89 00 8a 00 8a 00 8b 00     ................
     e0a:	8c 00 8d 00 8e 00 8f 00 90 00 91 00 91 00 92 00     ................
     e1a:	93 00 94 00 95 00 96 00 97 00 97 00 98 00 99 00     ................
     e2a:	9a 00 9b 00 9c 00 9d 00 9d 00 9e 00 9f 00 a0 00     ................
     e3a:	a1 00 a2 00 a3 00 a4 00 a4 00 a5 00 a6 00 a7 00     ................
     e4a:	a8 00 a9 00 aa 00 aa 00 ab 00 ac 00 ad 00 ae 00     ................
     e5a:	af 00 b0 00 b0 00 b1 00 b2 00 b3 00 b4 00 b5 00     ................
     e6a:	b6 00 b6 00 b7 00 b8 00 b9 00 ba 00 bb 00 bc 00     ................
     e7a:	bc 00 bd 00 be 00 bf 00 c0 00 c1 00 c2 00 c2 00     ................
     e8a:	c3 00 c4 00 c5 00 c6 00 c7 00 c8 00 c9 00 c9 00     ................
     e9a:	ca 00 cb 00 cc 00 cd 00 ce 00 cf 00 cf 00 d0 00     ................
     eaa:	d1 00 d2 00 d3 00 d4 00 d5 00 d5 00 d6 00 d7 00     ................
     eba:	d8 00 d9 00 da 00 db 00 db 00 dc 00 dd 00 de 00     ................
     eca:	df 00 e0 00 e1 00 e2 00 e2 00 e3 00 e4 00 e5 00     ................
     eda:	e6 00 e7 00 e8 00 e9 00 e9 00 ea 00 eb 00 ec 00     ................
     eea:	ed 00 ee 00 ef 00 ef 00 f0 00 f1 00 f2 00 f3 00     ................
     efa:	f4 00 f5 00 f6 00 f6 00 f7 00 f8 00 f9 00 fa 00     ................
     f0a:	fb 00 fc 00 fd 00 fe 00 fe 00 ff 00 00 01 01 01     ................
     f1a:	02 01 03 01 04 01 05 01 05 01 06 01 07 01 08 01     ................
     f2a:	09 01 0a 01 0b 01 0c 01 0d 01 0d 01 0e 01 0f 01     ................
     f3a:	10 01 11 01 12 01 13 01 14 01 15 01 16 01 16 01     ................
     f4a:	17 01 18 01 19 01 1a 01 1b 01 1c 01 1d 01 1e 01     ................
     f5a:	1f 01 1f 01 20 01 21 01 22 01 23 01 24 01 25 01     .... .!.".#.$.%.
     f6a:	26 01 27 01 28 01 29 01 2a 01 2a 01 2b 01 2c 01     &.'.(.).*.*.+.,.
     f7a:	2d 01 2e 01 2f 01 30 01 31 01 32 01 33 01 34 01     -.../.0.1.2.3.4.
     f8a:	35 01 36 01 36 01 37 01 38 01 39 01 3a 01 3b 01     5.6.6.7.8.9.:.;.
     f9a:	3c 01 3d 01 3e 01 3f 01 40 01 41 01 42 01 43 01     <.=.>.?.@.A.B.C.
     faa:	44 01 45 01 45 01 46 01 47 01 48 01 49 01 4a 01     D.E.E.F.G.H.I.J.
     fba:	4b 01 4c 01 4d 01 4e 01 4f 01 50 01 51 01 52 01     K.L.M.N.O.P.Q.R.
     fca:	53 01 54 01 55 01 56 01 57 01 58 01 59 01 5a 01     S.T.U.V.W.X.Y.Z.
     fda:	5b 01 5c 01 5d 01 5e 01 5f 01 60 01 61 01 62 01     [.\.].^._.`.a.b.
     fea:	63 01 64 01 65 01 66 01 67 01 68 01 69 01 6a 01     c.d.e.f.g.h.i.j.
     ffa:	6b 01 6c 01 6d 01 6e 01 6f 01 70 01 71 01 72 01     k.l.m.n.o.p.q.r.
    100a:	73 01 74 01 75 01 76 01 77 01 78 01 79 01 7a 01     s.t.u.v.w.x.y.z.
    101a:	7b 01 7c 01 7d 01 7e 01 7f 01 80 01 81 01 82 01     {.|.}.~.........
    102a:	83 01 84 01 85 01 86 01 87 01 88 01 89 01 8a 01     ................
    103a:	8c 01 8d 01 8e 01 8f 01 90 01 91 01 92 01 93 01     ................
    104a:	94 01 95 01 96 01 97 01 98 01 99 01 9b 01 9c 01     ................
    105a:	9d 01 9e 01 9f 01 a0 01 a1 01 a2 01 a3 01 a5 01     ................
    106a:	a6 01 a7 01 a8 01 a9 01 aa 01 ab 01 ac 01 ae 01     ................
    107a:	af 01 b0 01 b1 01 b2 01 b3 01 b4 01 b6 01 b7 01     ................
    108a:	b8 01 b9 01 ba 01 bb 01 bc 01 be 01 bf 01 c0 01     ................
    109a:	c1 01 c2 01 c4 01 c5 01 c6 01 c7 01 c8 01 ca 01     ................
    10aa:	cb 01 cc 01 cd 01 ce 01 d0 01 d1 01 d2 01 d3 01     ................
    10ba:	d5 01 d6 01 d7 01 d8 01 d9 01 db 01 dc 01 dd 01     ................
    10ca:	df 01 e0 01 e1 01 e2 01 e4 01 e5 01 e6 01 e7 01     ................
    10da:	e9 01 ea 01 eb 01 ed 01 ee 01 ef 01 f1 01 f2 01     ................
    10ea:	f3 01 f5 01 f6 01 f7 01 f9 01 fa 01 fb 01 fd 01     ................
    10fa:	fe 01 ff 01 01 02 02 02 03 02 05 02 06 02 08 02     ................
    110a:	09 02 0a 02 0c 02 0d 02 0f 02 10 02 11 02 13 02     ................
    111a:	14 02 16 02 17 02 19 02 1a 02 1c 02 1d 02 1f 02     ................
    112a:	20 02 22 02 23 02 24 02 26 02 28 02 29 02 2b 02      .".#.$.&.(.).+.
    113a:	2c 02 2e 02 2f 02 31 02 32 02 34 02 35 02 37 02     ,.../.1.2.4.5.7.
    114a:	39 02 3a 02 3c 02 3d 02 3f 02 40 02 42 02 44 02     9.:.<.=.?.@.B.D.
    115a:	45 02 47 02 49 02 4a 02 4c 02 4e 02 4f 02 51 02     E.G.I.J.L.N.O.Q.
    116a:	53 02 54 02 56 02 58 02 5a 02 5b 02 5d 02 5f 02     S.T.V.X.Z.[.]._.
    117a:	61 02 62 02 64 02 66 02 68 02 69 02 6b 02 6d 02     a.b.d.f.h.i.k.m.
    118a:	6f 02 71 02 73 02 74 02 76 02 78 02 7a 02 7c 02     o.q.s.t.v.x.z.|.
    119a:	7e 02 80 02 82 02 84 02 86 02 88 02 8a 02 8c 02     ~...............
    11aa:	8e 02 90 02 92 02 94 02 96 02 98 02 9a 02 9c 02     ................
    11ba:	9e 02 a0 02 a2 02 a4 02 a6 02 a9 02 ab 02 ad 02     ................
    11ca:	af 02 b1 02 b4 02 b6 02 b8 02 ba 02 bd 02 bf 02     ................
    11da:	c1 02 c3 02 c6 02 c8 02 cb 02 cd 02 cf 02 d2 02     ................
    11ea:	d4 02 d7 02 d9 02 dc 02 de 02 e1 02 e3 02 e6 02     ................
    11fa:	e9 02 eb 02 ee 02 f0 02 f3 02 f6 02 f9 02 fb 02     ................
    120a:	fe 02 01 03 04 03 07 03 09 03 0c 03 0f 03 12 03     ................
    121a:	15 03 18 03 1b 03 1e 03 21 03 24 03 28 03 2b 03     ........!.$.(.+.
    122a:	2e 03 31 03 34 03 38 03 3b 03 3e 03 42 03 45 03     ..1.4.8.;.>.B.E.
    123a:	49 03 4c 03 50 03 53 03 57 03 5b 03 5e 03 62 03     I.L.P.S.W.[.^.b.
    124a:	66 03 6a 03 6e 03 71 03 75 03 79 03 7e 03 82 03     f.j.n.q.u.y.~...
    125a:	86 03 8a 03 8e 03 93 03 97 03 9c 03 a0 03 a5 03     ................
    126a:	a9 03 ae 03 b3 03 b8 03 bc 03 c1 03 c7 03 cc 03     ................
    127a:	d1 03 d6 03 dc 03 e1 03 e7 03 ec 03 f2 03 f8 03     ................
    128a:	fe 03 04 04 0a 04 11 04 17 04 1e 04 24 04 2b 04     ............$.+.
    129a:	32 04 39 04 40 04 48 04 50 04 57 04 5f 04 67 04     2.9.@.H.P.W._.g.
    12aa:	70 04 78 04 81 04 8a 04 93 04 9d 04 a7 04 b1 04     p.x.............
    12ba:	bb 04 c6 04 d1 04 dc 04 e8 04 f4 04 00 05 0d 05     ................
    12ca:	1b 05 29 05 37 05 46 05 56 05 67 05 78 05 8a 05     ..).7.F.V.g.x...
    12da:	9d 05 b1 05 c7 05 dd 05 f5 05 0e 06 2a 06 47 06     ............*.G.
    12ea:	66 06 88 06 ad 06 d6 06 03 07 36 07 6f 07 b1 07     f.........6.o...
    12fa:	fd 07 58 08 c9 08 5a 09 21 0a 56 0b c1 0d 2c 10     ..X...Z.!.V...,.

0000130a <__ctors_end>:
    130a:	11 24       	eor	r1, r1
    130c:	1f be       	out	0x3f, r1	; 63
    130e:	cf ef       	ldi	r28, 0xFF	; 255
    1310:	d0 e1       	ldi	r29, 0x10	; 16
    1312:	de bf       	out	0x3e, r29	; 62
    1314:	cd bf       	out	0x3d, r28	; 61

00001316 <__do_copy_data>:
    1316:	1a e0       	ldi	r17, 0x0A	; 10
    1318:	a0 e0       	ldi	r26, 0x00	; 0
    131a:	b1 e0       	ldi	r27, 0x01	; 1
    131c:	e8 e7       	ldi	r30, 0x78	; 120
    131e:	f6 e5       	ldi	r31, 0x56	; 86
    1320:	02 c0       	rjmp	.+4      	; 0x1326 <__do_copy_data+0x10>
    1322:	05 90       	lpm	r0, Z+
    1324:	0d 92       	st	X+, r0
    1326:	a6 32       	cpi	r26, 0x26	; 38
    1328:	b1 07       	cpc	r27, r17
    132a:	d9 f7       	brne	.-10     	; 0x1322 <__do_copy_data+0xc>

0000132c <__do_clear_bss>:
    132c:	2d e0       	ldi	r18, 0x0D	; 13
    132e:	a6 e2       	ldi	r26, 0x26	; 38
    1330:	ba e0       	ldi	r27, 0x0A	; 10
    1332:	01 c0       	rjmp	.+2      	; 0x1336 <.do_clear_bss_start>

00001334 <.do_clear_bss_loop>:
    1334:	1d 92       	st	X+, r1

00001336 <.do_clear_bss_start>:
    1336:	af 35       	cpi	r26, 0x5F	; 95
    1338:	b2 07       	cpc	r27, r18
    133a:	e1 f7       	brne	.-8      	; 0x1334 <.do_clear_bss_loop>
    133c:	0e 94 f4 13 	call	0x27e8	; 0x27e8 <main>
    1340:	0c 94 3a 2b 	jmp	0x5674	; 0x5674 <_exit>

00001344 <__bad_interrupt>:
    1344:	0c 94 00 00 	jmp	0	; 0x0 <__vectors>

00001348 <get_acceleration>:
{
	SCH_TASK_CreateTask(&s_accel_gyro_task_context.taskHandle, &s_accel_gyro_task_context.taskProperty);
}

Accel_Gyro_DataTypedef get_acceleration(void)
{
    1348:	cf 93       	push	r28
    134a:	df 93       	push	r29
    134c:	00 d0       	rcall	.+0      	; 0x134e <get_acceleration+0x6>
    134e:	00 d0       	rcall	.+0      	; 0x1350 <get_acceleration+0x8>
    1350:	00 d0       	rcall	.+0      	; 0x1352 <get_acceleration+0xa>
    1352:	cd b7       	in	r28, 0x3d	; 61
    1354:	de b7       	in	r29, 0x3e	; 62
	return (Accel_Gyro_DataTypedef)Accel_Status;
    1356:	86 e0       	ldi	r24, 0x06	; 6
    1358:	ec e2       	ldi	r30, 0x2C	; 44
    135a:	fa e0       	ldi	r31, 0x0A	; 10
    135c:	de 01       	movw	r26, r28
    135e:	11 96       	adiw	r26, 0x01	; 1
    1360:	01 90       	ld	r0, Z+
    1362:	0d 92       	st	X+, r0
    1364:	8a 95       	dec	r24
    1366:	e1 f7       	brne	.-8      	; 0x1360 <get_acceleration+0x18>
    1368:	29 81       	ldd	r18, Y+1	; 0x01
    136a:	3a 81       	ldd	r19, Y+2	; 0x02
    136c:	4b 81       	ldd	r20, Y+3	; 0x03
    136e:	5c 81       	ldd	r21, Y+4	; 0x04
    1370:	6d 81       	ldd	r22, Y+5	; 0x05
    1372:	7e 81       	ldd	r23, Y+6	; 0x06
}
    1374:	80 e0       	ldi	r24, 0x00	; 0
    1376:	90 e0       	ldi	r25, 0x00	; 0
    1378:	26 96       	adiw	r28, 0x06	; 6
    137a:	0f b6       	in	r0, 0x3f	; 63
    137c:	f8 94       	cli
    137e:	de bf       	out	0x3e, r29	; 62
    1380:	0f be       	out	0x3f, r0	; 63
    1382:	cd bf       	out	0x3d, r28	; 61
    1384:	df 91       	pop	r29
    1386:	cf 91       	pop	r28
    1388:	08 95       	ret

0000138a <get_gyroscope>:

Accel_Gyro_DataTypedef get_gyroscope(void)
{
    138a:	cf 93       	push	r28
    138c:	df 93       	push	r29
    138e:	00 d0       	rcall	.+0      	; 0x1390 <get_gyroscope+0x6>
    1390:	00 d0       	rcall	.+0      	; 0x1392 <get_gyroscope+0x8>
    1392:	00 d0       	rcall	.+0      	; 0x1394 <get_gyroscope+0xa>
    1394:	cd b7       	in	r28, 0x3d	; 61
    1396:	de b7       	in	r29, 0x3e	; 62
	return (Accel_Gyro_DataTypedef)Gyro_Status;
    1398:	86 e0       	ldi	r24, 0x06	; 6
    139a:	e6 e2       	ldi	r30, 0x26	; 38
    139c:	fa e0       	ldi	r31, 0x0A	; 10
    139e:	de 01       	movw	r26, r28
    13a0:	11 96       	adiw	r26, 0x01	; 1
    13a2:	01 90       	ld	r0, Z+
    13a4:	0d 92       	st	X+, r0
    13a6:	8a 95       	dec	r24
    13a8:	e1 f7       	brne	.-8      	; 0x13a2 <get_gyroscope+0x18>
    13aa:	29 81       	ldd	r18, Y+1	; 0x01
    13ac:	3a 81       	ldd	r19, Y+2	; 0x02
    13ae:	4b 81       	ldd	r20, Y+3	; 0x03
    13b0:	5c 81       	ldd	r21, Y+4	; 0x04
    13b2:	6d 81       	ldd	r22, Y+5	; 0x05
    13b4:	7e 81       	ldd	r23, Y+6	; 0x06
    13b6:	80 e0       	ldi	r24, 0x00	; 0
    13b8:	90 e0       	ldi	r25, 0x00	; 0
    13ba:	26 96       	adiw	r28, 0x06	; 6
    13bc:	0f b6       	in	r0, 0x3f	; 63
    13be:	f8 94       	cli
    13c0:	de bf       	out	0x3e, r29	; 62
    13c2:	0f be       	out	0x3f, r0	; 63
    13c4:	cd bf       	out	0x3d, r28	; 61
    13c6:	df 91       	pop	r29
    13c8:	cf 91       	pop	r28
    13ca:	08 95       	ret

000013cc <CmdLineProcess>:
//! Otherwise it returns the code that was returned by the command function.
//
//*****************************************************************************
uint8_t
CmdLineProcess(char *pcCmdLine)
{
    13cc:	ef 92       	push	r14
    13ce:	ff 92       	push	r15
    13d0:	0f 93       	push	r16
    13d2:	1f 93       	push	r17
    13d4:	cf 93       	push	r28
    13d6:	fc 01       	movw	r30, r24
    pcChar = pcCmdLine;

    //
    // Advance through the command line until a zero character is found.
    //
    while(*pcChar)
    13d8:	80 81       	ld	r24, Z
    13da:	88 23       	and	r24, r24
    13dc:	09 f4       	brne	.+2      	; 0x13e0 <CmdLineProcess+0x14>
    13de:	44 c0       	rjmp	.+136    	; 0x1468 <CmdLineProcess+0x9c>
    13e0:	91 e0       	ldi	r25, 0x01	; 1
    13e2:	c0 e0       	ldi	r28, 0x00	; 0
                //
                if(ui8Argc < CMDLINE_MAX_ARGS)
                {
                    g_ppcArgv[ui8Argc] = pcChar;
                    ui8Argc++;
                    bFindArg = false;
    13e4:	20 e0       	ldi	r18, 0x00	; 0
        // to search for the next argument.
        //
        if(*pcChar == ' ')
        {
            *pcChar = 0;
            bFindArg = true;
    13e6:	31 e0       	ldi	r19, 0x01	; 1
    {
        //
        // If there is a space, then replace it with a zero, and set the flag
        // to search for the next argument.
        //
        if(*pcChar == ' ')
    13e8:	80 32       	cpi	r24, 0x20	; 32
    13ea:	19 f4       	brne	.+6      	; 0x13f2 <CmdLineProcess+0x26>
        {
            *pcChar = 0;
    13ec:	10 82       	st	Z, r1
            bFindArg = true;
    13ee:	93 2f       	mov	r25, r19
    13f0:	0e c0       	rjmp	.+28     	; 0x140e <CmdLineProcess+0x42>
        {
            //
            // If bFindArg is set, then that means we are looking for the start
            // of the next argument.
            //
            if(bFindArg)
    13f2:	99 23       	and	r25, r25
    13f4:	61 f0       	breq	.+24     	; 0x140e <CmdLineProcess+0x42>
                //
                // As long as the maximum number of arguments has not been
                // reached, then save the pointer to the start of this new arg
                // in the argv array, and increment the count of args, argc.
                //
                if(ui8Argc < CMDLINE_MAX_ARGS)
    13f6:	c8 30       	cpi	r28, 0x08	; 8
    13f8:	c8 f5       	brcc	.+114    	; 0x146c <CmdLineProcess+0xa0>
                {
                    g_ppcArgv[ui8Argc] = pcChar;
    13fa:	ac 2f       	mov	r26, r28
    13fc:	b0 e0       	ldi	r27, 0x00	; 0
    13fe:	aa 0f       	add	r26, r26
    1400:	bb 1f       	adc	r27, r27
    1402:	ae 5c       	subi	r26, 0xCE	; 206
    1404:	b5 4f       	sbci	r27, 0xF5	; 245
    1406:	ed 93       	st	X+, r30
    1408:	fc 93       	st	X, r31
                    ui8Argc++;
    140a:	cf 5f       	subi	r28, 0xFF	; 255
                    bFindArg = false;
    140c:	92 2f       	mov	r25, r18
        }

        //
        // Advance to the next character in the command line.
        //
        pcChar++;
    140e:	31 96       	adiw	r30, 0x01	; 1
    pcChar = pcCmdLine;

    //
    // Advance through the command line until a zero character is found.
    //
    while(*pcChar)
    1410:	80 81       	ld	r24, Z
    1412:	81 11       	cpse	r24, r1
    1414:	e9 cf       	rjmp	.-46     	; 0x13e8 <CmdLineProcess+0x1c>
    }

    //
    // If one or more arguments was found, then process the command.
    //
    if(ui8Argc)
    1416:	cc 23       	and	r28, r28
    1418:	59 f1       	breq	.+86     	; 0x1470 <CmdLineProcess+0xa4>

        //
        // Search through the command table until a null command string is
        // found, which marks the end of the table.
        //
        while(psCmdEntry->pcCmd)
    141a:	60 91 07 01 	lds	r22, 0x0107	; 0x800107 <g_psCmdTable>
    141e:	70 91 08 01 	lds	r23, 0x0108	; 0x800108 <g_psCmdTable+0x1>
    1422:	61 15       	cp	r22, r1
    1424:	71 05       	cpc	r23, r1
    1426:	31 f1       	breq	.+76     	; 0x1474 <CmdLineProcess+0xa8>
            //
            // If this command entry command string matches argv[0], then call
            // the function for this command, passing the command line
            // arguments.
            //
            if(!strcmp(g_ppcArgv[0], psCmdEntry->pcCmd))
    1428:	e0 90 32 0a 	lds	r14, 0x0A32	; 0x800a32 <g_ppcArgv>
    142c:	f0 90 33 0a 	lds	r15, 0x0A33	; 0x800a33 <g_ppcArgv+0x1>
    1430:	07 e0       	ldi	r16, 0x07	; 7
    1432:	11 e0       	ldi	r17, 0x01	; 1
    1434:	c7 01       	movw	r24, r14
    1436:	0e 94 62 2a 	call	0x54c4	; 0x54c4 <strcmp>
    143a:	89 2b       	or	r24, r25
    143c:	59 f4       	brne	.+22     	; 0x1454 <CmdLineProcess+0x88>
            {

                return(psCmdEntry->pfnCmd(ui8Argc, g_ppcArgv));
    143e:	d8 01       	movw	r26, r16
    1440:	12 96       	adiw	r26, 0x02	; 2
    1442:	ed 91       	ld	r30, X+
    1444:	fc 91       	ld	r31, X
    1446:	13 97       	sbiw	r26, 0x03	; 3
    1448:	62 e3       	ldi	r22, 0x32	; 50
    144a:	7a e0       	ldi	r23, 0x0A	; 10
    144c:	8c 2f       	mov	r24, r28
    144e:	90 e0       	ldi	r25, 0x00	; 0
    1450:	09 95       	icall
    1452:	11 c0       	rjmp	.+34     	; 0x1476 <CmdLineProcess+0xaa>
            }

            //
            // Not found, so advance to the next entry.
            //
            psCmdEntry++;
    1454:	0a 5f       	subi	r16, 0xFA	; 250
    1456:	1f 4f       	sbci	r17, 0xFF	; 255

        //
        // Search through the command table until a null command string is
        // found, which marks the end of the table.
        //
        while(psCmdEntry->pcCmd)
    1458:	f8 01       	movw	r30, r16
    145a:	60 81       	ld	r22, Z
    145c:	71 81       	ldd	r23, Z+1	; 0x01
    145e:	61 15       	cp	r22, r1
    1460:	71 05       	cpc	r23, r1
    1462:	41 f7       	brne	.-48     	; 0x1434 <CmdLineProcess+0x68>

    //
    // Fall through to here means that no matching command was found, so return
    // an error.
    //
    return(CMDLINE_BAD_CMD);
    1464:	81 e0       	ldi	r24, 0x01	; 1
    1466:	07 c0       	rjmp	.+14     	; 0x1476 <CmdLineProcess+0xaa>
    1468:	81 e0       	ldi	r24, 0x01	; 1
    146a:	05 c0       	rjmp	.+10     	; 0x1476 <CmdLineProcess+0xaa>
                // The maximum number of arguments has been reached so return
                // the error.
                //
                else
                {
                    return(CMDLINE_TOO_MANY_ARGS);
    146c:	82 e0       	ldi	r24, 0x02	; 2
    146e:	03 c0       	rjmp	.+6      	; 0x1476 <CmdLineProcess+0xaa>

    //
    // Fall through to here means that no matching command was found, so return
    // an error.
    //
    return(CMDLINE_BAD_CMD);
    1470:	81 e0       	ldi	r24, 0x01	; 1
    1472:	01 c0       	rjmp	.+2      	; 0x1476 <CmdLineProcess+0xaa>
    1474:	81 e0       	ldi	r24, 0x01	; 1
}
    1476:	cf 91       	pop	r28
    1478:	1f 91       	pop	r17
    147a:	0f 91       	pop	r16
    147c:	ff 90       	pop	r15
    147e:	ef 90       	pop	r14
    1480:	08 95       	ret

00001482 <Cmd_help>:
void	command_create_task(void)
{
	SCH_TASK_CreateTask(&s_CommandTaskContext.taskHandle, &s_CommandTaskContext.taskProperty);
}

int Cmd_help(int argc, char *argv[]) {
    1482:	cf 93       	push	r28
    1484:	df 93       	push	r29
	tCmdLineEntry *pEntry;

	usart0_send_string("\nAvailable commands\r\n");
    1486:	81 ee       	ldi	r24, 0xE1	; 225
    1488:	91 e0       	ldi	r25, 0x01	; 1
    148a:	0e 94 e0 19 	call	0x33c0	; 0x33c0 <usart0_send_string>
	usart0_send_string("------------------\r\n");
    148e:	87 ef       	ldi	r24, 0xF7	; 247
    1490:	91 e0       	ldi	r25, 0x01	; 1
    1492:	0e 94 e0 19 	call	0x33c0	; 0x33c0 <usart0_send_string>
	// Point at the beginning of the command table.
	pEntry = &g_psCmdTable[0];

	// Enter a loop to read each entry from the command table.  The
	// end of the table has been reached when the command name is NULL.
	while (pEntry->pcCmd) {
    1496:	80 91 07 01 	lds	r24, 0x0107	; 0x800107 <g_psCmdTable>
    149a:	90 91 08 01 	lds	r25, 0x0108	; 0x800108 <g_psCmdTable+0x1>
    149e:	00 97       	sbiw	r24, 0x00	; 0
    14a0:	89 f0       	breq	.+34     	; 0x14c4 <Cmd_help+0x42>
    14a2:	c7 e0       	ldi	r28, 0x07	; 7
    14a4:	d1 e0       	ldi	r29, 0x01	; 1
		// Print the command name and the brief description.
		usart0_send_string(pEntry->pcCmd);
    14a6:	0e 94 e0 19 	call	0x33c0	; 0x33c0 <usart0_send_string>
		usart0_send_string(pEntry->pcHelp);
    14aa:	8c 81       	ldd	r24, Y+4	; 0x04
    14ac:	9d 81       	ldd	r25, Y+5	; 0x05
    14ae:	0e 94 e0 19 	call	0x33c0	; 0x33c0 <usart0_send_string>
		usart0_send_string("\r\n");
    14b2:	83 e5       	ldi	r24, 0x53	; 83
    14b4:	93 e0       	ldi	r25, 0x03	; 3
    14b6:	0e 94 e0 19 	call	0x33c0	; 0x33c0 <usart0_send_string>

		// Advance to the next entry in the table.
		pEntry++;
    14ba:	26 96       	adiw	r28, 0x06	; 6
	// Point at the beginning of the command table.
	pEntry = &g_psCmdTable[0];

	// Enter a loop to read each entry from the command table.  The
	// end of the table has been reached when the command name is NULL.
	while (pEntry->pcCmd) {
    14bc:	88 81       	ld	r24, Y
    14be:	99 81       	ldd	r25, Y+1	; 0x01
    14c0:	00 97       	sbiw	r24, 0x00	; 0
    14c2:	89 f7       	brne	.-30     	; 0x14a6 <Cmd_help+0x24>
		pEntry++;

	}
	// Return success.
	return (CMDLINE_OK);
}
    14c4:	80 e0       	ldi	r24, 0x00	; 0
    14c6:	90 e0       	ldi	r25, 0x00	; 0
    14c8:	df 91       	pop	r29
    14ca:	cf 91       	pop	r28
    14cc:	08 95       	ret

000014ce <command_task_update>:
		command_task_update                // taskFunction;
	}
};

static	void	command_task_update(void)
{
    14ce:	cf 93       	push	r28
	char rxData;
	int8_t	ret_val;
	while (! rbuffer_empty(p_CommandRingBuffer))
    14d0:	4d c0       	rjmp	.+154    	; 0x156c <command_task_update+0x9e>
	{
		rxData = rbuffer_remove(p_CommandRingBuffer);
    14d2:	80 91 85 0a 	lds	r24, 0x0A85	; 0x800a85 <p_CommandRingBuffer>
    14d6:	90 91 86 0a 	lds	r25, 0x0A86	; 0x800a86 <p_CommandRingBuffer+0x1>
    14da:	0e 94 9f 19 	call	0x333e	; 0x333e <rbuffer_remove>
    14de:	c8 2f       	mov	r28, r24
		usart0_send_char(rxData);
    14e0:	0e 94 d0 19 	call	0x33a0	; 0x33a0 <usart0_send_char>
		if ((rxData == '\r') || (rxData == '\n'))		//got a return or new line
    14e4:	cd 30       	cpi	r28, 0x0D	; 13
    14e6:	11 f0       	breq	.+4      	; 0x14ec <command_task_update+0x1e>
    14e8:	ca 30       	cpi	r28, 0x0A	; 10
    14ea:	29 f5       	brne	.+74     	; 0x1536 <command_task_update+0x68>
		{
			if (s_commandBufferIndex > 0)		//if we got the CR or LF at the begining, discard	
    14ec:	80 91 44 0a 	lds	r24, 0x0A44	; 0x800a44 <s_commandBufferIndex>
    14f0:	88 23       	and	r24, r24
    14f2:	e1 f0       	breq	.+56     	; 0x152c <command_task_update+0x5e>
			{
				s_commandBuffer[s_commandBufferIndex] = 0;
    14f4:	e8 2f       	mov	r30, r24
    14f6:	f0 e0       	ldi	r31, 0x00	; 0
    14f8:	eb 5b       	subi	r30, 0xBB	; 187
    14fa:	f5 4f       	sbci	r31, 0xF5	; 245
    14fc:	10 82       	st	Z, r1
				s_commandBufferIndex++;
    14fe:	8f 5f       	subi	r24, 0xFF	; 255
    1500:	80 93 44 0a 	sts	0x0A44, r24	; 0x800a44 <s_commandBufferIndex>
				ret_val = CmdLineProcess(s_commandBuffer);		
    1504:	85 e4       	ldi	r24, 0x45	; 69
    1506:	9a e0       	ldi	r25, 0x0A	; 10
    1508:	0e 94 e6 09 	call	0x13cc	; 0x13cc <CmdLineProcess>
				s_commandBufferIndex = 0;		
    150c:	10 92 44 0a 	sts	0x0A44, r1	; 0x800a44 <s_commandBufferIndex>
				usart0_send_string(ErrorCode[ret_val]);
    1510:	88 0f       	add	r24, r24
    1512:	99 0b       	sbc	r25, r25
    1514:	fc 01       	movw	r30, r24
    1516:	eb 57       	subi	r30, 0x7B	; 123
    1518:	fe 4f       	sbci	r31, 0xFE	; 254
    151a:	80 81       	ld	r24, Z
    151c:	91 81       	ldd	r25, Z+1	; 0x01
    151e:	0e 94 e0 19 	call	0x33c0	; 0x33c0 <usart0_send_string>
				usart0_send_string("> ");
    1522:	8e e0       	ldi	r24, 0x0E	; 14
    1524:	92 e0       	ldi	r25, 0x02	; 2
    1526:	0e 94 e0 19 	call	0x33c0	; 0x33c0 <usart0_send_string>
    152a:	20 c0       	rjmp	.+64     	; 0x156c <command_task_update+0x9e>
			}	
			else usart0_send_string("\r\n> ");
    152c:	8c e0       	ldi	r24, 0x0C	; 12
    152e:	92 e0       	ldi	r25, 0x02	; 2
    1530:	0e 94 e0 19 	call	0x33c0	; 0x33c0 <usart0_send_string>
    1534:	1b c0       	rjmp	.+54     	; 0x156c <command_task_update+0x9e>
		}
		else if ((rxData == 8) || (rxData == 127))	
    1536:	c8 30       	cpi	r28, 0x08	; 8
    1538:	11 f0       	breq	.+4      	; 0x153e <command_task_update+0x70>
    153a:	cf 37       	cpi	r28, 0x7F	; 127
    153c:	41 f4       	brne	.+16     	; 0x154e <command_task_update+0x80>
		{
			if (s_commandBufferIndex > 0) s_commandBufferIndex--;
    153e:	80 91 44 0a 	lds	r24, 0x0A44	; 0x800a44 <s_commandBufferIndex>
    1542:	88 23       	and	r24, r24
    1544:	99 f0       	breq	.+38     	; 0x156c <command_task_update+0x9e>
    1546:	81 50       	subi	r24, 0x01	; 1
    1548:	80 93 44 0a 	sts	0x0A44, r24	; 0x800a44 <s_commandBufferIndex>
    154c:	0f c0       	rjmp	.+30     	; 0x156c <command_task_update+0x9e>
		}
		else
		{
			s_commandBuffer[s_commandBufferIndex] = rxData;
    154e:	80 91 44 0a 	lds	r24, 0x0A44	; 0x800a44 <s_commandBufferIndex>
    1552:	e8 2f       	mov	r30, r24
    1554:	f0 e0       	ldi	r31, 0x00	; 0
    1556:	eb 5b       	subi	r30, 0xBB	; 187
    1558:	f5 4f       	sbci	r31, 0xF5	; 245
    155a:	c0 83       	st	Z, r28
			s_commandBufferIndex ++;
    155c:	8f 5f       	subi	r24, 0xFF	; 255
			if (s_commandBufferIndex > COMMAND_MAX_LENGTH) s_commandBufferIndex= 0;
    155e:	81 34       	cpi	r24, 0x41	; 65
    1560:	18 f4       	brcc	.+6      	; 0x1568 <command_task_update+0x9a>
			if (s_commandBufferIndex > 0) s_commandBufferIndex--;
		}
		else
		{
			s_commandBuffer[s_commandBufferIndex] = rxData;
			s_commandBufferIndex ++;
    1562:	80 93 44 0a 	sts	0x0A44, r24	; 0x800a44 <s_commandBufferIndex>
    1566:	02 c0       	rjmp	.+4      	; 0x156c <command_task_update+0x9e>
			if (s_commandBufferIndex > COMMAND_MAX_LENGTH) s_commandBufferIndex= 0;
    1568:	10 92 44 0a 	sts	0x0A44, r1	; 0x800a44 <s_commandBufferIndex>

static	void	command_task_update(void)
{
	char rxData;
	int8_t	ret_val;
	while (! rbuffer_empty(p_CommandRingBuffer))
    156c:	80 91 85 0a 	lds	r24, 0x0A85	; 0x800a85 <p_CommandRingBuffer>
    1570:	90 91 86 0a 	lds	r25, 0x0A86	; 0x800a86 <p_CommandRingBuffer+0x1>
    1574:	0e 94 83 19 	call	0x3306	; 0x3306 <rbuffer_empty>
    1578:	88 23       	and	r24, r24
    157a:	09 f4       	brne	.+2      	; 0x157e <command_task_update+0xb0>
    157c:	aa cf       	rjmp	.-172    	; 0x14d2 <command_task_update+0x4>
			s_commandBuffer[s_commandBufferIndex] = rxData;
			s_commandBufferIndex ++;
			if (s_commandBufferIndex > COMMAND_MAX_LENGTH) s_commandBufferIndex= 0;
		}
	}	
}
    157e:	cf 91       	pop	r28
    1580:	08 95       	ret

00001582 <Cmd_set_temp>:
// Format: set_temp channel value
//
//*****************************************************************************
int
Cmd_set_temp(int argc, char *argv[]) 
{
    1582:	0f 93       	push	r16
    1584:	1f 93       	push	r17
    1586:	cf 93       	push	r28
    1588:	df 93       	push	r29
	if (argc < 3) return CMDLINE_TOO_FEW_ARGS;
    158a:	83 30       	cpi	r24, 0x03	; 3
    158c:	91 05       	cpc	r25, r1
    158e:	7c f1       	brlt	.+94     	; 0x15ee <Cmd_set_temp+0x6c>
	if (argc >3) return CMDLINE_TOO_MANY_ARGS;
    1590:	04 97       	sbiw	r24, 0x04	; 4
    1592:	84 f5       	brge	.+96     	; 0x15f4 <Cmd_set_temp+0x72>
	if (argv[1] > "3" || argv[1] < "0") return CMDLINE_INVALID_ARG;
    1594:	fb 01       	movw	r30, r22
    1596:	82 81       	ldd	r24, Z+2	; 0x02
    1598:	93 81       	ldd	r25, Z+3	; 0x03
    159a:	f2 e0       	ldi	r31, 0x02	; 2
    159c:	81 31       	cpi	r24, 0x11	; 17
    159e:	9f 07       	cpc	r25, r31
    15a0:	09 f0       	breq	.+2      	; 0x15a4 <Cmd_set_temp+0x22>
    15a2:	58 f5       	brcc	.+86     	; 0x15fa <Cmd_set_temp+0x78>
    15a4:	28 e0       	ldi	r18, 0x08	; 8
    15a6:	83 34       	cpi	r24, 0x43	; 67
    15a8:	92 07       	cpc	r25, r18
    15aa:	50 f1       	brcs	.+84     	; 0x1600 <Cmd_set_temp+0x7e>
    15ac:	eb 01       	movw	r28, r22
	uint8_t channel = atoi(argv[1]);
    15ae:	0e 94 61 29 	call	0x52c2	; 0x52c2 <atoi>
    15b2:	8c 01       	movw	r16, r24
	uint16_t	_setpoint = atoi(argv[2]);
    15b4:	8c 81       	ldd	r24, Y+4	; 0x04
    15b6:	9d 81       	ldd	r25, Y+5	; 0x05
    15b8:	0e 94 61 29 	call	0x52c2	; 0x52c2 <atoi>
    15bc:	c8 2f       	mov	r28, r24
    15be:	d9 2f       	mov	r29, r25
	temperature_set_point(_setpoint, channel);
    15c0:	60 2f       	mov	r22, r16
    15c2:	0e 94 1f 14 	call	0x283e	; 0x283e <temperature_set_point>
	UARTprintf("Channel %d set point: %d \r\n",channel, _setpoint);
    15c6:	df 93       	push	r29
    15c8:	cf 93       	push	r28
    15ca:	11 27       	eor	r17, r17
    15cc:	1f 93       	push	r17
    15ce:	0f 93       	push	r16
    15d0:	83 e1       	ldi	r24, 0x13	; 19
    15d2:	92 e0       	ldi	r25, 0x02	; 2
    15d4:	9f 93       	push	r25
    15d6:	8f 93       	push	r24
    15d8:	0e 94 c2 1e 	call	0x3d84	; 0x3d84 <UARTprintf>
	return CMDLINE_OK;
    15dc:	0f 90       	pop	r0
    15de:	0f 90       	pop	r0
    15e0:	0f 90       	pop	r0
    15e2:	0f 90       	pop	r0
    15e4:	0f 90       	pop	r0
    15e6:	0f 90       	pop	r0
    15e8:	80 e0       	ldi	r24, 0x00	; 0
    15ea:	90 e0       	ldi	r25, 0x00	; 0
    15ec:	0b c0       	rjmp	.+22     	; 0x1604 <Cmd_set_temp+0x82>
//
//*****************************************************************************
int
Cmd_set_temp(int argc, char *argv[]) 
{
	if (argc < 3) return CMDLINE_TOO_FEW_ARGS;
    15ee:	83 e0       	ldi	r24, 0x03	; 3
    15f0:	90 e0       	ldi	r25, 0x00	; 0
    15f2:	08 c0       	rjmp	.+16     	; 0x1604 <Cmd_set_temp+0x82>
	if (argc >3) return CMDLINE_TOO_MANY_ARGS;
    15f4:	82 e0       	ldi	r24, 0x02	; 2
    15f6:	90 e0       	ldi	r25, 0x00	; 0
    15f8:	05 c0       	rjmp	.+10     	; 0x1604 <Cmd_set_temp+0x82>
	if (argv[1] > "3" || argv[1] < "0") return CMDLINE_INVALID_ARG;
    15fa:	84 e0       	ldi	r24, 0x04	; 4
    15fc:	90 e0       	ldi	r25, 0x00	; 0
    15fe:	02 c0       	rjmp	.+4      	; 0x1604 <Cmd_set_temp+0x82>
    1600:	84 e0       	ldi	r24, 0x04	; 4
    1602:	90 e0       	ldi	r25, 0x00	; 0
	uint8_t channel = atoi(argv[1]);
	uint16_t	_setpoint = atoi(argv[2]);
	temperature_set_point(_setpoint, channel);
	UARTprintf("Channel %d set point: %d \r\n",channel, _setpoint);
	return CMDLINE_OK;
}
    1604:	df 91       	pop	r29
    1606:	cf 91       	pop	r28
    1608:	1f 91       	pop	r17
    160a:	0f 91       	pop	r16
    160c:	08 95       	ret

0000160e <Cmd_get_temp>:
// Get the temperature from NTC / onewire / bmp390
//
//*****************************************************************************
int
Cmd_get_temp(int argc, char *argv[])
{
    160e:	cf 92       	push	r12
    1610:	df 92       	push	r13
    1612:	ef 92       	push	r14
    1614:	ff 92       	push	r15
    1616:	0f 93       	push	r16
    1618:	1f 93       	push	r17
    161a:	cf 93       	push	r28
    161c:	df 93       	push	r29
    161e:	00 d0       	rcall	.+0      	; 0x1620 <Cmd_get_temp+0x12>
    1620:	00 d0       	rcall	.+0      	; 0x1622 <Cmd_get_temp+0x14>
    1622:	1f 92       	push	r1
    1624:	cd b7       	in	r28, 0x3d	; 61
    1626:	de b7       	in	r29, 0x3e	; 62
    1628:	8c 01       	movw	r16, r24
    162a:	7b 01       	movw	r14, r22
	// 		if (channel > 2)	return CMDLINE_INVALID_ARG;
	// 	 UARTprintf("Temperature from NTC channel %d is %d \r\n",channel, temperature_get_NTC(channel));
	// 	 return CMDLINE_OK;


	if (!strcmp(argv[1], "bmp390"))
    162c:	fb 01       	movw	r30, r22
    162e:	c2 80       	ldd	r12, Z+2	; 0x02
    1630:	d3 80       	ldd	r13, Z+3	; 0x03
    1632:	6f e2       	ldi	r22, 0x2F	; 47
    1634:	72 e0       	ldi	r23, 0x02	; 2
    1636:	c6 01       	movw	r24, r12
    1638:	0e 94 62 2a 	call	0x54c4	; 0x54c4 <strcmp>
    163c:	89 2b       	or	r24, r25
    163e:	59 f5       	brne	.+86     	; 0x1696 <Cmd_get_temp+0x88>
	{
		if (argc >2) return CMDLINE_TOO_MANY_ARGS;
    1640:	03 30       	cpi	r16, 0x03	; 3
    1642:	11 05       	cpc	r17, r1
    1644:	1c f0       	brlt	.+6      	; 0x164c <Cmd_get_temp+0x3e>
    1646:	02 e0       	ldi	r16, 0x02	; 2
    1648:	10 e0       	ldi	r17, 0x00	; 0
    164a:	a5 c0       	rjmp	.+330    	; 0x1796 <Cmd_get_temp+0x188>
		char buffer[5];
		sprintf(buffer, "%.0f", (float)temperature_get_bmp390());
    164c:	0e 94 3a 14 	call	0x2874	; 0x2874 <temperature_get_bmp390>
    1650:	bc 01       	movw	r22, r24
    1652:	99 0f       	add	r25, r25
    1654:	88 0b       	sbc	r24, r24
    1656:	99 0b       	sbc	r25, r25
    1658:	0e 94 62 24 	call	0x48c4	; 0x48c4 <__floatsisf>
    165c:	9f 93       	push	r25
    165e:	8f 93       	push	r24
    1660:	7f 93       	push	r23
    1662:	6f 93       	push	r22
    1664:	86 e3       	ldi	r24, 0x36	; 54
    1666:	92 e0       	ldi	r25, 0x02	; 2
    1668:	9f 93       	push	r25
    166a:	8f 93       	push	r24
    166c:	8e 01       	movw	r16, r28
    166e:	0f 5f       	subi	r16, 0xFF	; 255
    1670:	1f 4f       	sbci	r17, 0xFF	; 255
    1672:	1f 93       	push	r17
    1674:	0f 93       	push	r16
    1676:	0e 94 ba 2a 	call	0x5574	; 0x5574 <sprintf>
		UARTprintf("Temp of BMP490: %s \r\n", buffer);
    167a:	1f 93       	push	r17
    167c:	0f 93       	push	r16
    167e:	8b e3       	ldi	r24, 0x3B	; 59
    1680:	92 e0       	ldi	r25, 0x02	; 2
    1682:	9f 93       	push	r25
    1684:	8f 93       	push	r24
    1686:	0e 94 c2 1e 	call	0x3d84	; 0x3d84 <UARTprintf>
			UARTprintf("Temp 1-Wire channel %d: %s \r\n", channel, buffer);
		}
		else return CMDLINE_INVALID_ARG;
		return CMDLINE_OK;
	}
}
    168a:	0f b6       	in	r0, 0x3f	; 63
    168c:	f8 94       	cli
    168e:	de bf       	out	0x3e, r29	; 62
    1690:	0f be       	out	0x3f, r0	; 63
    1692:	cd bf       	out	0x3d, r28	; 61
    1694:	82 c0       	rjmp	.+260    	; 0x179a <Cmd_get_temp+0x18c>
		sprintf(buffer, "%.0f", (float)temperature_get_bmp390());
		UARTprintf("Temp of BMP490: %s \r\n", buffer);
	}
	else
	{
		if (argc < 3) return CMDLINE_TOO_FEW_ARGS;
    1696:	03 30       	cpi	r16, 0x03	; 3
    1698:	11 05       	cpc	r17, r1
    169a:	0c f4       	brge	.+2      	; 0x169e <Cmd_get_temp+0x90>
    169c:	71 c0       	rjmp	.+226    	; 0x1780 <Cmd_get_temp+0x172>
		if (argc >3) return CMDLINE_TOO_MANY_ARGS;
    169e:	04 30       	cpi	r16, 0x04	; 4
    16a0:	11 05       	cpc	r17, r1
    16a2:	0c f0       	brlt	.+2      	; 0x16a6 <Cmd_get_temp+0x98>
    16a4:	70 c0       	rjmp	.+224    	; 0x1786 <Cmd_get_temp+0x178>
		uint8_t channel = atoi(argv[2]);
    16a6:	f7 01       	movw	r30, r14
    16a8:	84 81       	ldd	r24, Z+4	; 0x04
    16aa:	95 81       	ldd	r25, Z+5	; 0x05
    16ac:	0e 94 61 29 	call	0x52c2	; 0x52c2 <atoi>
    16b0:	7c 01       	movw	r14, r24
		if (channel > (MAX_CHANNEL -1)) return CMDLINE_INVALID_ARG;
    16b2:	f1 e0       	ldi	r31, 0x01	; 1
    16b4:	f8 17       	cp	r31, r24
    16b6:	08 f4       	brcc	.+2      	; 0x16ba <Cmd_get_temp+0xac>
    16b8:	69 c0       	rjmp	.+210    	; 0x178c <Cmd_get_temp+0x17e>
		if (!strcmp(argv[1], "NTC"))
    16ba:	61 e5       	ldi	r22, 0x51	; 81
    16bc:	72 e0       	ldi	r23, 0x02	; 2
    16be:	c6 01       	movw	r24, r12
    16c0:	0e 94 62 2a 	call	0x54c4	; 0x54c4 <strcmp>
    16c4:	8c 01       	movw	r16, r24
    16c6:	89 2b       	or	r24, r25
    16c8:	51 f5       	brne	.+84     	; 0x171e <Cmd_get_temp+0x110>
		{
			char buffer[5];
			sprintf(buffer, "%.0f", (float)temperature_get_NTC(channel));
    16ca:	8e 2d       	mov	r24, r14
    16cc:	0e 94 28 14 	call	0x2850	; 0x2850 <temperature_get_NTC>
    16d0:	bc 01       	movw	r22, r24
    16d2:	99 0f       	add	r25, r25
    16d4:	88 0b       	sbc	r24, r24
    16d6:	99 0b       	sbc	r25, r25
    16d8:	0e 94 62 24 	call	0x48c4	; 0x48c4 <__floatsisf>
    16dc:	9f 93       	push	r25
    16de:	8f 93       	push	r24
    16e0:	7f 93       	push	r23
    16e2:	6f 93       	push	r22
    16e4:	86 e3       	ldi	r24, 0x36	; 54
    16e6:	92 e0       	ldi	r25, 0x02	; 2
    16e8:	9f 93       	push	r25
    16ea:	8f 93       	push	r24
    16ec:	9e 01       	movw	r18, r28
    16ee:	2f 5f       	subi	r18, 0xFF	; 255
    16f0:	3f 4f       	sbci	r19, 0xFF	; 255
    16f2:	69 01       	movw	r12, r18
    16f4:	3f 93       	push	r19
    16f6:	2f 93       	push	r18
    16f8:	0e 94 ba 2a 	call	0x5574	; 0x5574 <sprintf>
			UARTprintf("NTC[%d]: %s \r\n", channel, buffer);
    16fc:	df 92       	push	r13
    16fe:	cf 92       	push	r12
    1700:	ff 24       	eor	r15, r15
    1702:	ff 92       	push	r15
    1704:	ef 92       	push	r14
    1706:	85 e5       	ldi	r24, 0x55	; 85
    1708:	92 e0       	ldi	r25, 0x02	; 2
    170a:	9f 93       	push	r25
    170c:	8f 93       	push	r24
    170e:	0e 94 c2 1e 	call	0x3d84	; 0x3d84 <UARTprintf>
    1712:	0f b6       	in	r0, 0x3f	; 63
    1714:	f8 94       	cli
    1716:	de bf       	out	0x3e, r29	; 62
    1718:	0f be       	out	0x3f, r0	; 63
    171a:	cd bf       	out	0x3d, r28	; 61
    171c:	3c c0       	rjmp	.+120    	; 0x1796 <Cmd_get_temp+0x188>
		}
		else if (!strcmp(argv[1], "onewire"))
    171e:	64 e6       	ldi	r22, 0x64	; 100
    1720:	72 e0       	ldi	r23, 0x02	; 2
    1722:	c6 01       	movw	r24, r12
    1724:	0e 94 62 2a 	call	0x54c4	; 0x54c4 <strcmp>
    1728:	8c 01       	movw	r16, r24
    172a:	89 2b       	or	r24, r25
    172c:	91 f5       	brne	.+100    	; 0x1792 <Cmd_get_temp+0x184>
		{
			char buffer[5];
			sprintf(buffer, "%.0f", (float)temperature_get_onewire(channel));
    172e:	8e 2d       	mov	r24, r14
    1730:	0e 94 31 14 	call	0x2862	; 0x2862 <temperature_get_onewire>
    1734:	bc 01       	movw	r22, r24
    1736:	99 0f       	add	r25, r25
    1738:	88 0b       	sbc	r24, r24
    173a:	99 0b       	sbc	r25, r25
    173c:	0e 94 62 24 	call	0x48c4	; 0x48c4 <__floatsisf>
    1740:	9f 93       	push	r25
    1742:	8f 93       	push	r24
    1744:	7f 93       	push	r23
    1746:	6f 93       	push	r22
    1748:	86 e3       	ldi	r24, 0x36	; 54
    174a:	92 e0       	ldi	r25, 0x02	; 2
    174c:	9f 93       	push	r25
    174e:	8f 93       	push	r24
    1750:	fe 01       	movw	r30, r28
    1752:	31 96       	adiw	r30, 0x01	; 1
    1754:	6f 01       	movw	r12, r30
    1756:	ff 93       	push	r31
    1758:	ef 93       	push	r30
    175a:	0e 94 ba 2a 	call	0x5574	; 0x5574 <sprintf>
			UARTprintf("Temp 1-Wire channel %d: %s \r\n", channel, buffer);
    175e:	df 92       	push	r13
    1760:	cf 92       	push	r12
    1762:	ff 24       	eor	r15, r15
    1764:	ff 92       	push	r15
    1766:	ef 92       	push	r14
    1768:	8c e6       	ldi	r24, 0x6C	; 108
    176a:	92 e0       	ldi	r25, 0x02	; 2
    176c:	9f 93       	push	r25
    176e:	8f 93       	push	r24
    1770:	0e 94 c2 1e 	call	0x3d84	; 0x3d84 <UARTprintf>
    1774:	0f b6       	in	r0, 0x3f	; 63
    1776:	f8 94       	cli
    1778:	de bf       	out	0x3e, r29	; 62
    177a:	0f be       	out	0x3f, r0	; 63
    177c:	cd bf       	out	0x3d, r28	; 61
    177e:	0b c0       	rjmp	.+22     	; 0x1796 <Cmd_get_temp+0x188>
		sprintf(buffer, "%.0f", (float)temperature_get_bmp390());
		UARTprintf("Temp of BMP490: %s \r\n", buffer);
	}
	else
	{
		if (argc < 3) return CMDLINE_TOO_FEW_ARGS;
    1780:	03 e0       	ldi	r16, 0x03	; 3
    1782:	10 e0       	ldi	r17, 0x00	; 0
    1784:	08 c0       	rjmp	.+16     	; 0x1796 <Cmd_get_temp+0x188>
		if (argc >3) return CMDLINE_TOO_MANY_ARGS;
    1786:	02 e0       	ldi	r16, 0x02	; 2
    1788:	10 e0       	ldi	r17, 0x00	; 0
    178a:	05 c0       	rjmp	.+10     	; 0x1796 <Cmd_get_temp+0x188>
		uint8_t channel = atoi(argv[2]);
		if (channel > (MAX_CHANNEL -1)) return CMDLINE_INVALID_ARG;
    178c:	04 e0       	ldi	r16, 0x04	; 4
    178e:	10 e0       	ldi	r17, 0x00	; 0
    1790:	02 c0       	rjmp	.+4      	; 0x1796 <Cmd_get_temp+0x188>
		{
			char buffer[5];
			sprintf(buffer, "%.0f", (float)temperature_get_onewire(channel));
			UARTprintf("Temp 1-Wire channel %d: %s \r\n", channel, buffer);
		}
		else return CMDLINE_INVALID_ARG;
    1792:	04 e0       	ldi	r16, 0x04	; 4
    1794:	10 e0       	ldi	r17, 0x00	; 0
    1796:	80 2f       	mov	r24, r16
    1798:	91 2f       	mov	r25, r17
		return CMDLINE_OK;
	}
}
    179a:	0f 90       	pop	r0
    179c:	0f 90       	pop	r0
    179e:	0f 90       	pop	r0
    17a0:	0f 90       	pop	r0
    17a2:	0f 90       	pop	r0
    17a4:	df 91       	pop	r29
    17a6:	cf 91       	pop	r28
    17a8:	1f 91       	pop	r17
    17aa:	0f 91       	pop	r16
    17ac:	ff 90       	pop	r15
    17ae:	ef 90       	pop	r14
    17b0:	df 90       	pop	r13
    17b2:	cf 90       	pop	r12
    17b4:	08 95       	ret

000017b6 <Cmd_tec_set_auto_voltage>:
// Format: tec_set_auto_voltage channel auto_voltage
//
//*****************************************************************************
int
Cmd_tec_set_auto_voltage(int argc, char *argv[]) 
{
    17b6:	0f 93       	push	r16
    17b8:	1f 93       	push	r17
    17ba:	cf 93       	push	r28
    17bc:	df 93       	push	r29
	  if (argc < 3) return CMDLINE_TOO_FEW_ARGS;
    17be:	83 30       	cpi	r24, 0x03	; 3
    17c0:	91 05       	cpc	r25, r1
    17c2:	4c f1       	brlt	.+82     	; 0x1816 <Cmd_tec_set_auto_voltage+0x60>
	  if (argc >3) return CMDLINE_TOO_MANY_ARGS;
    17c4:	04 97       	sbiw	r24, 0x04	; 4
    17c6:	54 f5       	brge	.+84     	; 0x181c <Cmd_tec_set_auto_voltage+0x66>
    17c8:	eb 01       	movw	r28, r22
	  uint8_t channel = atoi(argv[1]);
    17ca:	8a 81       	ldd	r24, Y+2	; 0x02
    17cc:	9b 81       	ldd	r25, Y+3	; 0x03
    17ce:	0e 94 61 29 	call	0x52c2	; 0x52c2 <atoi>
    17d2:	8c 01       	movw	r16, r24
	  if (channel > 3)	return CMDLINE_INVALID_ARG;
    17d4:	84 30       	cpi	r24, 0x04	; 4
    17d6:	28 f5       	brcc	.+74     	; 0x1822 <Cmd_tec_set_auto_voltage+0x6c>
	  
	uint16_t	_voltage = atoi(argv[2]);
    17d8:	8c 81       	ldd	r24, Y+4	; 0x04
    17da:	9d 81       	ldd	r25, Y+5	; 0x05
    17dc:	0e 94 61 29 	call	0x52c2	; 0x52c2 <atoi>
    17e0:	c8 2f       	mov	r28, r24
    17e2:	d9 2f       	mov	r29, r25
	temperature_set_auto_voltage( channel, _voltage);
    17e4:	68 2f       	mov	r22, r24
    17e6:	79 2f       	mov	r23, r25
    17e8:	80 2f       	mov	r24, r16
    17ea:	0e 94 bf 16 	call	0x2d7e	; 0x2d7e <temperature_set_auto_voltage>
	UARTprintf("Channel %d auto voltage: %d \r\n",channel, _voltage);
    17ee:	df 93       	push	r29
    17f0:	cf 93       	push	r28
    17f2:	11 27       	eor	r17, r17
    17f4:	1f 93       	push	r17
    17f6:	0f 93       	push	r16
    17f8:	8a e8       	ldi	r24, 0x8A	; 138
    17fa:	92 e0       	ldi	r25, 0x02	; 2
    17fc:	9f 93       	push	r25
    17fe:	8f 93       	push	r24
    1800:	0e 94 c2 1e 	call	0x3d84	; 0x3d84 <UARTprintf>
	return CMDLINE_OK;
    1804:	0f 90       	pop	r0
    1806:	0f 90       	pop	r0
    1808:	0f 90       	pop	r0
    180a:	0f 90       	pop	r0
    180c:	0f 90       	pop	r0
    180e:	0f 90       	pop	r0
    1810:	80 e0       	ldi	r24, 0x00	; 0
    1812:	90 e0       	ldi	r25, 0x00	; 0
    1814:	08 c0       	rjmp	.+16     	; 0x1826 <Cmd_tec_set_auto_voltage+0x70>
//
//*****************************************************************************
int
Cmd_tec_set_auto_voltage(int argc, char *argv[]) 
{
	  if (argc < 3) return CMDLINE_TOO_FEW_ARGS;
    1816:	83 e0       	ldi	r24, 0x03	; 3
    1818:	90 e0       	ldi	r25, 0x00	; 0
    181a:	05 c0       	rjmp	.+10     	; 0x1826 <Cmd_tec_set_auto_voltage+0x70>
	  if (argc >3) return CMDLINE_TOO_MANY_ARGS;
    181c:	82 e0       	ldi	r24, 0x02	; 2
    181e:	90 e0       	ldi	r25, 0x00	; 0
    1820:	02 c0       	rjmp	.+4      	; 0x1826 <Cmd_tec_set_auto_voltage+0x70>
	  uint8_t channel = atoi(argv[1]);
	  if (channel > 3)	return CMDLINE_INVALID_ARG;
    1822:	84 e0       	ldi	r24, 0x04	; 4
    1824:	90 e0       	ldi	r25, 0x00	; 0
	  
	uint16_t	_voltage = atoi(argv[2]);
	temperature_set_auto_voltage( channel, _voltage);
	UARTprintf("Channel %d auto voltage: %d \r\n",channel, _voltage);
	return CMDLINE_OK;
}
    1826:	df 91       	pop	r29
    1828:	cf 91       	pop	r28
    182a:	1f 91       	pop	r17
    182c:	0f 91       	pop	r16
    182e:	08 95       	ret

00001830 <Cmd_TEC_enable>:
//
//*****************************************************************************
int
Cmd_TEC_enable(int argc, char *argv[])
{
		  if (argc < 2) return CMDLINE_TOO_FEW_ARGS;
    1830:	82 30       	cpi	r24, 0x02	; 2
    1832:	91 05       	cpc	r25, r1
    1834:	74 f0       	brlt	.+28     	; 0x1852 <Cmd_TEC_enable+0x22>
		  if (argc >2) return CMDLINE_TOO_MANY_ARGS;
    1836:	03 97       	sbiw	r24, 0x03	; 3
    1838:	7c f4       	brge	.+30     	; 0x1858 <Cmd_TEC_enable+0x28>
    183a:	fb 01       	movw	r30, r22
		  uint8_t channel = atoi(argv[1]);
    183c:	82 81       	ldd	r24, Z+2	; 0x02
    183e:	93 81       	ldd	r25, Z+3	; 0x03
    1840:	0e 94 61 29 	call	0x52c2	; 0x52c2 <atoi>
		  if (channel > 4)	return CMDLINE_INVALID_ARG;
    1844:	85 30       	cpi	r24, 0x05	; 5
    1846:	58 f4       	brcc	.+22     	; 0x185e <Cmd_TEC_enable+0x2e>
		  temperature_enable_TEC(channel);
    1848:	0e 94 3f 14 	call	0x287e	; 0x287e <temperature_enable_TEC>
		  return CMDLINE_OK;
    184c:	80 e0       	ldi	r24, 0x00	; 0
    184e:	90 e0       	ldi	r25, 0x00	; 0
    1850:	08 95       	ret
//
//*****************************************************************************
int
Cmd_TEC_enable(int argc, char *argv[])
{
		  if (argc < 2) return CMDLINE_TOO_FEW_ARGS;
    1852:	83 e0       	ldi	r24, 0x03	; 3
    1854:	90 e0       	ldi	r25, 0x00	; 0
    1856:	08 95       	ret
		  if (argc >2) return CMDLINE_TOO_MANY_ARGS;
    1858:	82 e0       	ldi	r24, 0x02	; 2
    185a:	90 e0       	ldi	r25, 0x00	; 0
    185c:	08 95       	ret
		  uint8_t channel = atoi(argv[1]);
		  if (channel > 4)	return CMDLINE_INVALID_ARG;
    185e:	84 e0       	ldi	r24, 0x04	; 4
    1860:	90 e0       	ldi	r25, 0x00	; 0
		  temperature_enable_TEC(channel);
		  return CMDLINE_OK;
}
    1862:	08 95       	ret

00001864 <Cmd_TEC_disable>:
// Format: TEC_dis channel 
//
//*****************************************************************************
int
Cmd_TEC_disable(int argc, char *argv[])
{
    1864:	0f 93       	push	r16
    1866:	1f 93       	push	r17
    1868:	cf 93       	push	r28
    186a:	df 93       	push	r29
		  if (argc < 2) return CMDLINE_TOO_FEW_ARGS;
    186c:	82 30       	cpi	r24, 0x02	; 2
    186e:	91 05       	cpc	r25, r1
    1870:	4c f1       	brlt	.+82     	; 0x18c4 <Cmd_TEC_disable+0x60>
		  if (argc >2) return CMDLINE_TOO_MANY_ARGS;
    1872:	03 97       	sbiw	r24, 0x03	; 3
    1874:	54 f5       	brge	.+84     	; 0x18ca <Cmd_TEC_disable+0x66>
    1876:	fb 01       	movw	r30, r22
		  if (!strcmp(argv[1], "a"))	
    1878:	02 81       	ldd	r16, Z+2	; 0x02
    187a:	13 81       	ldd	r17, Z+3	; 0x03
    187c:	69 eb       	ldi	r22, 0xB9	; 185
    187e:	74 e0       	ldi	r23, 0x04	; 4
    1880:	c8 01       	movw	r24, r16
    1882:	0e 94 62 2a 	call	0x54c4	; 0x54c4 <strcmp>
    1886:	ec 01       	movw	r28, r24
    1888:	89 2b       	or	r24, r25
    188a:	91 f4       	brne	.+36     	; 0x18b0 <Cmd_TEC_disable+0x4c>
		  {
			  for (uint8_t udx=0; udx < 3; udx++)	 temperature_disable_TEC(udx);
    188c:	80 e0       	ldi	r24, 0x00	; 0
    188e:	0e 94 52 14 	call	0x28a4	; 0x28a4 <temperature_disable_TEC>
    1892:	81 e0       	ldi	r24, 0x01	; 1
    1894:	0e 94 52 14 	call	0x28a4	; 0x28a4 <temperature_disable_TEC>
    1898:	82 e0       	ldi	r24, 0x02	; 2
    189a:	0e 94 52 14 	call	0x28a4	; 0x28a4 <temperature_disable_TEC>
			  UARTprintf("disabled all channel\r\n");
    189e:	89 ea       	ldi	r24, 0xA9	; 169
    18a0:	92 e0       	ldi	r25, 0x02	; 2
    18a2:	9f 93       	push	r25
    18a4:	8f 93       	push	r24
    18a6:	0e 94 c2 1e 	call	0x3d84	; 0x3d84 <UARTprintf>
			  return CMDLINE_OK;
    18aa:	0f 90       	pop	r0
    18ac:	0f 90       	pop	r0
    18ae:	12 c0       	rjmp	.+36     	; 0x18d4 <Cmd_TEC_disable+0x70>
		  }
		  uint8_t channel = atoi(argv[1]);
    18b0:	c8 01       	movw	r24, r16
    18b2:	0e 94 61 29 	call	0x52c2	; 0x52c2 <atoi>
		  if (channel > 4)	return CMDLINE_INVALID_ARG;
    18b6:	85 30       	cpi	r24, 0x05	; 5
    18b8:	58 f4       	brcc	.+22     	; 0x18d0 <Cmd_TEC_disable+0x6c>
		  temperature_disable_TEC(channel);
    18ba:	0e 94 52 14 	call	0x28a4	; 0x28a4 <temperature_disable_TEC>
		  return CMDLINE_OK;
    18be:	c0 e0       	ldi	r28, 0x00	; 0
    18c0:	d0 e0       	ldi	r29, 0x00	; 0
    18c2:	08 c0       	rjmp	.+16     	; 0x18d4 <Cmd_TEC_disable+0x70>
//
//*****************************************************************************
int
Cmd_TEC_disable(int argc, char *argv[])
{
		  if (argc < 2) return CMDLINE_TOO_FEW_ARGS;
    18c4:	c3 e0       	ldi	r28, 0x03	; 3
    18c6:	d0 e0       	ldi	r29, 0x00	; 0
    18c8:	05 c0       	rjmp	.+10     	; 0x18d4 <Cmd_TEC_disable+0x70>
		  if (argc >2) return CMDLINE_TOO_MANY_ARGS;
    18ca:	c2 e0       	ldi	r28, 0x02	; 2
    18cc:	d0 e0       	ldi	r29, 0x00	; 0
    18ce:	02 c0       	rjmp	.+4      	; 0x18d4 <Cmd_TEC_disable+0x70>
			  for (uint8_t udx=0; udx < 3; udx++)	 temperature_disable_TEC(udx);
			  UARTprintf("disabled all channel\r\n");
			  return CMDLINE_OK;
		  }
		  uint8_t channel = atoi(argv[1]);
		  if (channel > 4)	return CMDLINE_INVALID_ARG;
    18d0:	c4 e0       	ldi	r28, 0x04	; 4
    18d2:	d0 e0       	ldi	r29, 0x00	; 0
		  temperature_disable_TEC(channel);
		  return CMDLINE_OK;
}
    18d4:	ce 01       	movw	r24, r28
    18d6:	df 91       	pop	r29
    18d8:	cf 91       	pop	r28
    18da:	1f 91       	pop	r17
    18dc:	0f 91       	pop	r16
    18de:	08 95       	ret

000018e0 <Cmd_TEC_enable_auto_control>:
// Format: TEC_ena_control channel 
//
//*****************************************************************************
int
Cmd_TEC_enable_auto_control(int argc, char *argv[])
{
    18e0:	cf 93       	push	r28
		  if (argc < 2) return CMDLINE_TOO_FEW_ARGS;
    18e2:	82 30       	cpi	r24, 0x02	; 2
    18e4:	91 05       	cpc	r25, r1
    18e6:	c4 f0       	brlt	.+48     	; 0x1918 <Cmd_TEC_enable_auto_control+0x38>
		  if (argc >2) return CMDLINE_TOO_MANY_ARGS;
    18e8:	03 97       	sbiw	r24, 0x03	; 3
    18ea:	cc f4       	brge	.+50     	; 0x191e <Cmd_TEC_enable_auto_control+0x3e>
    18ec:	fb 01       	movw	r30, r22
		  uint8_t channel = atoi(argv[1]);
    18ee:	82 81       	ldd	r24, Z+2	; 0x02
    18f0:	93 81       	ldd	r25, Z+3	; 0x03
    18f2:	0e 94 61 29 	call	0x52c2	; 0x52c2 <atoi>
		  if (channel > 2)	return CMDLINE_INVALID_ARG;
    18f6:	83 30       	cpi	r24, 0x03	; 3
    18f8:	a8 f4       	brcc	.+42     	; 0x1924 <Cmd_TEC_enable_auto_control+0x44>
		  temperature_enable_auto_control_TEC(channel << 1);
    18fa:	c8 2f       	mov	r28, r24
    18fc:	cc 0f       	add	r28, r28
    18fe:	8c 2f       	mov	r24, r28
    1900:	0e 94 8a 16 	call	0x2d14	; 0x2d14 <temperature_enable_auto_control_TEC>
		  temperature_disable_TEC(channel*2);
    1904:	8c 2f       	mov	r24, r28
    1906:	0e 94 52 14 	call	0x28a4	; 0x28a4 <temperature_disable_TEC>
		  temperature_disable_TEC(channel*2 + 1);
    190a:	81 e0       	ldi	r24, 0x01	; 1
    190c:	8c 0f       	add	r24, r28
    190e:	0e 94 52 14 	call	0x28a4	; 0x28a4 <temperature_disable_TEC>
		  return CMDLINE_OK;
    1912:	80 e0       	ldi	r24, 0x00	; 0
    1914:	90 e0       	ldi	r25, 0x00	; 0
    1916:	08 c0       	rjmp	.+16     	; 0x1928 <Cmd_TEC_enable_auto_control+0x48>
//
//*****************************************************************************
int
Cmd_TEC_enable_auto_control(int argc, char *argv[])
{
		  if (argc < 2) return CMDLINE_TOO_FEW_ARGS;
    1918:	83 e0       	ldi	r24, 0x03	; 3
    191a:	90 e0       	ldi	r25, 0x00	; 0
    191c:	05 c0       	rjmp	.+10     	; 0x1928 <Cmd_TEC_enable_auto_control+0x48>
		  if (argc >2) return CMDLINE_TOO_MANY_ARGS;
    191e:	82 e0       	ldi	r24, 0x02	; 2
    1920:	90 e0       	ldi	r25, 0x00	; 0
    1922:	02 c0       	rjmp	.+4      	; 0x1928 <Cmd_TEC_enable_auto_control+0x48>
		  uint8_t channel = atoi(argv[1]);
		  if (channel > 2)	return CMDLINE_INVALID_ARG;
    1924:	84 e0       	ldi	r24, 0x04	; 4
    1926:	90 e0       	ldi	r25, 0x00	; 0
		  temperature_enable_auto_control_TEC(channel << 1);
		  temperature_disable_TEC(channel*2);
		  temperature_disable_TEC(channel*2 + 1);
		  return CMDLINE_OK;
}
    1928:	cf 91       	pop	r28
    192a:	08 95       	ret

0000192c <Cmd_TEC_disable_auto_control>:
//
//*****************************************************************************
int
Cmd_TEC_disable_auto_control(int argc, char *argv[])
{
		  if (argc < 2) return CMDLINE_TOO_FEW_ARGS;
    192c:	82 30       	cpi	r24, 0x02	; 2
    192e:	91 05       	cpc	r25, r1
    1930:	7c f0       	brlt	.+30     	; 0x1950 <Cmd_TEC_disable_auto_control+0x24>
		  if (argc >2) return CMDLINE_TOO_MANY_ARGS;
    1932:	03 97       	sbiw	r24, 0x03	; 3
    1934:	84 f4       	brge	.+32     	; 0x1956 <Cmd_TEC_disable_auto_control+0x2a>
    1936:	fb 01       	movw	r30, r22
		  uint8_t channel = atoi(argv[1]);
    1938:	82 81       	ldd	r24, Z+2	; 0x02
    193a:	93 81       	ldd	r25, Z+3	; 0x03
    193c:	0e 94 61 29 	call	0x52c2	; 0x52c2 <atoi>
		  if (channel > 2)	return CMDLINE_INVALID_ARG;
    1940:	83 30       	cpi	r24, 0x03	; 3
    1942:	60 f4       	brcc	.+24     	; 0x195c <Cmd_TEC_disable_auto_control+0x30>
		  temperature_disable_auto_control_TEC(channel << 1);
    1944:	88 0f       	add	r24, r24
    1946:	0e 94 66 14 	call	0x28cc	; 0x28cc <temperature_disable_auto_control_TEC>
		  
		  return CMDLINE_OK;
    194a:	80 e0       	ldi	r24, 0x00	; 0
    194c:	90 e0       	ldi	r25, 0x00	; 0
    194e:	08 95       	ret
//
//*****************************************************************************
int
Cmd_TEC_disable_auto_control(int argc, char *argv[])
{
		  if (argc < 2) return CMDLINE_TOO_FEW_ARGS;
    1950:	83 e0       	ldi	r24, 0x03	; 3
    1952:	90 e0       	ldi	r25, 0x00	; 0
    1954:	08 95       	ret
		  if (argc >2) return CMDLINE_TOO_MANY_ARGS;
    1956:	82 e0       	ldi	r24, 0x02	; 2
    1958:	90 e0       	ldi	r25, 0x00	; 0
    195a:	08 95       	ret
		  uint8_t channel = atoi(argv[1]);
		  if (channel > 2)	return CMDLINE_INVALID_ARG;
    195c:	84 e0       	ldi	r24, 0x04	; 4
    195e:	90 e0       	ldi	r25, 0x00	; 0
		  temperature_disable_auto_control_TEC(channel << 1);
		  
		  return CMDLINE_OK;
}
    1960:	08 95       	ret

00001962 <Cmd_tec_get_status>:

int
Cmd_tec_get_status(int argc, char *argv[])
{

	if (argc >1) return CMDLINE_TOO_MANY_ARGS;
    1962:	02 97       	sbiw	r24, 0x02	; 2
    1964:	2c f4       	brge	.+10     	; 0x1970 <Cmd_tec_get_status+0xe>
	temperature_get_status();
    1966:	0e 94 c8 16 	call	0x2d90	; 0x2d90 <temperature_get_status>
	return CMDLINE_OK;
    196a:	80 e0       	ldi	r24, 0x00	; 0
    196c:	90 e0       	ldi	r25, 0x00	; 0
    196e:	08 95       	ret

int
Cmd_tec_get_status(int argc, char *argv[])
{

	if (argc >1) return CMDLINE_TOO_MANY_ARGS;
    1970:	82 e0       	ldi	r24, 0x02	; 2
    1972:	90 e0       	ldi	r25, 0x00	; 0
	temperature_get_status();
	return CMDLINE_OK;
	
}
    1974:	08 95       	ret

00001976 <Cmd_TEC_log_enable>:

int
Cmd_TEC_log_enable(int argc, char *argv[])
{

	if (argc >1) return CMDLINE_TOO_MANY_ARGS;
    1976:	02 97       	sbiw	r24, 0x02	; 2
    1978:	2c f4       	brge	.+10     	; 0x1984 <Cmd_TEC_log_enable+0xe>
	temperature_enable_log();
    197a:	0e 94 99 17 	call	0x2f32	; 0x2f32 <temperature_enable_log>
	return CMDLINE_OK;
    197e:	80 e0       	ldi	r24, 0x00	; 0
    1980:	90 e0       	ldi	r25, 0x00	; 0
    1982:	08 95       	ret

int
Cmd_TEC_log_enable(int argc, char *argv[])
{

	if (argc >1) return CMDLINE_TOO_MANY_ARGS;
    1984:	82 e0       	ldi	r24, 0x02	; 2
    1986:	90 e0       	ldi	r25, 0x00	; 0
	temperature_enable_log();
	return CMDLINE_OK;
	
}
    1988:	08 95       	ret

0000198a <Cmd_TEC_log_disable>:

int
Cmd_TEC_log_disable(int argc, char *argv[])
{

	if (argc >1) return CMDLINE_TOO_MANY_ARGS;
    198a:	02 97       	sbiw	r24, 0x02	; 2
    198c:	2c f4       	brge	.+10     	; 0x1998 <Cmd_TEC_log_disable+0xe>
	temperature_disable_log();
    198e:	0e 94 9d 17 	call	0x2f3a	; 0x2f3a <temperature_disable_log>
	return CMDLINE_OK;
    1992:	80 e0       	ldi	r24, 0x00	; 0
    1994:	90 e0       	ldi	r25, 0x00	; 0
    1996:	08 95       	ret

int
Cmd_TEC_log_disable(int argc, char *argv[])
{

	if (argc >1) return CMDLINE_TOO_MANY_ARGS;
    1998:	82 e0       	ldi	r24, 0x02	; 2
    199a:	90 e0       	ldi	r25, 0x00	; 0
	temperature_disable_log();
	return CMDLINE_OK;
	
}
    199c:	08 95       	ret

0000199e <Cmd_TEC_set_output>:
//
//*****************************************************************************

int
Cmd_TEC_set_output(int argc, char *argv[])
{
    199e:	0f 93       	push	r16
    19a0:	1f 93       	push	r17
    19a2:	cf 93       	push	r28
    19a4:	df 93       	push	r29

	  if (argc < 4) return CMDLINE_TOO_FEW_ARGS;
    19a6:	84 30       	cpi	r24, 0x04	; 4
    19a8:	91 05       	cpc	r25, r1
    19aa:	dc f0       	brlt	.+54     	; 0x19e2 <Cmd_TEC_set_output+0x44>
	  if (argc >4) return CMDLINE_TOO_MANY_ARGS;
    19ac:	05 97       	sbiw	r24, 0x05	; 5
    19ae:	e4 f4       	brge	.+56     	; 0x19e8 <Cmd_TEC_set_output+0x4a>
    19b0:	eb 01       	movw	r28, r22
	  uint8_t _heatCool = atoi(argv[2]);
    19b2:	8c 81       	ldd	r24, Y+4	; 0x04
    19b4:	9d 81       	ldd	r25, Y+5	; 0x05
    19b6:	0e 94 61 29 	call	0x52c2	; 0x52c2 <atoi>
    19ba:	08 2f       	mov	r16, r24
	  uint8_t _channel = atoi(argv[1]);
    19bc:	8a 81       	ldd	r24, Y+2	; 0x02
    19be:	9b 81       	ldd	r25, Y+3	; 0x03
    19c0:	0e 94 61 29 	call	0x52c2	; 0x52c2 <atoi>
    19c4:	18 2f       	mov	r17, r24
	  uint16_t	_voltage = atoi(argv[3]);
    19c6:	8e 81       	ldd	r24, Y+6	; 0x06
    19c8:	9f 81       	ldd	r25, Y+7	; 0x07
    19ca:	0e 94 61 29 	call	0x52c2	; 0x52c2 <atoi>
		if (_channel >=4 )	return CMDLINE_INVALID_ARG;
    19ce:	14 30       	cpi	r17, 0x04	; 4
    19d0:	70 f4       	brcc	.+28     	; 0x19ee <Cmd_TEC_set_output+0x50>
	 temperature_set_TEC_output(_channel, _heatCool, _voltage);
    19d2:	ac 01       	movw	r20, r24
    19d4:	60 2f       	mov	r22, r16
    19d6:	81 2f       	mov	r24, r17
    19d8:	0e 94 7a 14 	call	0x28f4	; 0x28f4 <temperature_set_TEC_output>
	 return CMDLINE_OK;
    19dc:	80 e0       	ldi	r24, 0x00	; 0
    19de:	90 e0       	ldi	r25, 0x00	; 0
    19e0:	08 c0       	rjmp	.+16     	; 0x19f2 <Cmd_TEC_set_output+0x54>

int
Cmd_TEC_set_output(int argc, char *argv[])
{

	  if (argc < 4) return CMDLINE_TOO_FEW_ARGS;
    19e2:	83 e0       	ldi	r24, 0x03	; 3
    19e4:	90 e0       	ldi	r25, 0x00	; 0
    19e6:	05 c0       	rjmp	.+10     	; 0x19f2 <Cmd_TEC_set_output+0x54>
	  if (argc >4) return CMDLINE_TOO_MANY_ARGS;
    19e8:	82 e0       	ldi	r24, 0x02	; 2
    19ea:	90 e0       	ldi	r25, 0x00	; 0
    19ec:	02 c0       	rjmp	.+4      	; 0x19f2 <Cmd_TEC_set_output+0x54>
	  uint8_t _heatCool = atoi(argv[2]);
	  uint8_t _channel = atoi(argv[1]);
	  uint16_t	_voltage = atoi(argv[3]);
		if (_channel >=4 )	return CMDLINE_INVALID_ARG;
    19ee:	84 e0       	ldi	r24, 0x04	; 4
    19f0:	90 e0       	ldi	r25, 0x00	; 0
	 temperature_set_TEC_output(_channel, _heatCool, _voltage);
	 return CMDLINE_OK;
	 
}
    19f2:	df 91       	pop	r29
    19f4:	cf 91       	pop	r28
    19f6:	1f 91       	pop	r17
    19f8:	0f 91       	pop	r16
    19fa:	08 95       	ret

000019fc <Cmd_get_temp_setpoint>:

int
Cmd_get_temp_setpoint(int argc, char *argv[])
{
    19fc:	cf 93       	push	r28
    19fe:	df 93       	push	r29
	if (argc < 2) return CMDLINE_TOO_FEW_ARGS;
    1a00:	82 30       	cpi	r24, 0x02	; 2
    1a02:	91 05       	cpc	r25, r1
    1a04:	04 f1       	brlt	.+64     	; 0x1a46 <Cmd_get_temp_setpoint+0x4a>
	if (argc >2) return CMDLINE_TOO_MANY_ARGS;
    1a06:	03 97       	sbiw	r24, 0x03	; 3
    1a08:	0c f5       	brge	.+66     	; 0x1a4c <Cmd_get_temp_setpoint+0x50>
    1a0a:	fb 01       	movw	r30, r22
	uint8_t _channel = atoi(argv[1]);
    1a0c:	82 81       	ldd	r24, Z+2	; 0x02
    1a0e:	93 81       	ldd	r25, Z+3	; 0x03
    1a10:	0e 94 61 29 	call	0x52c2	; 0x52c2 <atoi>
    1a14:	ec 01       	movw	r28, r24
	uint16_t	_setpoint;
	if (_channel > 2)	return CMDLINE_INVALID_ARG;
    1a16:	83 30       	cpi	r24, 0x03	; 3
    1a18:	e0 f4       	brcc	.+56     	; 0x1a52 <Cmd_get_temp_setpoint+0x56>
	_setpoint = temperature_get_setpoint(_channel);
    1a1a:	0e 94 ad 16 	call	0x2d5a	; 0x2d5a <temperature_get_setpoint>
	UARTprintf("Setpoint channel[%d]: %d \r\n", _channel, _setpoint);
    1a1e:	9f 93       	push	r25
    1a20:	8f 93       	push	r24
    1a22:	dd 27       	eor	r29, r29
    1a24:	df 93       	push	r29
    1a26:	cf 93       	push	r28
    1a28:	80 ec       	ldi	r24, 0xC0	; 192
    1a2a:	92 e0       	ldi	r25, 0x02	; 2
    1a2c:	9f 93       	push	r25
    1a2e:	8f 93       	push	r24
    1a30:	0e 94 c2 1e 	call	0x3d84	; 0x3d84 <UARTprintf>
	return CMDLINE_OK;
    1a34:	0f 90       	pop	r0
    1a36:	0f 90       	pop	r0
    1a38:	0f 90       	pop	r0
    1a3a:	0f 90       	pop	r0
    1a3c:	0f 90       	pop	r0
    1a3e:	0f 90       	pop	r0
    1a40:	80 e0       	ldi	r24, 0x00	; 0
    1a42:	90 e0       	ldi	r25, 0x00	; 0
    1a44:	08 c0       	rjmp	.+16     	; 0x1a56 <Cmd_get_temp_setpoint+0x5a>
}

int
Cmd_get_temp_setpoint(int argc, char *argv[])
{
	if (argc < 2) return CMDLINE_TOO_FEW_ARGS;
    1a46:	83 e0       	ldi	r24, 0x03	; 3
    1a48:	90 e0       	ldi	r25, 0x00	; 0
    1a4a:	05 c0       	rjmp	.+10     	; 0x1a56 <Cmd_get_temp_setpoint+0x5a>
	if (argc >2) return CMDLINE_TOO_MANY_ARGS;
    1a4c:	82 e0       	ldi	r24, 0x02	; 2
    1a4e:	90 e0       	ldi	r25, 0x00	; 0
    1a50:	02 c0       	rjmp	.+4      	; 0x1a56 <Cmd_get_temp_setpoint+0x5a>
	uint8_t _channel = atoi(argv[1]);
	uint16_t	_setpoint;
	if (_channel > 2)	return CMDLINE_INVALID_ARG;
    1a52:	84 e0       	ldi	r24, 0x04	; 4
    1a54:	90 e0       	ldi	r25, 0x00	; 0
	_setpoint = temperature_get_setpoint(_channel);
	UARTprintf("Setpoint channel[%d]: %d \r\n", _channel, _setpoint);
	return CMDLINE_OK;
}
    1a56:	df 91       	pop	r29
    1a58:	cf 91       	pop	r28
    1a5a:	08 95       	ret

00001a5c <Cmd_ringled_set_RGB>:
// 	return CMDLINE_OK;
// }

int
Cmd_ringled_set_RGB(int argc, char *argv[])
{
    1a5c:	ff 92       	push	r15
    1a5e:	0f 93       	push	r16
    1a60:	1f 93       	push	r17
    1a62:	cf 93       	push	r28
    1a64:	df 93       	push	r29
	if (argc < 5) return CMDLINE_TOO_FEW_ARGS;
    1a66:	85 30       	cpi	r24, 0x05	; 5
    1a68:	91 05       	cpc	r25, r1
    1a6a:	fc f0       	brlt	.+62     	; 0x1aaa <Cmd_ringled_set_RGB+0x4e>
	if (argc > 5) return CMDLINE_TOO_MANY_ARGS;
    1a6c:	06 97       	sbiw	r24, 0x06	; 6
    1a6e:	04 f5       	brge	.+64     	; 0x1ab0 <Cmd_ringled_set_RGB+0x54>
    1a70:	eb 01       	movw	r28, r22
	uint8_t _red = atoi(argv[1]);
    1a72:	8a 81       	ldd	r24, Y+2	; 0x02
    1a74:	9b 81       	ldd	r25, Y+3	; 0x03
    1a76:	0e 94 61 29 	call	0x52c2	; 0x52c2 <atoi>
    1a7a:	18 2f       	mov	r17, r24
	uint8_t _green = atoi(argv[2]);
    1a7c:	8c 81       	ldd	r24, Y+4	; 0x04
    1a7e:	9d 81       	ldd	r25, Y+5	; 0x05
    1a80:	0e 94 61 29 	call	0x52c2	; 0x52c2 <atoi>
    1a84:	08 2f       	mov	r16, r24
	uint8_t _blue = atoi(argv[3]);
    1a86:	8e 81       	ldd	r24, Y+6	; 0x06
    1a88:	9f 81       	ldd	r25, Y+7	; 0x07
    1a8a:	0e 94 61 29 	call	0x52c2	; 0x52c2 <atoi>
    1a8e:	f8 2e       	mov	r15, r24
	uint8_t _white = atoi(argv[4]);
    1a90:	88 85       	ldd	r24, Y+8	; 0x08
    1a92:	99 85       	ldd	r25, Y+9	; 0x09
    1a94:	0e 94 61 29 	call	0x52c2	; 0x52c2 <atoi>
	ringled_set_RGBW(_red, _green, _blue, _white);
    1a98:	28 2f       	mov	r18, r24
    1a9a:	4f 2d       	mov	r20, r15
    1a9c:	60 2f       	mov	r22, r16
    1a9e:	81 2f       	mov	r24, r17
    1aa0:	0e 94 00 20 	call	0x4000	; 0x4000 <ringled_set_RGBW>
	return CMDLINE_OK;
    1aa4:	80 e0       	ldi	r24, 0x00	; 0
    1aa6:	90 e0       	ldi	r25, 0x00	; 0
    1aa8:	05 c0       	rjmp	.+10     	; 0x1ab4 <Cmd_ringled_set_RGB+0x58>
// }

int
Cmd_ringled_set_RGB(int argc, char *argv[])
{
	if (argc < 5) return CMDLINE_TOO_FEW_ARGS;
    1aaa:	83 e0       	ldi	r24, 0x03	; 3
    1aac:	90 e0       	ldi	r25, 0x00	; 0
    1aae:	02 c0       	rjmp	.+4      	; 0x1ab4 <Cmd_ringled_set_RGB+0x58>
	if (argc > 5) return CMDLINE_TOO_MANY_ARGS;
    1ab0:	82 e0       	ldi	r24, 0x02	; 2
    1ab2:	90 e0       	ldi	r25, 0x00	; 0
	uint8_t _green = atoi(argv[2]);
	uint8_t _blue = atoi(argv[3]);
	uint8_t _white = atoi(argv[4]);
	ringled_set_RGBW(_red, _green, _blue, _white);
	return CMDLINE_OK;
}
    1ab4:	df 91       	pop	r29
    1ab6:	cf 91       	pop	r28
    1ab8:	1f 91       	pop	r17
    1aba:	0f 91       	pop	r16
    1abc:	ff 90       	pop	r15
    1abe:	08 95       	ret

00001ac0 <Cmd_ringled_get_RGB>:

int
Cmd_ringled_get_RGB(int argc, char *argv[])
{
	if (argc > 1) return CMDLINE_TOO_MANY_ARGS;
    1ac0:	02 97       	sbiw	r24, 0x02	; 2
    1ac2:	dc f4       	brge	.+54     	; 0x1afa <Cmd_ringled_get_RGB+0x3a>
	rgbw_color RGB = ringled_get_RGBW();
    1ac4:	0e 94 18 20 	call	0x4030	; 0x4030 <ringled_get_RGBW>
	UARTprintf("Ringled: RED = %d, GREEN = %d, BLUE = %d, WHITE = %d \r\n", RGB.red, RGB.green, RGB.blue, RGB.white);
    1ac8:	1f 92       	push	r1
    1aca:	9f 93       	push	r25
    1acc:	1f 92       	push	r1
    1ace:	8f 93       	push	r24
    1ad0:	1f 92       	push	r1
    1ad2:	7f 93       	push	r23
    1ad4:	1f 92       	push	r1
    1ad6:	6f 93       	push	r22
    1ad8:	8c ed       	ldi	r24, 0xDC	; 220
    1ada:	92 e0       	ldi	r25, 0x02	; 2
    1adc:	9f 93       	push	r25
    1ade:	8f 93       	push	r24
    1ae0:	0e 94 c2 1e 	call	0x3d84	; 0x3d84 <UARTprintf>
	return CMDLINE_OK;
    1ae4:	8d b7       	in	r24, 0x3d	; 61
    1ae6:	9e b7       	in	r25, 0x3e	; 62
    1ae8:	0a 96       	adiw	r24, 0x0a	; 10
    1aea:	0f b6       	in	r0, 0x3f	; 63
    1aec:	f8 94       	cli
    1aee:	9e bf       	out	0x3e, r25	; 62
    1af0:	0f be       	out	0x3f, r0	; 63
    1af2:	8d bf       	out	0x3d, r24	; 61
    1af4:	80 e0       	ldi	r24, 0x00	; 0
    1af6:	90 e0       	ldi	r25, 0x00	; 0
    1af8:	08 95       	ret
}

int
Cmd_ringled_get_RGB(int argc, char *argv[])
{
	if (argc > 1) return CMDLINE_TOO_MANY_ARGS;
    1afa:	82 e0       	ldi	r24, 0x02	; 2
    1afc:	90 e0       	ldi	r25, 0x00	; 0
	rgbw_color RGB = ringled_get_RGBW();
	UARTprintf("Ringled: RED = %d, GREEN = %d, BLUE = %d, WHITE = %d \r\n", RGB.red, RGB.green, RGB.blue, RGB.white);
	return CMDLINE_OK;
}
    1afe:	08 95       	ret

00001b00 <Cmd_IRled_set_bright>:

int
Cmd_IRled_set_bright(int argc, char *argv[])
{
    1b00:	cf 93       	push	r28
    1b02:	df 93       	push	r29
	if (argc < 2) return CMDLINE_TOO_FEW_ARGS;
    1b04:	82 30       	cpi	r24, 0x02	; 2
    1b06:	91 05       	cpc	r25, r1
    1b08:	ec f0       	brlt	.+58     	; 0x1b44 <Cmd_IRled_set_bright+0x44>
	if (argc > 2) return CMDLINE_TOO_MANY_ARGS;
    1b0a:	03 97       	sbiw	r24, 0x03	; 3
    1b0c:	f4 f4       	brge	.+60     	; 0x1b4a <Cmd_IRled_set_bright+0x4a>
    1b0e:	eb 01       	movw	r28, r22
	
	uint8_t _DutyCyclePercent = atoi(argv[1]);
    1b10:	8a 81       	ldd	r24, Y+2	; 0x02
    1b12:	9b 81       	ldd	r25, Y+3	; 0x03
    1b14:	0e 94 61 29 	call	0x52c2	; 0x52c2 <atoi>
	if (_DutyCyclePercent > 100)
	{
		//UARTprintf("WARNING: Duty cycle ranges from 0 to 100 percent");
		_DutyCyclePercent = 100;
	}
	IR_led_set_DutyCyclesPercent(_DutyCyclePercent);
    1b18:	85 36       	cpi	r24, 0x65	; 101
    1b1a:	08 f0       	brcs	.+2      	; 0x1b1e <Cmd_IRled_set_bright+0x1e>
    1b1c:	84 e6       	ldi	r24, 0x64	; 100
    1b1e:	0e 94 4d 13 	call	0x269a	; 0x269a <IR_led_set_DutyCyclesPercent>
	UARTprintf("Led IR set brightness is %s %% \r\n",argv[1]);
    1b22:	8b 81       	ldd	r24, Y+3	; 0x03
    1b24:	8f 93       	push	r24
    1b26:	8a 81       	ldd	r24, Y+2	; 0x02
    1b28:	8f 93       	push	r24
    1b2a:	84 e1       	ldi	r24, 0x14	; 20
    1b2c:	93 e0       	ldi	r25, 0x03	; 3
    1b2e:	9f 93       	push	r25
    1b30:	8f 93       	push	r24
    1b32:	0e 94 c2 1e 	call	0x3d84	; 0x3d84 <UARTprintf>
	return CMDLINE_OK;
    1b36:	0f 90       	pop	r0
    1b38:	0f 90       	pop	r0
    1b3a:	0f 90       	pop	r0
    1b3c:	0f 90       	pop	r0
    1b3e:	80 e0       	ldi	r24, 0x00	; 0
    1b40:	90 e0       	ldi	r25, 0x00	; 0
    1b42:	05 c0       	rjmp	.+10     	; 0x1b4e <Cmd_IRled_set_bright+0x4e>
}

int
Cmd_IRled_set_bright(int argc, char *argv[])
{
	if (argc < 2) return CMDLINE_TOO_FEW_ARGS;
    1b44:	83 e0       	ldi	r24, 0x03	; 3
    1b46:	90 e0       	ldi	r25, 0x00	; 0
    1b48:	02 c0       	rjmp	.+4      	; 0x1b4e <Cmd_IRled_set_bright+0x4e>
	if (argc > 2) return CMDLINE_TOO_MANY_ARGS;
    1b4a:	82 e0       	ldi	r24, 0x02	; 2
    1b4c:	90 e0       	ldi	r25, 0x00	; 0
		_DutyCyclePercent = 100;
	}
	IR_led_set_DutyCyclesPercent(_DutyCyclePercent);
	UARTprintf("Led IR set brightness is %s %% \r\n",argv[1]);
	return CMDLINE_OK;
}
    1b4e:	df 91       	pop	r29
    1b50:	cf 91       	pop	r28
    1b52:	08 95       	ret

00001b54 <Cmd_IRled_get_bright>:

int
Cmd_IRled_get_bright(int argc, char *argv[])
{
	if (argc > 1) return CMDLINE_TOO_MANY_ARGS;
    1b54:	02 97       	sbiw	r24, 0x02	; 2
    1b56:	8c f4       	brge	.+34     	; 0x1b7a <Cmd_IRled_get_bright+0x26>
	uint8_t Current_DutyCyclePercent = IR_led_get_Current_DutyCyclesPercent();
    1b58:	0e 94 59 13 	call	0x26b2	; 0x26b2 <IR_led_get_Current_DutyCyclesPercent>
	UARTprintf("Led IR's brightness is %d %% \r\n",Current_DutyCyclePercent);
    1b5c:	1f 92       	push	r1
    1b5e:	8f 93       	push	r24
    1b60:	86 e3       	ldi	r24, 0x36	; 54
    1b62:	93 e0       	ldi	r25, 0x03	; 3
    1b64:	9f 93       	push	r25
    1b66:	8f 93       	push	r24
    1b68:	0e 94 c2 1e 	call	0x3d84	; 0x3d84 <UARTprintf>
	return CMDLINE_OK;
    1b6c:	0f 90       	pop	r0
    1b6e:	0f 90       	pop	r0
    1b70:	0f 90       	pop	r0
    1b72:	0f 90       	pop	r0
    1b74:	80 e0       	ldi	r24, 0x00	; 0
    1b76:	90 e0       	ldi	r25, 0x00	; 0
    1b78:	08 95       	ret
}

int
Cmd_IRled_get_bright(int argc, char *argv[])
{
	if (argc > 1) return CMDLINE_TOO_MANY_ARGS;
    1b7a:	82 e0       	ldi	r24, 0x02	; 2
    1b7c:	90 e0       	ldi	r25, 0x00	; 0
	uint8_t Current_DutyCyclePercent = IR_led_get_Current_DutyCyclesPercent();
	UARTprintf("Led IR's brightness is %d %% \r\n",Current_DutyCyclePercent);
	return CMDLINE_OK;
}
    1b7e:	08 95       	ret

00001b80 <Cmd_get_parameters>:
	return CMDLINE_OK;
}

int
Cmd_get_parameters(int argc, char *argv[])
{
    1b80:	af 92       	push	r10
    1b82:	bf 92       	push	r11
    1b84:	cf 92       	push	r12
    1b86:	df 92       	push	r13
    1b88:	ef 92       	push	r14
    1b8a:	ff 92       	push	r15
    1b8c:	0f 93       	push	r16
    1b8e:	1f 93       	push	r17
    1b90:	cf 93       	push	r28
    1b92:	df 93       	push	r29
    1b94:	00 d0       	rcall	.+0      	; 0x1b96 <Cmd_get_parameters+0x16>
    1b96:	00 d0       	rcall	.+0      	; 0x1b98 <Cmd_get_parameters+0x18>
    1b98:	1f 92       	push	r1
    1b9a:	cd b7       	in	r28, 0x3d	; 61
    1b9c:	de b7       	in	r29, 0x3e	; 62
    1b9e:	00 e0       	ldi	r16, 0x00	; 0
    1ba0:	10 e0       	ldi	r17, 0x00	; 0
	char buffer[5];
	for (uint8_t i = 0; i < 4; i++)
	{
		sprintf(buffer, "%.0f", (float)temperature_get_NTC(i));
    1ba2:	0f 2e       	mov	r0, r31
    1ba4:	f6 e3       	ldi	r31, 0x36	; 54
    1ba6:	af 2e       	mov	r10, r31
    1ba8:	f2 e0       	ldi	r31, 0x02	; 2
    1baa:	bf 2e       	mov	r11, r31
    1bac:	f0 2d       	mov	r31, r0
    1bae:	ce 01       	movw	r24, r28
    1bb0:	01 96       	adiw	r24, 0x01	; 1
    1bb2:	6c 01       	movw	r12, r24
		UARTprintf("NTC[%d]: %s \r\n", i, buffer);
    1bb4:	0f 2e       	mov	r0, r31
    1bb6:	f5 e5       	ldi	r31, 0x55	; 85
    1bb8:	ef 2e       	mov	r14, r31
    1bba:	f2 e0       	ldi	r31, 0x02	; 2
    1bbc:	ff 2e       	mov	r15, r31
    1bbe:	f0 2d       	mov	r31, r0
Cmd_get_parameters(int argc, char *argv[])
{
	char buffer[5];
	for (uint8_t i = 0; i < 4; i++)
	{
		sprintf(buffer, "%.0f", (float)temperature_get_NTC(i));
    1bc0:	80 2f       	mov	r24, r16
    1bc2:	0e 94 28 14 	call	0x2850	; 0x2850 <temperature_get_NTC>
    1bc6:	bc 01       	movw	r22, r24
    1bc8:	99 0f       	add	r25, r25
    1bca:	88 0b       	sbc	r24, r24
    1bcc:	99 0b       	sbc	r25, r25
    1bce:	0e 94 62 24 	call	0x48c4	; 0x48c4 <__floatsisf>
    1bd2:	9f 93       	push	r25
    1bd4:	8f 93       	push	r24
    1bd6:	7f 93       	push	r23
    1bd8:	6f 93       	push	r22
    1bda:	bf 92       	push	r11
    1bdc:	af 92       	push	r10
    1bde:	df 92       	push	r13
    1be0:	cf 92       	push	r12
    1be2:	0e 94 ba 2a 	call	0x5574	; 0x5574 <sprintf>
		UARTprintf("NTC[%d]: %s \r\n", i, buffer);
    1be6:	df 92       	push	r13
    1be8:	cf 92       	push	r12
    1bea:	1f 93       	push	r17
    1bec:	0f 93       	push	r16
    1bee:	ff 92       	push	r15
    1bf0:	ef 92       	push	r14
    1bf2:	0e 94 c2 1e 	call	0x3d84	; 0x3d84 <UARTprintf>
    1bf6:	0f 5f       	subi	r16, 0xFF	; 255
    1bf8:	1f 4f       	sbci	r17, 0xFF	; 255

int
Cmd_get_parameters(int argc, char *argv[])
{
	char buffer[5];
	for (uint8_t i = 0; i < 4; i++)
    1bfa:	0f b6       	in	r0, 0x3f	; 63
    1bfc:	f8 94       	cli
    1bfe:	de bf       	out	0x3e, r29	; 62
    1c00:	0f be       	out	0x3f, r0	; 63
    1c02:	cd bf       	out	0x3d, r28	; 61
    1c04:	04 30       	cpi	r16, 0x04	; 4
    1c06:	11 05       	cpc	r17, r1
    1c08:	d9 f6       	brne	.-74     	; 0x1bc0 <Cmd_get_parameters+0x40>
	{
		sprintf(buffer, "%.0f", (float)temperature_get_NTC(i));
		UARTprintf("NTC[%d]: %s \r\n", i, buffer);
	}
	UARTprintf("Status TEC:");
    1c0a:	86 e5       	ldi	r24, 0x56	; 86
    1c0c:	93 e0       	ldi	r25, 0x03	; 3
    1c0e:	9f 93       	push	r25
    1c10:	8f 93       	push	r24
    1c12:	0e 94 c2 1e 	call	0x3d84	; 0x3d84 <UARTprintf>
	temperature_get_status();
    1c16:	0e 94 c8 16 	call	0x2d90	; 0x2d90 <temperature_get_status>
	rgbw_color RGBW = ringled_get_RGBW();
    1c1a:	0e 94 18 20 	call	0x4030	; 0x4030 <ringled_get_RGBW>
	UARTprintf("RINLED: R=%d, G=%d, B=%d, W=%d\r\n", RGBW.red, RGBW.green, RGBW.blue, RGBW.white);
    1c1e:	1f 92       	push	r1
    1c20:	9f 93       	push	r25
    1c22:	1f 92       	push	r1
    1c24:	8f 93       	push	r24
    1c26:	1f 92       	push	r1
    1c28:	7f 93       	push	r23
    1c2a:	1f 92       	push	r1
    1c2c:	6f 93       	push	r22
    1c2e:	82 e6       	ldi	r24, 0x62	; 98
    1c30:	93 e0       	ldi	r25, 0x03	; 3
    1c32:	9f 93       	push	r25
    1c34:	8f 93       	push	r24
    1c36:	0e 94 c2 1e 	call	0x3d84	; 0x3d84 <UARTprintf>
	UARTprintf("IRLED: duty %d %%\r\n", IR_led_get_Current_DutyCyclesPercent());
    1c3a:	0e 94 59 13 	call	0x26b2	; 0x26b2 <IR_led_get_Current_DutyCyclesPercent>
    1c3e:	1f 92       	push	r1
    1c40:	8f 93       	push	r24
    1c42:	83 e8       	ldi	r24, 0x83	; 131
    1c44:	93 e0       	ldi	r25, 0x03	; 3
    1c46:	9f 93       	push	r25
    1c48:	8f 93       	push	r24
    1c4a:	0e 94 c2 1e 	call	0x3d84	; 0x3d84 <UARTprintf>
	return CMDLINE_OK;
    1c4e:	0f b6       	in	r0, 0x3f	; 63
    1c50:	f8 94       	cli
    1c52:	de bf       	out	0x3e, r29	; 62
    1c54:	0f be       	out	0x3f, r0	; 63
    1c56:	cd bf       	out	0x3d, r28	; 61
}
    1c58:	80 e0       	ldi	r24, 0x00	; 0
    1c5a:	90 e0       	ldi	r25, 0x00	; 0
    1c5c:	0f 90       	pop	r0
    1c5e:	0f 90       	pop	r0
    1c60:	0f 90       	pop	r0
    1c62:	0f 90       	pop	r0
    1c64:	0f 90       	pop	r0
    1c66:	df 91       	pop	r29
    1c68:	cf 91       	pop	r28
    1c6a:	1f 91       	pop	r17
    1c6c:	0f 91       	pop	r16
    1c6e:	ff 90       	pop	r15
    1c70:	ef 90       	pop	r14
    1c72:	df 90       	pop	r13
    1c74:	cf 90       	pop	r12
    1c76:	bf 90       	pop	r11
    1c78:	af 90       	pop	r10
    1c7a:	08 95       	ret

00001c7c <Cmd_get_acceleration_gyroscope>:
	return CMDLINE_OK;
}

int
Cmd_get_acceleration_gyroscope(int argc, char *argv[])
{
    1c7c:	0f 93       	push	r16
    1c7e:	1f 93       	push	r17
    1c80:	cf 93       	push	r28
    1c82:	df 93       	push	r29
    1c84:	cd b7       	in	r28, 0x3d	; 61
    1c86:	de b7       	in	r29, 0x3e	; 62
    1c88:	ee 97       	sbiw	r28, 0x3e	; 62
    1c8a:	0f b6       	in	r0, 0x3f	; 63
    1c8c:	f8 94       	cli
    1c8e:	de bf       	out	0x3e, r29	; 62
    1c90:	0f be       	out	0x3f, r0	; 63
    1c92:	cd bf       	out	0x3d, r28	; 61
	if (argc > 1) return CMDLINE_TOO_MANY_ARGS;
    1c94:	02 97       	sbiw	r24, 0x02	; 2
    1c96:	0c f0       	brlt	.+2      	; 0x1c9a <Cmd_get_acceleration_gyroscope+0x1e>
    1c98:	59 c0       	rjmp	.+178    	; 0x1d4c <Cmd_get_acceleration_gyroscope+0xd0>
	Accel_Gyro_DataTypedef _accel_data = get_acceleration();
    1c9a:	0e 94 a4 09 	call	0x1348	; 0x1348 <get_acceleration>
    1c9e:	29 83       	std	Y+1, r18	; 0x01
    1ca0:	3a 83       	std	Y+2, r19	; 0x02
    1ca2:	4b 83       	std	Y+3, r20	; 0x03
    1ca4:	5c 83       	std	Y+4, r21	; 0x04
    1ca6:	6d 83       	std	Y+5, r22	; 0x05
    1ca8:	7e 83       	std	Y+6, r23	; 0x06
	Accel_Gyro_DataTypedef _gyro_data = get_gyroscope();
    1caa:	0e 94 c5 09 	call	0x138a	; 0x138a <get_gyroscope>
    1cae:	2f 83       	std	Y+7, r18	; 0x07
    1cb0:	38 87       	std	Y+8, r19	; 0x08
    1cb2:	49 87       	std	Y+9, r20	; 0x09
    1cb4:	5a 87       	std	Y+10, r21	; 0x0a
    1cb6:	6b 87       	std	Y+11, r22	; 0x0b
    1cb8:	7c 87       	std	Y+12, r23	; 0x0c
	char buffer[50];
	sprintf(buffer,"acceleration %.2f %.2f %.2f\r\n", _accel_data.x, _accel_data.y, _accel_data.z);
    1cba:	8e 81       	ldd	r24, Y+6	; 0x06
    1cbc:	8f 93       	push	r24
    1cbe:	8d 81       	ldd	r24, Y+5	; 0x05
    1cc0:	8f 93       	push	r24
    1cc2:	8c 81       	ldd	r24, Y+4	; 0x04
    1cc4:	8f 93       	push	r24
    1cc6:	8b 81       	ldd	r24, Y+3	; 0x03
    1cc8:	8f 93       	push	r24
    1cca:	8a 81       	ldd	r24, Y+2	; 0x02
    1ccc:	8f 93       	push	r24
    1cce:	89 81       	ldd	r24, Y+1	; 0x01
    1cd0:	8f 93       	push	r24
    1cd2:	87 e9       	ldi	r24, 0x97	; 151
    1cd4:	93 e0       	ldi	r25, 0x03	; 3
    1cd6:	9f 93       	push	r25
    1cd8:	8f 93       	push	r24
    1cda:	8e 01       	movw	r16, r28
    1cdc:	03 5f       	subi	r16, 0xF3	; 243
    1cde:	1f 4f       	sbci	r17, 0xFF	; 255
    1ce0:	1f 93       	push	r17
    1ce2:	0f 93       	push	r16
    1ce4:	0e 94 ba 2a 	call	0x5574	; 0x5574 <sprintf>
	usart0_send_array(buffer, strlen(buffer));
    1ce8:	f8 01       	movw	r30, r16
    1cea:	01 90       	ld	r0, Z+
    1cec:	00 20       	and	r0, r0
    1cee:	e9 f7       	brne	.-6      	; 0x1cea <Cmd_get_acceleration_gyroscope+0x6e>
    1cf0:	31 97       	sbiw	r30, 0x01	; 1
    1cf2:	bf 01       	movw	r22, r30
    1cf4:	60 1b       	sub	r22, r16
    1cf6:	71 0b       	sbc	r23, r17
    1cf8:	c8 01       	movw	r24, r16
    1cfa:	0e 94 ef 19 	call	0x33de	; 0x33de <usart0_send_array>
	sprintf(buffer,"gyroscope %.2f %.2f %.2f\r\n", _gyro_data.x, _gyro_data.y, _gyro_data.z);
    1cfe:	8c 85       	ldd	r24, Y+12	; 0x0c
    1d00:	8f 93       	push	r24
    1d02:	8b 85       	ldd	r24, Y+11	; 0x0b
    1d04:	8f 93       	push	r24
    1d06:	8a 85       	ldd	r24, Y+10	; 0x0a
    1d08:	8f 93       	push	r24
    1d0a:	89 85       	ldd	r24, Y+9	; 0x09
    1d0c:	8f 93       	push	r24
    1d0e:	88 85       	ldd	r24, Y+8	; 0x08
    1d10:	8f 93       	push	r24
    1d12:	8f 81       	ldd	r24, Y+7	; 0x07
    1d14:	8f 93       	push	r24
    1d16:	85 eb       	ldi	r24, 0xB5	; 181
    1d18:	93 e0       	ldi	r25, 0x03	; 3
    1d1a:	9f 93       	push	r25
    1d1c:	8f 93       	push	r24
    1d1e:	1f 93       	push	r17
    1d20:	0f 93       	push	r16
    1d22:	0e 94 ba 2a 	call	0x5574	; 0x5574 <sprintf>
	usart0_send_array(buffer, strlen(buffer));
    1d26:	f8 01       	movw	r30, r16
    1d28:	01 90       	ld	r0, Z+
    1d2a:	00 20       	and	r0, r0
    1d2c:	e9 f7       	brne	.-6      	; 0x1d28 <Cmd_get_acceleration_gyroscope+0xac>
    1d2e:	31 97       	sbiw	r30, 0x01	; 1
    1d30:	bf 01       	movw	r22, r30
    1d32:	60 1b       	sub	r22, r16
    1d34:	71 0b       	sbc	r23, r17
    1d36:	c8 01       	movw	r24, r16
    1d38:	0e 94 ef 19 	call	0x33de	; 0x33de <usart0_send_array>
	return CMDLINE_OK;
    1d3c:	0f b6       	in	r0, 0x3f	; 63
    1d3e:	f8 94       	cli
    1d40:	de bf       	out	0x3e, r29	; 62
    1d42:	0f be       	out	0x3f, r0	; 63
    1d44:	cd bf       	out	0x3d, r28	; 61
    1d46:	80 e0       	ldi	r24, 0x00	; 0
    1d48:	90 e0       	ldi	r25, 0x00	; 0
    1d4a:	02 c0       	rjmp	.+4      	; 0x1d50 <Cmd_get_acceleration_gyroscope+0xd4>
}

int
Cmd_get_acceleration_gyroscope(int argc, char *argv[])
{
	if (argc > 1) return CMDLINE_TOO_MANY_ARGS;
    1d4c:	82 e0       	ldi	r24, 0x02	; 2
    1d4e:	90 e0       	ldi	r25, 0x00	; 0
	sprintf(buffer,"acceleration %.2f %.2f %.2f\r\n", _accel_data.x, _accel_data.y, _accel_data.z);
	usart0_send_array(buffer, strlen(buffer));
	sprintf(buffer,"gyroscope %.2f %.2f %.2f\r\n", _gyro_data.x, _gyro_data.y, _gyro_data.z);
	usart0_send_array(buffer, strlen(buffer));
	return CMDLINE_OK;
}
    1d50:	ee 96       	adiw	r28, 0x3e	; 62
    1d52:	0f b6       	in	r0, 0x3f	; 63
    1d54:	f8 94       	cli
    1d56:	de bf       	out	0x3e, r29	; 62
    1d58:	0f be       	out	0x3f, r0	; 63
    1d5a:	cd bf       	out	0x3d, r28	; 61
    1d5c:	df 91       	pop	r29
    1d5e:	cf 91       	pop	r28
    1d60:	1f 91       	pop	r17
    1d62:	0f 91       	pop	r16
    1d64:	08 95       	ret

00001d66 <Cmd_get_pressure>:

int
Cmd_get_pressure(int argc, char *argv[])
{
    1d66:	0f 93       	push	r16
    1d68:	1f 93       	push	r17
    1d6a:	cf 93       	push	r28
    1d6c:	df 93       	push	r29
    1d6e:	cd b7       	in	r28, 0x3d	; 61
    1d70:	de b7       	in	r29, 0x3e	; 62
    1d72:	e2 97       	sbiw	r28, 0x32	; 50
    1d74:	0f b6       	in	r0, 0x3f	; 63
    1d76:	f8 94       	cli
    1d78:	de bf       	out	0x3e, r29	; 62
    1d7a:	0f be       	out	0x3f, r0	; 63
    1d7c:	cd bf       	out	0x3d, r28	; 61
	if (argc > 1) return CMDLINE_TOO_MANY_ARGS;
    1d7e:	02 97       	sbiw	r24, 0x02	; 2
    1d80:	1c f5       	brge	.+70     	; 0x1dc8 <Cmd_get_pressure+0x62>
	int16_t _pressure = get_pressure();
    1d82:	0e 94 15 14 	call	0x282a	; 0x282a <get_pressure>
	char buffer[50];
	sprintf(buffer, "Press: %.5f\r\n", _pressure);
    1d86:	9f 93       	push	r25
    1d88:	8f 93       	push	r24
    1d8a:	80 ed       	ldi	r24, 0xD0	; 208
    1d8c:	93 e0       	ldi	r25, 0x03	; 3
    1d8e:	9f 93       	push	r25
    1d90:	8f 93       	push	r24
    1d92:	8e 01       	movw	r16, r28
    1d94:	0f 5f       	subi	r16, 0xFF	; 255
    1d96:	1f 4f       	sbci	r17, 0xFF	; 255
    1d98:	1f 93       	push	r17
    1d9a:	0f 93       	push	r16
    1d9c:	0e 94 ba 2a 	call	0x5574	; 0x5574 <sprintf>
	usart0_send_array(buffer, strlen(buffer));
    1da0:	f8 01       	movw	r30, r16
    1da2:	01 90       	ld	r0, Z+
    1da4:	00 20       	and	r0, r0
    1da6:	e9 f7       	brne	.-6      	; 0x1da2 <Cmd_get_pressure+0x3c>
    1da8:	31 97       	sbiw	r30, 0x01	; 1
    1daa:	bf 01       	movw	r22, r30
    1dac:	60 1b       	sub	r22, r16
    1dae:	71 0b       	sbc	r23, r17
    1db0:	c8 01       	movw	r24, r16
    1db2:	0e 94 ef 19 	call	0x33de	; 0x33de <usart0_send_array>
	return CMDLINE_OK;
    1db6:	0f 90       	pop	r0
    1db8:	0f 90       	pop	r0
    1dba:	0f 90       	pop	r0
    1dbc:	0f 90       	pop	r0
    1dbe:	0f 90       	pop	r0
    1dc0:	0f 90       	pop	r0
    1dc2:	80 e0       	ldi	r24, 0x00	; 0
    1dc4:	90 e0       	ldi	r25, 0x00	; 0
    1dc6:	02 c0       	rjmp	.+4      	; 0x1dcc <Cmd_get_pressure+0x66>
}

int
Cmd_get_pressure(int argc, char *argv[])
{
	if (argc > 1) return CMDLINE_TOO_MANY_ARGS;
    1dc8:	82 e0       	ldi	r24, 0x02	; 2
    1dca:	90 e0       	ldi	r25, 0x00	; 0
	int16_t _pressure = get_pressure();
	char buffer[50];
	sprintf(buffer, "Press: %.5f\r\n", _pressure);
	usart0_send_array(buffer, strlen(buffer));
	return CMDLINE_OK;
}
    1dcc:	e2 96       	adiw	r28, 0x32	; 50
    1dce:	0f b6       	in	r0, 0x3f	; 63
    1dd0:	f8 94       	cli
    1dd2:	de bf       	out	0x3e, r29	; 62
    1dd4:	0f be       	out	0x3f, r0	; 63
    1dd6:	cd bf       	out	0x3d, r28	; 61
    1dd8:	df 91       	pop	r29
    1dda:	cf 91       	pop	r28
    1ddc:	1f 91       	pop	r17
    1dde:	0f 91       	pop	r16
    1de0:	08 95       	ret

00001de2 <command_create_task>:
	command_send_splash();
}

void	command_create_task(void)
{
	SCH_TASK_CreateTask(&s_CommandTaskContext.taskHandle, &s_CommandTaskContext.taskProperty);
    1de2:	61 e0       	ldi	r22, 0x01	; 1
    1de4:	71 e0       	ldi	r23, 0x01	; 1
    1de6:	80 e0       	ldi	r24, 0x00	; 0
    1de8:	91 e0       	ldi	r25, 0x01	; 1
    1dea:	0e 94 9e 20 	call	0x413c	; 0x413c <SCH_TASK_CreateTask>
    1dee:	08 95       	ret

00001df0 <command_send_splash>:
	{".......................................................\r\n"},
	{"\r\n"}
};

void	command_send_splash(void)
{
    1df0:	0f 93       	push	r16
    1df2:	1f 93       	push	r17
    1df4:	cf 93       	push	r28
    1df6:	df 93       	push	r29
    1df8:	ce ee       	ldi	r28, 0xEE	; 238
    1dfa:	d3 e0       	ldi	r29, 0x03	; 3
    1dfc:	0a e0       	ldi	r16, 0x0A	; 10
    1dfe:	1b e0       	ldi	r17, 0x0B	; 11
	for(uint8_t i = 0 ; i < 28 ; i++) {
		usart0_send_string_P(&SPLASH[i][0]);
    1e00:	ce 01       	movw	r24, r28
    1e02:	0e 94 08 1a 	call	0x3410	; 0x3410 <usart0_send_string_P>
    1e06:	cf 5b       	subi	r28, 0xBF	; 191
    1e08:	df 4f       	sbci	r29, 0xFF	; 255
	{"\r\n"}
};

void	command_send_splash(void)
{
	for(uint8_t i = 0 ; i < 28 ; i++) {
    1e0a:	c0 17       	cp	r28, r16
    1e0c:	d1 07       	cpc	r29, r17
    1e0e:	c1 f7       	brne	.-16     	; 0x1e00 <command_send_splash+0x10>
		usart0_send_string_P(&SPLASH[i][0]);
	}
	usart0_send_string("> ");
    1e10:	8e e0       	ldi	r24, 0x0E	; 14
    1e12:	92 e0       	ldi	r25, 0x02	; 2
    1e14:	0e 94 e0 19 	call	0x33c0	; 0x33c0 <usart0_send_string>
    1e18:	df 91       	pop	r29
    1e1a:	cf 91       	pop	r28
    1e1c:	1f 91       	pop	r17
    1e1e:	0f 91       	pop	r16
    1e20:	08 95       	ret

00001e22 <command_init>:
	}	
}

void	command_init(void)
{
	usart0_init();
    1e22:	0e 94 b4 19 	call	0x3368	; 0x3368 <usart0_init>
	p_CommandRingBuffer = uart_get_uart0_rx_buffer_address();
    1e26:	0e 94 1a 1a 	call	0x3434	; 0x3434 <uart_get_uart0_rx_buffer_address>
    1e2a:	90 93 86 0a 	sts	0x0A86, r25	; 0x800a86 <p_CommandRingBuffer+0x1>
    1e2e:	80 93 85 0a 	sts	0x0A85, r24	; 0x800a85 <p_CommandRingBuffer>
	memset((void *)s_commandBuffer, 0, sizeof(s_commandBuffer));
    1e32:	80 e4       	ldi	r24, 0x40	; 64
    1e34:	e5 e4       	ldi	r30, 0x45	; 69
    1e36:	fa e0       	ldi	r31, 0x0A	; 10
    1e38:	df 01       	movw	r26, r30
    1e3a:	1d 92       	st	X+, r1
    1e3c:	8a 95       	dec	r24
    1e3e:	e9 f7       	brne	.-6      	; 0x1e3a <command_init+0x18>
	s_commandBufferIndex = 0;
    1e40:	10 92 44 0a 	sts	0x0A44, r1	; 0x800a44 <s_commandBufferIndex>
	usart0_send_string("IOU FIRMWARE V1.0.0 \r\n");
    1e44:	8e ed       	ldi	r24, 0xDE	; 222
    1e46:	93 e0       	ldi	r25, 0x03	; 3
    1e48:	0e 94 e0 19 	call	0x33c0	; 0x33c0 <usart0_send_string>
	usart0_send_string(">");
    1e4c:	8a ec       	ldi	r24, 0xCA	; 202
    1e4e:	97 e0       	ldi	r25, 0x07	; 7
    1e50:	0e 94 e0 19 	call	0x33c0	; 0x33c0 <usart0_send_string>
	command_send_splash();
    1e54:	0e 94 f8 0e 	call	0x1df0	; 0x1df0 <command_send_splash>
    1e58:	08 95       	ret

00001e5a <COPC_init>:
void copc_iou_tec_log_ena(void)
{
	return;
}
void copc_iou_tec_log_dis(void)
{
    1e5a:	0e 94 1f 1a 	call	0x343e	; 0x343e <usart1_init>
    1e5e:	85 e0       	ldi	r24, 0x05	; 5
    1e60:	0e 94 5c 22 	call	0x44b8	; 0x44b8 <fsp_init>
    1e64:	0e 94 6f 1a 	call	0x34de	; 0x34de <uart_get_uart1_rx_buffer_address>
    1e68:	90 93 f3 0a 	sts	0x0AF3, r25	; 0x800af3 <p_COPCBuffer+0x1>
    1e6c:	80 93 f2 0a 	sts	0x0AF2, r24	; 0x800af2 <p_COPCBuffer>
    1e70:	84 ec       	ldi	r24, 0xC4	; 196
    1e72:	9a e0       	ldi	r25, 0x0A	; 10
    1e74:	90 93 8b 0a 	sts	0x0A8B, r25	; 0x800a8b <s_pCOPC_Sfp_Payload+0x1>
    1e78:	80 93 8a 0a 	sts	0x0A8A, r24	; 0x800a8a <s_pCOPC_Sfp_Payload>
    1e7c:	81 e9       	ldi	r24, 0x91	; 145
    1e7e:	9a e0       	ldi	r25, 0x0A	; 10
    1e80:	90 93 89 0a 	sts	0x0A89, r25	; 0x800a89 <s_pIOU_Sfp_Payload+0x1>
    1e84:	80 93 88 0a 	sts	0x0A88, r24	; 0x800a88 <s_pIOU_Sfp_Payload>
    1e88:	08 95       	ret

00001e8a <COPC_create_task>:
    1e8a:	0e 94 2d 0f 	call	0x1e5a	; 0x1e5a <COPC_init>
    1e8e:	60 e9       	ldi	r22, 0x90	; 144
    1e90:	71 e0       	ldi	r23, 0x01	; 1
    1e92:	8f e8       	ldi	r24, 0x8F	; 143
    1e94:	91 e0       	ldi	r25, 0x01	; 1
    1e96:	0e 94 9e 20 	call	0x413c	; 0x413c <SCH_TASK_CreateTask>
    1e9a:	08 95       	ret

00001e9c <OK_Send>:
    1e9c:	cf 92       	push	r12
    1e9e:	df 92       	push	r13
    1ea0:	ef 92       	push	r14
    1ea2:	ff 92       	push	r15
    1ea4:	0f 93       	push	r16
    1ea6:	cf 93       	push	r28
    1ea8:	df 93       	push	r29
    1eaa:	cd b7       	in	r28, 0x3d	; 61
    1eac:	de b7       	in	r29, 0x3e	; 62
    1eae:	60 97       	sbiw	r28, 0x10	; 16
    1eb0:	0f b6       	in	r0, 0x3f	; 63
    1eb2:	f8 94       	cli
    1eb4:	de bf       	out	0x3e, r29	; 62
    1eb6:	0f be       	out	0x3f, r0	; 63
    1eb8:	cd bf       	out	0x3d, r28	; 61
    1eba:	6e 01       	movw	r12, r28
    1ebc:	82 e0       	ldi	r24, 0x02	; 2
    1ebe:	c8 0e       	add	r12, r24
    1ec0:	d1 1c       	adc	r13, r1
    1ec2:	8f e0       	ldi	r24, 0x0F	; 15
    1ec4:	f6 01       	movw	r30, r12
    1ec6:	11 92       	st	Z+, r1
    1ec8:	8a 95       	dec	r24
    1eca:	e9 f7       	brne	.-6      	; 0x1ec6 <OK_Send+0x2a>
    1ecc:	e0 91 8a 0a 	lds	r30, 0x0A8A	; 0x800a8a <s_pCOPC_Sfp_Payload>
    1ed0:	f0 91 8b 0a 	lds	r31, 0x0A8B	; 0x800a8b <s_pCOPC_Sfp_Payload+0x1>
    1ed4:	80 81       	ld	r24, Z
    1ed6:	8a 83       	std	Y+2, r24	; 0x02
    1ed8:	0f 2e       	mov	r0, r31
    1eda:	fc e8       	ldi	r31, 0x8C	; 140
    1edc:	ef 2e       	mov	r14, r31
    1ede:	fa e0       	ldi	r31, 0x0A	; 10
    1ee0:	ff 2e       	mov	r15, r31
    1ee2:	f0 2d       	mov	r31, r0
    1ee4:	00 e0       	ldi	r16, 0x00	; 0
    1ee6:	21 e0       	ldi	r18, 0x01	; 1
    1ee8:	41 e0       	ldi	r20, 0x01	; 1
    1eea:	b6 01       	movw	r22, r12
    1eec:	80 e0       	ldi	r24, 0x00	; 0
    1eee:	0e 94 9b 22 	call	0x4536	; 0x4536 <fsp_gen_cmd_w_data_pkt>
    1ef2:	ae 01       	movw	r20, r28
    1ef4:	4f 5f       	subi	r20, 0xFF	; 255
    1ef6:	5f 4f       	sbci	r21, 0xFF	; 255
    1ef8:	b6 01       	movw	r22, r12
    1efa:	c7 01       	movw	r24, r14
    1efc:	0e 94 b8 22 	call	0x4570	; 0x4570 <fsp_encode>
    1f00:	69 81       	ldd	r22, Y+1	; 0x01
    1f02:	c6 01       	movw	r24, r12
    1f04:	0e 94 56 1a 	call	0x34ac	; 0x34ac <usart1_send_array>
    1f08:	60 96       	adiw	r28, 0x10	; 16
    1f0a:	0f b6       	in	r0, 0x3f	; 63
    1f0c:	f8 94       	cli
    1f0e:	de bf       	out	0x3e, r29	; 62
    1f10:	0f be       	out	0x3f, r0	; 63
    1f12:	cd bf       	out	0x3d, r28	; 61
    1f14:	df 91       	pop	r29
    1f16:	cf 91       	pop	r28
    1f18:	0f 91       	pop	r16
    1f1a:	ff 90       	pop	r15
    1f1c:	ef 90       	pop	r14
    1f1e:	df 90       	pop	r13
    1f20:	cf 90       	pop	r12
    1f22:	08 95       	ret

00001f24 <copc_iou_set_temp>:
    1f24:	e0 91 8a 0a 	lds	r30, 0x0A8A	; 0x800a8a <s_pCOPC_Sfp_Payload>
    1f28:	f0 91 8b 0a 	lds	r31, 0x0A8B	; 0x800a8b <s_pCOPC_Sfp_Payload+0x1>
    1f2c:	61 81       	ldd	r22, Z+1	; 0x01
    1f2e:	62 30       	cpi	r22, 0x02	; 2
    1f30:	50 f4       	brcc	.+20     	; 0x1f46 <copc_iou_set_temp+0x22>
    1f32:	82 81       	ldd	r24, Z+2	; 0x02
    1f34:	90 e0       	ldi	r25, 0x00	; 0
    1f36:	98 2f       	mov	r25, r24
    1f38:	88 27       	eor	r24, r24
    1f3a:	23 81       	ldd	r18, Z+3	; 0x03
    1f3c:	82 2b       	or	r24, r18
    1f3e:	0e 94 1f 14 	call	0x283e	; 0x283e <temperature_set_point>
    1f42:	0e 94 4e 0f 	call	0x1e9c	; 0x1e9c <OK_Send>
    1f46:	08 95       	ret

00001f48 <copc_iou_tec_ena>:
    1f48:	e0 91 8a 0a 	lds	r30, 0x0A8A	; 0x800a8a <s_pCOPC_Sfp_Payload>
    1f4c:	f0 91 8b 0a 	lds	r31, 0x0A8B	; 0x800a8b <s_pCOPC_Sfp_Payload+0x1>
    1f50:	81 81       	ldd	r24, Z+1	; 0x01
    1f52:	82 30       	cpi	r24, 0x02	; 2
    1f54:	20 f4       	brcc	.+8      	; 0x1f5e <copc_iou_tec_ena+0x16>
    1f56:	0e 94 3f 14 	call	0x287e	; 0x287e <temperature_enable_TEC>
    1f5a:	0e 94 4e 0f 	call	0x1e9c	; 0x1e9c <OK_Send>
    1f5e:	08 95       	ret

00001f60 <copc_iou_tec_dis>:
    1f60:	e0 91 8a 0a 	lds	r30, 0x0A8A	; 0x800a8a <s_pCOPC_Sfp_Payload>
    1f64:	f0 91 8b 0a 	lds	r31, 0x0A8B	; 0x800a8b <s_pCOPC_Sfp_Payload+0x1>
    1f68:	81 81       	ldd	r24, Z+1	; 0x01
    1f6a:	82 30       	cpi	r24, 0x02	; 2
    1f6c:	20 f4       	brcc	.+8      	; 0x1f76 <copc_iou_tec_dis+0x16>
    1f6e:	0e 94 52 14 	call	0x28a4	; 0x28a4 <temperature_disable_TEC>
    1f72:	0e 94 4e 0f 	call	0x1e9c	; 0x1e9c <OK_Send>
    1f76:	08 95       	ret

00001f78 <copc_iou_tec_ena_auto>:
    1f78:	cf 93       	push	r28
    1f7a:	e0 91 8a 0a 	lds	r30, 0x0A8A	; 0x800a8a <s_pCOPC_Sfp_Payload>
    1f7e:	f0 91 8b 0a 	lds	r31, 0x0A8B	; 0x800a8b <s_pCOPC_Sfp_Payload+0x1>
    1f82:	81 81       	ldd	r24, Z+1	; 0x01
    1f84:	82 30       	cpi	r24, 0x02	; 2
    1f86:	70 f4       	brcc	.+28     	; 0x1fa4 <copc_iou_tec_ena_auto+0x2c>
    1f88:	c8 2f       	mov	r28, r24
    1f8a:	cc 0f       	add	r28, r28
    1f8c:	8c 2f       	mov	r24, r28
    1f8e:	0e 94 8a 16 	call	0x2d14	; 0x2d14 <temperature_enable_auto_control_TEC>
    1f92:	8c 2f       	mov	r24, r28
    1f94:	0e 94 52 14 	call	0x28a4	; 0x28a4 <temperature_disable_TEC>
    1f98:	81 e0       	ldi	r24, 0x01	; 1
    1f9a:	8c 0f       	add	r24, r28
    1f9c:	0e 94 52 14 	call	0x28a4	; 0x28a4 <temperature_disable_TEC>
    1fa0:	0e 94 4e 0f 	call	0x1e9c	; 0x1e9c <OK_Send>
    1fa4:	cf 91       	pop	r28
    1fa6:	08 95       	ret

00001fa8 <copc_iou_tec_dis_auto>:
    1fa8:	e0 91 8a 0a 	lds	r30, 0x0A8A	; 0x800a8a <s_pCOPC_Sfp_Payload>
    1fac:	f0 91 8b 0a 	lds	r31, 0x0A8B	; 0x800a8b <s_pCOPC_Sfp_Payload+0x1>
    1fb0:	81 81       	ldd	r24, Z+1	; 0x01
    1fb2:	82 30       	cpi	r24, 0x02	; 2
    1fb4:	28 f4       	brcc	.+10     	; 0x1fc0 <copc_iou_tec_dis_auto+0x18>
    1fb6:	88 0f       	add	r24, r24
    1fb8:	0e 94 66 14 	call	0x28cc	; 0x28cc <temperature_disable_auto_control_TEC>
    1fbc:	0e 94 4e 0f 	call	0x1e9c	; 0x1e9c <OK_Send>
    1fc0:	08 95       	ret

00001fc2 <copc_iou_tec_set_output>:
    1fc2:	e0 91 8a 0a 	lds	r30, 0x0A8A	; 0x800a8a <s_pCOPC_Sfp_Payload>
    1fc6:	f0 91 8b 0a 	lds	r31, 0x0A8B	; 0x800a8b <s_pCOPC_Sfp_Payload+0x1>
    1fca:	81 81       	ldd	r24, Z+1	; 0x01
    1fcc:	82 30       	cpi	r24, 0x02	; 2
    1fce:	58 f4       	brcc	.+22     	; 0x1fe6 <copc_iou_tec_set_output+0x24>
    1fd0:	43 81       	ldd	r20, Z+3	; 0x03
    1fd2:	50 e0       	ldi	r21, 0x00	; 0
    1fd4:	54 2f       	mov	r21, r20
    1fd6:	44 27       	eor	r20, r20
    1fd8:	94 81       	ldd	r25, Z+4	; 0x04
    1fda:	49 2b       	or	r20, r25
    1fdc:	62 81       	ldd	r22, Z+2	; 0x02
    1fde:	0e 94 7a 14 	call	0x28f4	; 0x28f4 <temperature_set_TEC_output>
    1fe2:	0e 94 4e 0f 	call	0x1e9c	; 0x1e9c <OK_Send>
    1fe6:	08 95       	ret

00001fe8 <copc_iou_tec_set_auto_vol>:
    1fe8:	e0 91 8a 0a 	lds	r30, 0x0A8A	; 0x800a8a <s_pCOPC_Sfp_Payload>
    1fec:	f0 91 8b 0a 	lds	r31, 0x0A8B	; 0x800a8b <s_pCOPC_Sfp_Payload+0x1>
    1ff0:	81 81       	ldd	r24, Z+1	; 0x01
    1ff2:	82 30       	cpi	r24, 0x02	; 2
    1ff4:	50 f4       	brcc	.+20     	; 0x200a <copc_iou_tec_set_auto_vol+0x22>
    1ff6:	62 81       	ldd	r22, Z+2	; 0x02
    1ff8:	70 e0       	ldi	r23, 0x00	; 0
    1ffa:	76 2f       	mov	r23, r22
    1ffc:	66 27       	eor	r22, r22
    1ffe:	93 81       	ldd	r25, Z+3	; 0x03
    2000:	69 2b       	or	r22, r25
    2002:	0e 94 bf 16 	call	0x2d7e	; 0x2d7e <temperature_set_auto_voltage>
    2006:	0e 94 4e 0f 	call	0x1e9c	; 0x1e9c <OK_Send>
    200a:	08 95       	ret

0000200c <copc_iou_ringled_set_RGBW>:
	return;
}
void copc_iou_ringled_set_RGBW(void)
{
	rgbw_color RGBW;
	RGBW.red = s_pCOPC_Sfp_Payload->neoSetRGBCommandFrame.red;
    200c:	e0 91 8a 0a 	lds	r30, 0x0A8A	; 0x800a8a <s_pCOPC_Sfp_Payload>
    2010:	f0 91 8b 0a 	lds	r31, 0x0A8B	; 0x800a8b <s_pCOPC_Sfp_Payload+0x1>
	RGBW.green = s_pCOPC_Sfp_Payload->neoSetRGBCommandFrame.green;
	RGBW.blue = s_pCOPC_Sfp_Payload->neoSetRGBCommandFrame.blue;
	RGBW.white = s_pCOPC_Sfp_Payload->neoSetRGBCommandFrame.white;
	ringled_set_RGBW(RGBW.red, RGBW.green, RGBW.blue, RGBW.white);
    2014:	24 81       	ldd	r18, Z+4	; 0x04
    2016:	43 81       	ldd	r20, Z+3	; 0x03
    2018:	62 81       	ldd	r22, Z+2	; 0x02
    201a:	81 81       	ldd	r24, Z+1	; 0x01
    201c:	0e 94 00 20 	call	0x4000	; 0x4000 <ringled_set_RGBW>
	OK_Send();
    2020:	0e 94 4e 0f 	call	0x1e9c	; 0x1e9c <OK_Send>
    2024:	08 95       	ret

00002026 <copc_iou_irled_set_bright>:
}

void copc_iou_irled_set_bright(void)
{
	uint8_t _duty = s_pCOPC_Sfp_Payload->IrSetCommandFrame.duty;
    2026:	e0 91 8a 0a 	lds	r30, 0x0A8A	; 0x800a8a <s_pCOPC_Sfp_Payload>
    202a:	f0 91 8b 0a 	lds	r31, 0x0A8B	; 0x800a8b <s_pCOPC_Sfp_Payload+0x1>
    202e:	81 81       	ldd	r24, Z+1	; 0x01
	if (_duty > 100) _duty = 100;
	IR_led_set_DutyCyclesPercent(_duty);
    2030:	85 36       	cpi	r24, 0x65	; 101
    2032:	08 f0       	brcs	.+2      	; 0x2036 <copc_iou_irled_set_bright+0x10>
    2034:	84 e6       	ldi	r24, 0x64	; 100
    2036:	0e 94 4d 13 	call	0x269a	; 0x269a <IR_led_set_DutyCyclesPercent>
	OK_Send();
    203a:	0e 94 4e 0f 	call	0x1e9c	; 0x1e9c <OK_Send>
    203e:	08 95       	ret

00002040 <copc_iou_get_temp>:
}

//Function send to COPC data in struct payload
void copc_iou_get_temp(void)
{
    2040:	ef 92       	push	r14
    2042:	ff 92       	push	r15
    2044:	0f 93       	push	r16
    2046:	cf 93       	push	r28
    2048:	df 93       	push	r29
    204a:	cd b7       	in	r28, 0x3d	; 61
    204c:	de b7       	in	r29, 0x3e	; 62
    204e:	e3 97       	sbiw	r28, 0x33	; 51
    2050:	0f b6       	in	r0, 0x3f	; 63
    2052:	f8 94       	cli
    2054:	de bf       	out	0x3e, r29	; 62
    2056:	0f be       	out	0x3f, r0	; 63
    2058:	cd bf       	out	0x3d, r28	; 61
	uint8_t device = s_pCOPC_Sfp_Payload->getTempCommandFrame.device;
    205a:	e0 91 8a 0a 	lds	r30, 0x0A8A	; 0x800a8a <s_pCOPC_Sfp_Payload>
    205e:	f0 91 8b 0a 	lds	r31, 0x0A8B	; 0x800a8b <s_pCOPC_Sfp_Payload+0x1>
    2062:	21 81       	ldd	r18, Z+1	; 0x01
	uint8_t channel = s_pCOPC_Sfp_Payload->getTempCommandFrame.channel;
	uint16_t temp;
	uint8_t encode_frame[FSP_PKT_MAX_LENGTH];
	uint8_t frame_len;
	if (device > 2 || channel > (MAX_CHANNEL-1))
    2064:	23 30       	cpi	r18, 0x03	; 3
    2066:	08 f0       	brcs	.+2      	; 0x206a <copc_iou_get_temp+0x2a>
    2068:	41 c0       	rjmp	.+130    	; 0x20ec <copc_iou_get_temp+0xac>

//Function send to COPC data in struct payload
void copc_iou_get_temp(void)
{
	uint8_t device = s_pCOPC_Sfp_Payload->getTempCommandFrame.device;
	uint8_t channel = s_pCOPC_Sfp_Payload->getTempCommandFrame.channel;
    206a:	82 81       	ldd	r24, Z+2	; 0x02
	uint16_t temp;
	uint8_t encode_frame[FSP_PKT_MAX_LENGTH];
	uint8_t frame_len;
	if (device > 2 || channel > (MAX_CHANNEL-1))
    206c:	82 30       	cpi	r24, 0x02	; 2
    206e:	f0 f5       	brcc	.+124    	; 0x20ec <copc_iou_get_temp+0xac>
		return;
	else
	{
		s_pIOU_Sfp_Payload->iouGetTempResponseFrame.Cmd = s_pCOPC_Sfp_Payload->commonFrame.Cmd;
    2070:	a0 91 88 0a 	lds	r26, 0x0A88	; 0x800a88 <s_pIOU_Sfp_Payload>
    2074:	b0 91 89 0a 	lds	r27, 0x0A89	; 0x800a89 <s_pIOU_Sfp_Payload+0x1>
    2078:	40 81       	ld	r20, Z
    207a:	4c 93       	st	X, r20
		s_pIOU_Sfp_Payload->iouGetTempResponseFrame.device = device;
    207c:	11 96       	adiw	r26, 0x01	; 1
    207e:	2c 93       	st	X, r18
    2080:	11 97       	sbiw	r26, 0x01	; 1
		s_pIOU_Sfp_Payload->iouGetTempResponseFrame.channel = channel;
    2082:	12 96       	adiw	r26, 0x02	; 2
    2084:	8c 93       	st	X, r24
		if (device == 0)
    2086:	21 11       	cpse	r18, r1
    2088:	04 c0       	rjmp	.+8      	; 0x2092 <copc_iou_get_temp+0x52>
			temp = (uint16_t)temperature_get_NTC(channel);
    208a:	0e 94 28 14 	call	0x2850	; 0x2850 <temperature_get_NTC>
    208e:	38 2f       	mov	r19, r24
    2090:	0b c0       	rjmp	.+22     	; 0x20a8 <copc_iou_get_temp+0x68>
		if (device == 1)
    2092:	21 30       	cpi	r18, 0x01	; 1
    2094:	21 f4       	brne	.+8      	; 0x209e <copc_iou_get_temp+0x5e>
			temp = (uint16_t)temperature_get_onewire(channel);
    2096:	0e 94 31 14 	call	0x2862	; 0x2862 <temperature_get_onewire>
    209a:	38 2f       	mov	r19, r24
    209c:	05 c0       	rjmp	.+10     	; 0x20a8 <copc_iou_get_temp+0x68>
		if (device == 2)
    209e:	22 30       	cpi	r18, 0x02	; 2
    20a0:	19 f4       	brne	.+6      	; 0x20a8 <copc_iou_get_temp+0x68>
			temp = (uint16_t)temperature_get_bmp390();
    20a2:	0e 94 3a 14 	call	0x2874	; 0x2874 <temperature_get_bmp390>
    20a6:	38 2f       	mov	r19, r24
		s_pIOU_Sfp_Payload->iouGetTempResponseFrame.temperature_high = (uint8_t)(temp >> 8);
    20a8:	60 91 88 0a 	lds	r22, 0x0A88	; 0x800a88 <s_pIOU_Sfp_Payload>
    20ac:	70 91 89 0a 	lds	r23, 0x0A89	; 0x800a89 <s_pIOU_Sfp_Payload+0x1>
    20b0:	fb 01       	movw	r30, r22
    20b2:	93 83       	std	Z+3, r25	; 0x03
		s_pIOU_Sfp_Payload->iouGetTempResponseFrame.temperature_low = (uint8_t)(temp);
    20b4:	34 83       	std	Z+4, r19	; 0x04
		fsp_gen_pkt((void*)0, &s_pIOU_Sfp_Payload->iouGetTempResponseFrame, 5, FSP_ADR_COPC, FSP_PKT_TYPE_CMD_W_DATA, &s_IOU_FspPacket);
    20b6:	0f 2e       	mov	r0, r31
    20b8:	fc e8       	ldi	r31, 0x8C	; 140
    20ba:	ef 2e       	mov	r14, r31
    20bc:	fa e0       	ldi	r31, 0x0A	; 10
    20be:	ff 2e       	mov	r15, r31
    20c0:	f0 2d       	mov	r31, r0
    20c2:	07 e0       	ldi	r16, 0x07	; 7
    20c4:	21 e0       	ldi	r18, 0x01	; 1
    20c6:	45 e0       	ldi	r20, 0x05	; 5
    20c8:	80 e0       	ldi	r24, 0x00	; 0
    20ca:	90 e0       	ldi	r25, 0x00	; 0
    20cc:	0e 94 61 22 	call	0x44c2	; 0x44c2 <fsp_gen_pkt>
 		fsp_encode(&s_IOU_FspPacket, encode_frame, &frame_len);
    20d0:	ae 01       	movw	r20, r28
    20d2:	4d 5c       	subi	r20, 0xCD	; 205
    20d4:	5f 4f       	sbci	r21, 0xFF	; 255
    20d6:	be 01       	movw	r22, r28
    20d8:	6f 5f       	subi	r22, 0xFF	; 255
    20da:	7f 4f       	sbci	r23, 0xFF	; 255
    20dc:	c7 01       	movw	r24, r14
    20de:	0e 94 b8 22 	call	0x4570	; 0x4570 <fsp_encode>
		usart1_send_array(encode_frame, frame_len);
    20e2:	6b a9       	ldd	r22, Y+51	; 0x33
    20e4:	ce 01       	movw	r24, r28
    20e6:	01 96       	adiw	r24, 0x01	; 1
    20e8:	0e 94 56 1a 	call	0x34ac	; 0x34ac <usart1_send_array>
	}
}
    20ec:	e3 96       	adiw	r28, 0x33	; 51
    20ee:	0f b6       	in	r0, 0x3f	; 63
    20f0:	f8 94       	cli
    20f2:	de bf       	out	0x3e, r29	; 62
    20f4:	0f be       	out	0x3f, r0	; 63
    20f6:	cd bf       	out	0x3d, r28	; 61
    20f8:	df 91       	pop	r29
    20fa:	cf 91       	pop	r28
    20fc:	0f 91       	pop	r16
    20fe:	ff 90       	pop	r15
    2100:	ef 90       	pop	r14
    2102:	08 95       	ret

00002104 <copc_iou_get_temp_setpoint>:
void copc_iou_get_temp_setpoint(void)
{
    2104:	ef 92       	push	r14
    2106:	ff 92       	push	r15
    2108:	0f 93       	push	r16
    210a:	1f 93       	push	r17
    210c:	cf 93       	push	r28
    210e:	df 93       	push	r29
    2110:	cd b7       	in	r28, 0x3d	; 61
    2112:	de b7       	in	r29, 0x3e	; 62
    2114:	e3 97       	sbiw	r28, 0x33	; 51
    2116:	0f b6       	in	r0, 0x3f	; 63
    2118:	f8 94       	cli
    211a:	de bf       	out	0x3e, r29	; 62
    211c:	0f be       	out	0x3f, r0	; 63
    211e:	cd bf       	out	0x3d, r28	; 61
	uint8_t channel = s_pCOPC_Sfp_Payload->getTempSetpointCommandFrame.channel;
    2120:	e0 91 8a 0a 	lds	r30, 0x0A8A	; 0x800a8a <s_pCOPC_Sfp_Payload>
    2124:	f0 91 8b 0a 	lds	r31, 0x0A8B	; 0x800a8b <s_pCOPC_Sfp_Payload+0x1>
    2128:	11 81       	ldd	r17, Z+1	; 0x01
	if (channel > (MAX_CHANNEL-1))
    212a:	12 30       	cpi	r17, 0x02	; 2
    212c:	60 f5       	brcc	.+88     	; 0x2186 <copc_iou_get_temp_setpoint+0x82>
		return;
	uint8_t encode_frame[FSP_PKT_MAX_LENGTH];
	uint8_t frame_len;
	uint16_t setpoint = (uint16_t)temperature_get_setpoint(channel);
    212e:	81 2f       	mov	r24, r17
    2130:	0e 94 ad 16 	call	0x2d5a	; 0x2d5a <temperature_get_setpoint>
	
	s_pIOU_Sfp_Payload->iouGetTempSetpointResponseFrame.Cmd = s_pCOPC_Sfp_Payload->commonFrame.Cmd;
    2134:	e0 91 88 0a 	lds	r30, 0x0A88	; 0x800a88 <s_pIOU_Sfp_Payload>
    2138:	f0 91 89 0a 	lds	r31, 0x0A89	; 0x800a89 <s_pIOU_Sfp_Payload+0x1>
    213c:	a0 91 8a 0a 	lds	r26, 0x0A8A	; 0x800a8a <s_pCOPC_Sfp_Payload>
    2140:	b0 91 8b 0a 	lds	r27, 0x0A8B	; 0x800a8b <s_pCOPC_Sfp_Payload+0x1>
    2144:	2c 91       	ld	r18, X
    2146:	20 83       	st	Z, r18
	s_pIOU_Sfp_Payload->iouGetTempSetpointResponseFrame.channel = channel;
    2148:	11 83       	std	Z+1, r17	; 0x01
	s_pIOU_Sfp_Payload->iouGetTempSetpointResponseFrame.temperature_high = (uint8_t)(setpoint >> 8);
    214a:	92 83       	std	Z+2, r25	; 0x02
	s_pIOU_Sfp_Payload->iouGetTempSetpointResponseFrame.temperature_low = (uint8_t)(setpoint);
    214c:	83 83       	std	Z+3, r24	; 0x03
	
	fsp_gen_pkt((void*)0, &s_pIOU_Sfp_Payload->iouGetTempSetpointResponseFrame, 4, FSP_ADR_COPC, FSP_PKT_TYPE_CMD_W_DATA, &s_IOU_FspPacket);
    214e:	0f 2e       	mov	r0, r31
    2150:	fc e8       	ldi	r31, 0x8C	; 140
    2152:	ef 2e       	mov	r14, r31
    2154:	fa e0       	ldi	r31, 0x0A	; 10
    2156:	ff 2e       	mov	r15, r31
    2158:	f0 2d       	mov	r31, r0
    215a:	07 e0       	ldi	r16, 0x07	; 7
    215c:	21 e0       	ldi	r18, 0x01	; 1
    215e:	44 e0       	ldi	r20, 0x04	; 4
    2160:	bf 01       	movw	r22, r30
    2162:	80 e0       	ldi	r24, 0x00	; 0
    2164:	90 e0       	ldi	r25, 0x00	; 0
    2166:	0e 94 61 22 	call	0x44c2	; 0x44c2 <fsp_gen_pkt>
	fsp_encode(&s_IOU_FspPacket, encode_frame, &frame_len);
    216a:	ae 01       	movw	r20, r28
    216c:	4d 5c       	subi	r20, 0xCD	; 205
    216e:	5f 4f       	sbci	r21, 0xFF	; 255
    2170:	be 01       	movw	r22, r28
    2172:	6f 5f       	subi	r22, 0xFF	; 255
    2174:	7f 4f       	sbci	r23, 0xFF	; 255
    2176:	c7 01       	movw	r24, r14
    2178:	0e 94 b8 22 	call	0x4570	; 0x4570 <fsp_encode>
	usart1_send_array(encode_frame, frame_len);
    217c:	6b a9       	ldd	r22, Y+51	; 0x33
    217e:	ce 01       	movw	r24, r28
    2180:	01 96       	adiw	r24, 0x01	; 1
    2182:	0e 94 56 1a 	call	0x34ac	; 0x34ac <usart1_send_array>
}
    2186:	e3 96       	adiw	r28, 0x33	; 51
    2188:	0f b6       	in	r0, 0x3f	; 63
    218a:	f8 94       	cli
    218c:	de bf       	out	0x3e, r29	; 62
    218e:	0f be       	out	0x3f, r0	; 63
    2190:	cd bf       	out	0x3d, r28	; 61
    2192:	df 91       	pop	r29
    2194:	cf 91       	pop	r28
    2196:	1f 91       	pop	r17
    2198:	0f 91       	pop	r16
    219a:	ff 90       	pop	r15
    219c:	ef 90       	pop	r14
    219e:	08 95       	ret

000021a0 <copc_iou_ringled_get_RGBW>:
void copc_iou_ringled_get_RGBW(void)
{
    21a0:	ef 92       	push	r14
    21a2:	ff 92       	push	r15
    21a4:	0f 93       	push	r16
    21a6:	cf 93       	push	r28
    21a8:	df 93       	push	r29
    21aa:	cd b7       	in	r28, 0x3d	; 61
    21ac:	de b7       	in	r29, 0x3e	; 62
    21ae:	e3 97       	sbiw	r28, 0x33	; 51
    21b0:	0f b6       	in	r0, 0x3f	; 63
    21b2:	f8 94       	cli
    21b4:	de bf       	out	0x3e, r29	; 62
    21b6:	0f be       	out	0x3f, r0	; 63
    21b8:	cd bf       	out	0x3d, r28	; 61
	uint8_t encode_frame[FSP_PKT_MAX_LENGTH];
	uint8_t frame_len;
	rgbw_color RGBW = ringled_get_RGBW();
    21ba:	0e 94 18 20 	call	0x4030	; 0x4030 <ringled_get_RGBW>
	s_pIOU_Sfp_Payload->iouRingledGetRGBResponseFrame.Cmd = s_pCOPC_Sfp_Payload->commonFrame.Cmd;
    21be:	e0 91 88 0a 	lds	r30, 0x0A88	; 0x800a88 <s_pIOU_Sfp_Payload>
    21c2:	f0 91 89 0a 	lds	r31, 0x0A89	; 0x800a89 <s_pIOU_Sfp_Payload+0x1>
    21c6:	a0 91 8a 0a 	lds	r26, 0x0A8A	; 0x800a8a <s_pCOPC_Sfp_Payload>
    21ca:	b0 91 8b 0a 	lds	r27, 0x0A8B	; 0x800a8b <s_pCOPC_Sfp_Payload+0x1>
    21ce:	2c 91       	ld	r18, X
    21d0:	20 83       	st	Z, r18
	s_pIOU_Sfp_Payload->iouRingledGetRGBResponseFrame.red = RGBW.red;
    21d2:	61 83       	std	Z+1, r22	; 0x01
	s_pIOU_Sfp_Payload->iouRingledGetRGBResponseFrame.green = RGBW.green;
    21d4:	72 83       	std	Z+2, r23	; 0x02
	s_pIOU_Sfp_Payload->iouRingledGetRGBResponseFrame.blue = RGBW.blue;
    21d6:	83 83       	std	Z+3, r24	; 0x03
	s_pIOU_Sfp_Payload->iouRingledGetRGBResponseFrame.white = RGBW.white;
    21d8:	94 83       	std	Z+4, r25	; 0x04
	fsp_gen_pkt((void*)0, &s_pIOU_Sfp_Payload->iouRingledGetRGBResponseFrame, 5, FSP_ADR_COPC, FSP_PKT_TYPE_CMD_W_DATA, &s_IOU_FspPacket);
    21da:	0f 2e       	mov	r0, r31
    21dc:	fc e8       	ldi	r31, 0x8C	; 140
    21de:	ef 2e       	mov	r14, r31
    21e0:	fa e0       	ldi	r31, 0x0A	; 10
    21e2:	ff 2e       	mov	r15, r31
    21e4:	f0 2d       	mov	r31, r0
    21e6:	07 e0       	ldi	r16, 0x07	; 7
    21e8:	21 e0       	ldi	r18, 0x01	; 1
    21ea:	45 e0       	ldi	r20, 0x05	; 5
    21ec:	bf 01       	movw	r22, r30
    21ee:	80 e0       	ldi	r24, 0x00	; 0
    21f0:	90 e0       	ldi	r25, 0x00	; 0
    21f2:	0e 94 61 22 	call	0x44c2	; 0x44c2 <fsp_gen_pkt>
	fsp_encode(&s_IOU_FspPacket, encode_frame, &frame_len);
    21f6:	ae 01       	movw	r20, r28
    21f8:	4d 5c       	subi	r20, 0xCD	; 205
    21fa:	5f 4f       	sbci	r21, 0xFF	; 255
    21fc:	be 01       	movw	r22, r28
    21fe:	6f 5f       	subi	r22, 0xFF	; 255
    2200:	7f 4f       	sbci	r23, 0xFF	; 255
    2202:	c7 01       	movw	r24, r14
    2204:	0e 94 b8 22 	call	0x4570	; 0x4570 <fsp_encode>
	usart1_send_array(encode_frame, frame_len);
    2208:	6b a9       	ldd	r22, Y+51	; 0x33
    220a:	ce 01       	movw	r24, r28
    220c:	01 96       	adiw	r24, 0x01	; 1
    220e:	0e 94 56 1a 	call	0x34ac	; 0x34ac <usart1_send_array>
}
    2212:	e3 96       	adiw	r28, 0x33	; 51
    2214:	0f b6       	in	r0, 0x3f	; 63
    2216:	f8 94       	cli
    2218:	de bf       	out	0x3e, r29	; 62
    221a:	0f be       	out	0x3f, r0	; 63
    221c:	cd bf       	out	0x3d, r28	; 61
    221e:	df 91       	pop	r29
    2220:	cf 91       	pop	r28
    2222:	0f 91       	pop	r16
    2224:	ff 90       	pop	r15
    2226:	ef 90       	pop	r14
    2228:	08 95       	ret

0000222a <copc_iou_irled_get_bright>:
void copc_iou_irled_get_bright(void)
{
    222a:	ef 92       	push	r14
    222c:	ff 92       	push	r15
    222e:	0f 93       	push	r16
    2230:	cf 93       	push	r28
    2232:	df 93       	push	r29
    2234:	cd b7       	in	r28, 0x3d	; 61
    2236:	de b7       	in	r29, 0x3e	; 62
    2238:	e3 97       	sbiw	r28, 0x33	; 51
    223a:	0f b6       	in	r0, 0x3f	; 63
    223c:	f8 94       	cli
    223e:	de bf       	out	0x3e, r29	; 62
    2240:	0f be       	out	0x3f, r0	; 63
    2242:	cd bf       	out	0x3d, r28	; 61
	uint8_t encode_frame[FSP_PKT_MAX_LENGTH];
	uint8_t frame_len;
	uint8_t duty = IR_led_get_Current_DutyCyclesPercent();
    2244:	0e 94 59 13 	call	0x26b2	; 0x26b2 <IR_led_get_Current_DutyCyclesPercent>
	s_pIOU_Sfp_Payload->iouIRledGetBrightResponseFrame.Cmd = s_pCOPC_Sfp_Payload->commonFrame.Cmd;
    2248:	60 91 88 0a 	lds	r22, 0x0A88	; 0x800a88 <s_pIOU_Sfp_Payload>
    224c:	70 91 89 0a 	lds	r23, 0x0A89	; 0x800a89 <s_pIOU_Sfp_Payload+0x1>
    2250:	e0 91 8a 0a 	lds	r30, 0x0A8A	; 0x800a8a <s_pCOPC_Sfp_Payload>
    2254:	f0 91 8b 0a 	lds	r31, 0x0A8B	; 0x800a8b <s_pCOPC_Sfp_Payload+0x1>
    2258:	90 81       	ld	r25, Z
    225a:	fb 01       	movw	r30, r22
    225c:	90 83       	st	Z, r25
	s_pIOU_Sfp_Payload->iouIRledGetBrightResponseFrame.duty =duty;
    225e:	81 83       	std	Z+1, r24	; 0x01
	fsp_gen_pkt((void*)0, &s_pIOU_Sfp_Payload->iouIRledGetBrightResponseFrame, 2, FSP_ADR_COPC, FSP_PKT_TYPE_CMD_W_DATA, &s_IOU_FspPacket);
    2260:	0f 2e       	mov	r0, r31
    2262:	fc e8       	ldi	r31, 0x8C	; 140
    2264:	ef 2e       	mov	r14, r31
    2266:	fa e0       	ldi	r31, 0x0A	; 10
    2268:	ff 2e       	mov	r15, r31
    226a:	f0 2d       	mov	r31, r0
    226c:	07 e0       	ldi	r16, 0x07	; 7
    226e:	21 e0       	ldi	r18, 0x01	; 1
    2270:	42 e0       	ldi	r20, 0x02	; 2
    2272:	80 e0       	ldi	r24, 0x00	; 0
    2274:	90 e0       	ldi	r25, 0x00	; 0
    2276:	0e 94 61 22 	call	0x44c2	; 0x44c2 <fsp_gen_pkt>
	fsp_encode(&s_IOU_FspPacket, encode_frame, &frame_len);
    227a:	ae 01       	movw	r20, r28
    227c:	4d 5c       	subi	r20, 0xCD	; 205
    227e:	5f 4f       	sbci	r21, 0xFF	; 255
    2280:	be 01       	movw	r22, r28
    2282:	6f 5f       	subi	r22, 0xFF	; 255
    2284:	7f 4f       	sbci	r23, 0xFF	; 255
    2286:	c7 01       	movw	r24, r14
    2288:	0e 94 b8 22 	call	0x4570	; 0x4570 <fsp_encode>
	usart1_send_array(encode_frame, frame_len);
    228c:	6b a9       	ldd	r22, Y+51	; 0x33
    228e:	ce 01       	movw	r24, r28
    2290:	01 96       	adiw	r24, 0x01	; 1
    2292:	0e 94 56 1a 	call	0x34ac	; 0x34ac <usart1_send_array>
}
    2296:	e3 96       	adiw	r28, 0x33	; 51
    2298:	0f b6       	in	r0, 0x3f	; 63
    229a:	f8 94       	cli
    229c:	de bf       	out	0x3e, r29	; 62
    229e:	0f be       	out	0x3f, r0	; 63
    22a0:	cd bf       	out	0x3d, r28	; 61
    22a2:	df 91       	pop	r29
    22a4:	cf 91       	pop	r28
    22a6:	0f 91       	pop	r16
    22a8:	ff 90       	pop	r15
    22aa:	ef 90       	pop	r14
    22ac:	08 95       	ret

000022ae <copc_iou_get_accel_gyro>:
void copc_iou_get_accel_gyro(void)
{	
    22ae:	cf 92       	push	r12
    22b0:	df 92       	push	r13
    22b2:	ef 92       	push	r14
    22b4:	ff 92       	push	r15
    22b6:	0f 93       	push	r16
    22b8:	1f 93       	push	r17
    22ba:	cf 93       	push	r28
    22bc:	df 93       	push	r29
    22be:	cd b7       	in	r28, 0x3d	; 61
    22c0:	de b7       	in	r29, 0x3e	; 62
    22c2:	ef 97       	sbiw	r28, 0x3f	; 63
    22c4:	0f b6       	in	r0, 0x3f	; 63
    22c6:	f8 94       	cli
    22c8:	de bf       	out	0x3e, r29	; 62
    22ca:	0f be       	out	0x3f, r0	; 63
    22cc:	cd bf       	out	0x3d, r28	; 61
	uint8_t encode_frame[FSP_PKT_MAX_LENGTH];
	uint8_t frame_len;
	Accel_Gyro_DataTypedef _accel_data = get_acceleration();
    22ce:	0e 94 a4 09 	call	0x1348	; 0x1348 <get_acceleration>
    22d2:	d2 2e       	mov	r13, r18
    22d4:	c3 2e       	mov	r12, r19
    22d6:	f4 2e       	mov	r15, r20
    22d8:	e5 2e       	mov	r14, r21
    22da:	16 2f       	mov	r17, r22
    22dc:	07 2f       	mov	r16, r23
    22de:	2c ab       	std	Y+52, r18	; 0x34
    22e0:	3d ab       	std	Y+53, r19	; 0x35
    22e2:	4e ab       	std	Y+54, r20	; 0x36
    22e4:	5f ab       	std	Y+55, r21	; 0x37
    22e6:	68 af       	std	Y+56, r22	; 0x38
    22e8:	79 af       	std	Y+57, r23	; 0x39
	Accel_Gyro_DataTypedef _gyro_data = get_gyroscope();
    22ea:	0e 94 c5 09 	call	0x138a	; 0x138a <get_gyroscope>
    22ee:	2a af       	std	Y+58, r18	; 0x3a
    22f0:	3b af       	std	Y+59, r19	; 0x3b
    22f2:	4c af       	std	Y+60, r20	; 0x3c
    22f4:	5d af       	std	Y+61, r21	; 0x3d
    22f6:	6e af       	std	Y+62, r22	; 0x3e
    22f8:	7f af       	std	Y+63, r23	; 0x3f
	s_pIOU_Sfp_Payload->iouIRledGetBrightResponseFrame.Cmd = s_pCOPC_Sfp_Payload->commonFrame.Cmd;
    22fa:	e0 91 88 0a 	lds	r30, 0x0A88	; 0x800a88 <s_pIOU_Sfp_Payload>
    22fe:	f0 91 89 0a 	lds	r31, 0x0A89	; 0x800a89 <s_pIOU_Sfp_Payload+0x1>
    2302:	a0 91 8a 0a 	lds	r26, 0x0A8A	; 0x800a8a <s_pCOPC_Sfp_Payload>
    2306:	b0 91 8b 0a 	lds	r27, 0x0A8B	; 0x800a8b <s_pCOPC_Sfp_Payload+0x1>
    230a:	8c 91       	ld	r24, X
    230c:	80 83       	st	Z, r24
	s_pIOU_Sfp_Payload->iouGetAccelGyroResponseFrame.accel_x_high = (uint8_t)(_accel_data.x >> 8);
    230e:	c1 82       	std	Z+1, r12	; 0x01
	s_pIOU_Sfp_Payload->iouGetAccelGyroResponseFrame.accel_x_low = (uint8_t)_accel_data.x;
    2310:	d2 82       	std	Z+2, r13	; 0x02
	s_pIOU_Sfp_Payload->iouGetAccelGyroResponseFrame.accel_y_high = (uint8_t)(_accel_data.y >> 8);
    2312:	e3 82       	std	Z+3, r14	; 0x03
	s_pIOU_Sfp_Payload->iouGetAccelGyroResponseFrame.accel_y_low = (uint8_t)_accel_data.y;
    2314:	f4 82       	std	Z+4, r15	; 0x04
	s_pIOU_Sfp_Payload->iouGetAccelGyroResponseFrame.accel_z_high = (uint8_t)(_accel_data.z >> 8);
    2316:	05 83       	std	Z+5, r16	; 0x05
	s_pIOU_Sfp_Payload->iouGetAccelGyroResponseFrame.accel_z_low = (uint8_t)_accel_data.z;
    2318:	16 83       	std	Z+6, r17	; 0x06
	s_pIOU_Sfp_Payload->iouGetAccelGyroResponseFrame.gyro_x_high = (uint8_t)(_gyro_data.x >> 8);
    231a:	37 83       	std	Z+7, r19	; 0x07
	s_pIOU_Sfp_Payload->iouGetAccelGyroResponseFrame.gyro_x_low = (uint8_t)_gyro_data.x;
    231c:	20 87       	std	Z+8, r18	; 0x08
	s_pIOU_Sfp_Payload->iouGetAccelGyroResponseFrame.gyro_y_high = (uint8_t)(_gyro_data.y >> 8);
    231e:	51 87       	std	Z+9, r21	; 0x09
	s_pIOU_Sfp_Payload->iouGetAccelGyroResponseFrame.gyro_y_low = (uint8_t)_gyro_data.y;
    2320:	42 87       	std	Z+10, r20	; 0x0a
	s_pIOU_Sfp_Payload->iouGetAccelGyroResponseFrame.gyro_z_high = (uint8_t)(_gyro_data.z >> 8);
    2322:	73 87       	std	Z+11, r23	; 0x0b
	s_pIOU_Sfp_Payload->iouGetAccelGyroResponseFrame.gyro_z_low = (uint8_t)_gyro_data.z;
    2324:	64 87       	std	Z+12, r22	; 0x0c
	fsp_gen_pkt((void*)0, &s_pIOU_Sfp_Payload->iouGetAccelGyroResponseFrame, 13, FSP_ADR_COPC, FSP_PKT_TYPE_CMD_W_DATA, &s_IOU_FspPacket);
    2326:	0f 2e       	mov	r0, r31
    2328:	fc e8       	ldi	r31, 0x8C	; 140
    232a:	ef 2e       	mov	r14, r31
    232c:	fa e0       	ldi	r31, 0x0A	; 10
    232e:	ff 2e       	mov	r15, r31
    2330:	f0 2d       	mov	r31, r0
    2332:	07 e0       	ldi	r16, 0x07	; 7
    2334:	21 e0       	ldi	r18, 0x01	; 1
    2336:	4d e0       	ldi	r20, 0x0D	; 13
    2338:	bf 01       	movw	r22, r30
    233a:	80 e0       	ldi	r24, 0x00	; 0
    233c:	90 e0       	ldi	r25, 0x00	; 0
    233e:	0e 94 61 22 	call	0x44c2	; 0x44c2 <fsp_gen_pkt>
	fsp_encode(&s_IOU_FspPacket, encode_frame, &frame_len);
    2342:	ae 01       	movw	r20, r28
    2344:	4d 5c       	subi	r20, 0xCD	; 205
    2346:	5f 4f       	sbci	r21, 0xFF	; 255
    2348:	be 01       	movw	r22, r28
    234a:	6f 5f       	subi	r22, 0xFF	; 255
    234c:	7f 4f       	sbci	r23, 0xFF	; 255
    234e:	c7 01       	movw	r24, r14
    2350:	0e 94 b8 22 	call	0x4570	; 0x4570 <fsp_encode>
	usart1_send_array(encode_frame, frame_len);
    2354:	6b a9       	ldd	r22, Y+51	; 0x33
    2356:	ce 01       	movw	r24, r28
    2358:	01 96       	adiw	r24, 0x01	; 1
    235a:	0e 94 56 1a 	call	0x34ac	; 0x34ac <usart1_send_array>
}
    235e:	ef 96       	adiw	r28, 0x3f	; 63
    2360:	0f b6       	in	r0, 0x3f	; 63
    2362:	f8 94       	cli
    2364:	de bf       	out	0x3e, r29	; 62
    2366:	0f be       	out	0x3f, r0	; 63
    2368:	cd bf       	out	0x3d, r28	; 61
    236a:	df 91       	pop	r29
    236c:	cf 91       	pop	r28
    236e:	1f 91       	pop	r17
    2370:	0f 91       	pop	r16
    2372:	ff 90       	pop	r15
    2374:	ef 90       	pop	r14
    2376:	df 90       	pop	r13
    2378:	cf 90       	pop	r12
    237a:	08 95       	ret

0000237c <copc_iou_get_press>:
void copc_iou_get_press(void)
{
    237c:	ef 92       	push	r14
    237e:	ff 92       	push	r15
    2380:	0f 93       	push	r16
    2382:	cf 93       	push	r28
    2384:	df 93       	push	r29
    2386:	cd b7       	in	r28, 0x3d	; 61
    2388:	de b7       	in	r29, 0x3e	; 62
    238a:	e3 97       	sbiw	r28, 0x33	; 51
    238c:	0f b6       	in	r0, 0x3f	; 63
    238e:	f8 94       	cli
    2390:	de bf       	out	0x3e, r29	; 62
    2392:	0f be       	out	0x3f, r0	; 63
    2394:	cd bf       	out	0x3d, r28	; 61
	uint8_t encode_frame[FSP_PKT_MAX_LENGTH];
	uint8_t frame_len;
	uint16_t _pressure = get_pressure();
    2396:	0e 94 15 14 	call	0x282a	; 0x282a <get_pressure>
	s_pIOU_Sfp_Payload->iouGetPressResponseFrame.Cmd = s_pCOPC_Sfp_Payload->commonFrame.Cmd;
    239a:	60 91 88 0a 	lds	r22, 0x0A88	; 0x800a88 <s_pIOU_Sfp_Payload>
    239e:	70 91 89 0a 	lds	r23, 0x0A89	; 0x800a89 <s_pIOU_Sfp_Payload+0x1>
    23a2:	e0 91 8a 0a 	lds	r30, 0x0A8A	; 0x800a8a <s_pCOPC_Sfp_Payload>
    23a6:	f0 91 8b 0a 	lds	r31, 0x0A8B	; 0x800a8b <s_pCOPC_Sfp_Payload+0x1>
    23aa:	90 81       	ld	r25, Z
    23ac:	fb 01       	movw	r30, r22
    23ae:	90 83       	st	Z, r25
	s_pIOU_Sfp_Payload->iouGetPressResponseFrame.pressure_high = (uint8_t)(_pressure >> 8);
	s_pIOU_Sfp_Payload->iouGetPressResponseFrame.pressure_high = (uint8_t)_pressure;
    23b0:	81 83       	std	Z+1, r24	; 0x01
	fsp_gen_pkt((void*)0, &s_pIOU_Sfp_Payload->iouGetPressResponseFrame, 3, FSP_ADR_COPC, FSP_PKT_TYPE_CMD_W_DATA, &s_IOU_FspPacket);
    23b2:	0f 2e       	mov	r0, r31
    23b4:	fc e8       	ldi	r31, 0x8C	; 140
    23b6:	ef 2e       	mov	r14, r31
    23b8:	fa e0       	ldi	r31, 0x0A	; 10
    23ba:	ff 2e       	mov	r15, r31
    23bc:	f0 2d       	mov	r31, r0
    23be:	07 e0       	ldi	r16, 0x07	; 7
    23c0:	21 e0       	ldi	r18, 0x01	; 1
    23c2:	43 e0       	ldi	r20, 0x03	; 3
    23c4:	80 e0       	ldi	r24, 0x00	; 0
    23c6:	90 e0       	ldi	r25, 0x00	; 0
    23c8:	0e 94 61 22 	call	0x44c2	; 0x44c2 <fsp_gen_pkt>
	fsp_encode(&s_IOU_FspPacket, encode_frame, &frame_len);
    23cc:	ae 01       	movw	r20, r28
    23ce:	4d 5c       	subi	r20, 0xCD	; 205
    23d0:	5f 4f       	sbci	r21, 0xFF	; 255
    23d2:	be 01       	movw	r22, r28
    23d4:	6f 5f       	subi	r22, 0xFF	; 255
    23d6:	7f 4f       	sbci	r23, 0xFF	; 255
    23d8:	c7 01       	movw	r24, r14
    23da:	0e 94 b8 22 	call	0x4570	; 0x4570 <fsp_encode>
	usart1_send_array(encode_frame, frame_len);
    23de:	6b a9       	ldd	r22, Y+51	; 0x33
    23e0:	ce 01       	movw	r24, r28
    23e2:	01 96       	adiw	r24, 0x01	; 1
    23e4:	0e 94 56 1a 	call	0x34ac	; 0x34ac <usart1_send_array>
}
    23e8:	e3 96       	adiw	r28, 0x33	; 51
    23ea:	0f b6       	in	r0, 0x3f	; 63
    23ec:	f8 94       	cli
    23ee:	de bf       	out	0x3e, r29	; 62
    23f0:	0f be       	out	0x3f, r0	; 63
    23f2:	cd bf       	out	0x3d, r28	; 61
    23f4:	df 91       	pop	r29
    23f6:	cf 91       	pop	r28
    23f8:	0f 91       	pop	r16
    23fa:	ff 90       	pop	r15
    23fc:	ef 90       	pop	r14
    23fe:	08 95       	ret

00002400 <copc_iou_get_param>:

void copc_iou_get_param(void)
{
    2400:	ef 92       	push	r14
    2402:	ff 92       	push	r15
    2404:	0f 93       	push	r16
    2406:	1f 93       	push	r17
    2408:	cf 93       	push	r28
    240a:	df 93       	push	r29
    240c:	cd b7       	in	r28, 0x3d	; 61
    240e:	de b7       	in	r29, 0x3e	; 62
    2410:	e3 97       	sbiw	r28, 0x33	; 51
    2412:	0f b6       	in	r0, 0x3f	; 63
    2414:	f8 94       	cli
    2416:	de bf       	out	0x3e, r29	; 62
    2418:	0f be       	out	0x3f, r0	; 63
    241a:	cd bf       	out	0x3d, r28	; 61
	uint8_t encode_frame[FSP_PKT_MAX_LENGTH];
	uint8_t frame_len;
	s_pIOU_Sfp_Payload->iouGetParamResponseFrame.Cmd = s_pCOPC_Sfp_Payload->commonFrame.Cmd;
    241c:	e0 91 8a 0a 	lds	r30, 0x0A8A	; 0x800a8a <s_pCOPC_Sfp_Payload>
    2420:	f0 91 8b 0a 	lds	r31, 0x0A8B	; 0x800a8b <s_pCOPC_Sfp_Payload+0x1>
    2424:	80 81       	ld	r24, Z
    2426:	e0 91 88 0a 	lds	r30, 0x0A88	; 0x800a88 <s_pIOU_Sfp_Payload>
    242a:	f0 91 89 0a 	lds	r31, 0x0A89	; 0x800a89 <s_pIOU_Sfp_Payload+0x1>
    242e:	80 83       	st	Z, r24
	// GET TEMP NTC
	uint16_t _temp = temperature_get_NTC(0);
    2430:	80 e0       	ldi	r24, 0x00	; 0
    2432:	0e 94 28 14 	call	0x2850	; 0x2850 <temperature_get_NTC>
	s_pIOU_Sfp_Payload->iouGetParamResponseFrame.Temp_NTC_channel_0_high = (uint8_t)(_temp >> 8);
    2436:	e0 91 88 0a 	lds	r30, 0x0A88	; 0x800a88 <s_pIOU_Sfp_Payload>
    243a:	f0 91 89 0a 	lds	r31, 0x0A89	; 0x800a89 <s_pIOU_Sfp_Payload+0x1>
    243e:	91 83       	std	Z+1, r25	; 0x01
	s_pIOU_Sfp_Payload->iouGetParamResponseFrame.Temp_NTC_channel_0_low = (uint8_t)_temp;
    2440:	82 83       	std	Z+2, r24	; 0x02
	_temp = temperature_get_NTC(1);
    2442:	81 e0       	ldi	r24, 0x01	; 1
    2444:	0e 94 28 14 	call	0x2850	; 0x2850 <temperature_get_NTC>
	s_pIOU_Sfp_Payload->iouGetParamResponseFrame.Temp_NTC_channel_1_high = (uint8_t)(_temp >> 8);
    2448:	e0 91 88 0a 	lds	r30, 0x0A88	; 0x800a88 <s_pIOU_Sfp_Payload>
    244c:	f0 91 89 0a 	lds	r31, 0x0A89	; 0x800a89 <s_pIOU_Sfp_Payload+0x1>
    2450:	93 83       	std	Z+3, r25	; 0x03
	s_pIOU_Sfp_Payload->iouGetParamResponseFrame.Temp_NTC_channel_1_low = (uint8_t)_temp;
    2452:	84 83       	std	Z+4, r24	; 0x04
	_temp = temperature_get_NTC(2);
    2454:	82 e0       	ldi	r24, 0x02	; 2
    2456:	0e 94 28 14 	call	0x2850	; 0x2850 <temperature_get_NTC>
	s_pIOU_Sfp_Payload->iouGetParamResponseFrame.Temp_NTC_channel_2_high = (uint8_t)(_temp >> 8);
    245a:	e0 91 88 0a 	lds	r30, 0x0A88	; 0x800a88 <s_pIOU_Sfp_Payload>
    245e:	f0 91 89 0a 	lds	r31, 0x0A89	; 0x800a89 <s_pIOU_Sfp_Payload+0x1>
    2462:	95 83       	std	Z+5, r25	; 0x05
	s_pIOU_Sfp_Payload->iouGetParamResponseFrame.Temp_NTC_channel_2_low = (uint8_t)_temp;
    2464:	86 83       	std	Z+6, r24	; 0x06
	_temp = temperature_get_NTC(3);
    2466:	83 e0       	ldi	r24, 0x03	; 3
    2468:	0e 94 28 14 	call	0x2850	; 0x2850 <temperature_get_NTC>
	s_pIOU_Sfp_Payload->iouGetParamResponseFrame.Temp_NTC_channel_3_high = (uint8_t)(_temp >> 8);
    246c:	e0 91 88 0a 	lds	r30, 0x0A88	; 0x800a88 <s_pIOU_Sfp_Payload>
    2470:	f0 91 89 0a 	lds	r31, 0x0A89	; 0x800a89 <s_pIOU_Sfp_Payload+0x1>
    2474:	97 83       	std	Z+7, r25	; 0x07
	s_pIOU_Sfp_Payload->iouGetParamResponseFrame.Temp_NTC_channel_3_low = (uint8_t)_temp;
    2476:	80 87       	std	Z+8, r24	; 0x08
	// GET TEMP ONEWIRE
	_temp = temperature_get_onewire(0);
    2478:	80 e0       	ldi	r24, 0x00	; 0
    247a:	0e 94 31 14 	call	0x2862	; 0x2862 <temperature_get_onewire>
	s_pIOU_Sfp_Payload->iouGetParamResponseFrame.Temp_onewire_channel_0_high = (uint8_t)(_temp >> 8);
    247e:	e0 91 88 0a 	lds	r30, 0x0A88	; 0x800a88 <s_pIOU_Sfp_Payload>
    2482:	f0 91 89 0a 	lds	r31, 0x0A89	; 0x800a89 <s_pIOU_Sfp_Payload+0x1>
    2486:	91 87       	std	Z+9, r25	; 0x09
	s_pIOU_Sfp_Payload->iouGetParamResponseFrame.Temp_onewire_channel_0_low = (uint8_t)_temp;
    2488:	82 87       	std	Z+10, r24	; 0x0a
	_temp = temperature_get_onewire(1);
    248a:	81 e0       	ldi	r24, 0x01	; 1
    248c:	0e 94 31 14 	call	0x2862	; 0x2862 <temperature_get_onewire>
	s_pIOU_Sfp_Payload->iouGetParamResponseFrame.Temp_onewire_channel_1_high = (uint8_t)(_temp >> 8);
    2490:	e0 91 88 0a 	lds	r30, 0x0A88	; 0x800a88 <s_pIOU_Sfp_Payload>
    2494:	f0 91 89 0a 	lds	r31, 0x0A89	; 0x800a89 <s_pIOU_Sfp_Payload+0x1>
    2498:	93 87       	std	Z+11, r25	; 0x0b
	s_pIOU_Sfp_Payload->iouGetParamResponseFrame.Temp_onewire_channel_1_low = (uint8_t)_temp;
    249a:	84 87       	std	Z+12, r24	; 0x0c
	// GET TEMP BMP390
	_temp = temperature_get_bmp390();
    249c:	0e 94 3a 14 	call	0x2874	; 0x2874 <temperature_get_bmp390>
		s_pIOU_Sfp_Payload->iouGetParamResponseFrame.Temp_i2c_sensor_high = (uint8_t)(_temp >> 8);
    24a0:	e0 91 88 0a 	lds	r30, 0x0A88	; 0x800a88 <s_pIOU_Sfp_Payload>
    24a4:	f0 91 89 0a 	lds	r31, 0x0A89	; 0x800a89 <s_pIOU_Sfp_Payload+0x1>
    24a8:	95 87       	std	Z+13, r25	; 0x0d
		s_pIOU_Sfp_Payload->iouGetParamResponseFrame.Temp_i2c_sensor_low = (uint8_t)_temp;
    24aa:	86 87       	std	Z+14, r24	; 0x0e
	// GET TEMP SETPOINT
	_temp = (uint16_t)temperature_get_setpoint(0);
    24ac:	80 e0       	ldi	r24, 0x00	; 0
    24ae:	0e 94 ad 16 	call	0x2d5a	; 0x2d5a <temperature_get_setpoint>
	s_pIOU_Sfp_Payload->iouGetParamResponseFrame.Temp_setpoint_channel_0_high = (uint8_t)(_temp >> 8);
    24b2:	e0 91 88 0a 	lds	r30, 0x0A88	; 0x800a88 <s_pIOU_Sfp_Payload>
    24b6:	f0 91 89 0a 	lds	r31, 0x0A89	; 0x800a89 <s_pIOU_Sfp_Payload+0x1>
    24ba:	97 87       	std	Z+15, r25	; 0x0f
	s_pIOU_Sfp_Payload->iouGetParamResponseFrame.Temp_setpoint_channel_0_low = (uint8_t)_temp;
    24bc:	80 8b       	std	Z+16, r24	; 0x10
	_temp = (uint16_t)temperature_get_setpoint(1);
    24be:	81 e0       	ldi	r24, 0x01	; 1
    24c0:	0e 94 ad 16 	call	0x2d5a	; 0x2d5a <temperature_get_setpoint>
	s_pIOU_Sfp_Payload->iouGetParamResponseFrame.Temp_setpoint_channel_1_high = (uint8_t)(_temp >> 8);
    24c4:	e0 91 88 0a 	lds	r30, 0x0A88	; 0x800a88 <s_pIOU_Sfp_Payload>
    24c8:	f0 91 89 0a 	lds	r31, 0x0A89	; 0x800a89 <s_pIOU_Sfp_Payload+0x1>
    24cc:	91 8b       	std	Z+17, r25	; 0x11
	s_pIOU_Sfp_Payload->iouGetParamResponseFrame.Temp_setpoint_channel_1_low = (uint8_t)_temp;
    24ce:	82 8b       	std	Z+18, r24	; 0x12
	_temp = (uint16_t)temperature_get_setpoint(2);
    24d0:	82 e0       	ldi	r24, 0x02	; 2
    24d2:	0e 94 ad 16 	call	0x2d5a	; 0x2d5a <temperature_get_setpoint>
	s_pIOU_Sfp_Payload->iouGetParamResponseFrame.Temp_setpoint_channel_2_high = (uint8_t)(_temp >> 8);
    24d6:	e0 91 88 0a 	lds	r30, 0x0A88	; 0x800a88 <s_pIOU_Sfp_Payload>
    24da:	f0 91 89 0a 	lds	r31, 0x0A89	; 0x800a89 <s_pIOU_Sfp_Payload+0x1>
    24de:	93 8b       	std	Z+19, r25	; 0x13
	s_pIOU_Sfp_Payload->iouGetParamResponseFrame.Temp_setpoint_channel_2_low = (uint8_t)_temp;
    24e0:	84 8b       	std	Z+20, r24	; 0x14
	_temp = (uint16_t)temperature_get_setpoint(3);
    24e2:	83 e0       	ldi	r24, 0x03	; 3
    24e4:	0e 94 ad 16 	call	0x2d5a	; 0x2d5a <temperature_get_setpoint>
	s_pIOU_Sfp_Payload->iouGetParamResponseFrame.Temp_setpoint_channel_3_high = (uint8_t)(_temp >> 8);
    24e8:	e0 91 88 0a 	lds	r30, 0x0A88	; 0x800a88 <s_pIOU_Sfp_Payload>
    24ec:	f0 91 89 0a 	lds	r31, 0x0A89	; 0x800a89 <s_pIOU_Sfp_Payload+0x1>
    24f0:	95 8b       	std	Z+21, r25	; 0x15
	s_pIOU_Sfp_Payload->iouGetParamResponseFrame.Temp_setpoint_channel_3_low = (uint8_t)_temp;
    24f2:	86 8b       	std	Z+22, r24	; 0x16
	// GET VOLTAGE OUTPUT TEC
	uint16_t _voltage = temperature_get_voltage(0);
    24f4:	80 e0       	ldi	r24, 0x00	; 0
    24f6:	0e 94 b6 16 	call	0x2d6c	; 0x2d6c <temperature_get_voltage>
	s_pIOU_Sfp_Payload->iouGetParamResponseFrame.Voltage_out_tec_channel_0_high = (uint8_t)(_voltage >> 8);
    24fa:	e0 91 88 0a 	lds	r30, 0x0A88	; 0x800a88 <s_pIOU_Sfp_Payload>
    24fe:	f0 91 89 0a 	lds	r31, 0x0A89	; 0x800a89 <s_pIOU_Sfp_Payload+0x1>
    2502:	97 8b       	std	Z+23, r25	; 0x17
	s_pIOU_Sfp_Payload->iouGetParamResponseFrame.Voltage_out_tec_channel_0_low = (uint8_t)_voltage;
    2504:	80 8f       	std	Z+24, r24	; 0x18
	_voltage = temperature_get_voltage(1);
    2506:	81 e0       	ldi	r24, 0x01	; 1
    2508:	0e 94 b6 16 	call	0x2d6c	; 0x2d6c <temperature_get_voltage>
	s_pIOU_Sfp_Payload->iouGetParamResponseFrame.Voltage_out_tec_channel_1_high = (uint8_t)(_voltage >> 8);
    250c:	e0 91 88 0a 	lds	r30, 0x0A88	; 0x800a88 <s_pIOU_Sfp_Payload>
    2510:	f0 91 89 0a 	lds	r31, 0x0A89	; 0x800a89 <s_pIOU_Sfp_Payload+0x1>
    2514:	91 8f       	std	Z+25, r25	; 0x19
	s_pIOU_Sfp_Payload->iouGetParamResponseFrame.Voltage_out_tec_channel_1_low = (uint8_t)_voltage;
    2516:	82 8f       	std	Z+26, r24	; 0x1a
	_voltage = temperature_get_voltage(2);
    2518:	82 e0       	ldi	r24, 0x02	; 2
    251a:	0e 94 b6 16 	call	0x2d6c	; 0x2d6c <temperature_get_voltage>
	s_pIOU_Sfp_Payload->iouGetParamResponseFrame.Voltage_out_tec_channel_2_high = (uint8_t)(_voltage >> 8);
    251e:	e0 91 88 0a 	lds	r30, 0x0A88	; 0x800a88 <s_pIOU_Sfp_Payload>
    2522:	f0 91 89 0a 	lds	r31, 0x0A89	; 0x800a89 <s_pIOU_Sfp_Payload+0x1>
    2526:	93 8f       	std	Z+27, r25	; 0x1b
	s_pIOU_Sfp_Payload->iouGetParamResponseFrame.Voltage_out_tec_channel_2_low = (uint8_t)_voltage;
    2528:	84 8f       	std	Z+28, r24	; 0x1c
	_voltage = temperature_get_voltage(3);
    252a:	83 e0       	ldi	r24, 0x03	; 3
    252c:	0e 94 b6 16 	call	0x2d6c	; 0x2d6c <temperature_get_voltage>
	s_pIOU_Sfp_Payload->iouGetParamResponseFrame.Voltage_out_tec_channel_3_high = (uint8_t)(_voltage >> 8);
    2530:	e0 91 88 0a 	lds	r30, 0x0A88	; 0x800a88 <s_pIOU_Sfp_Payload>
    2534:	f0 91 89 0a 	lds	r31, 0x0A89	; 0x800a89 <s_pIOU_Sfp_Payload+0x1>
    2538:	95 8f       	std	Z+29, r25	; 0x1d
	s_pIOU_Sfp_Payload->iouGetParamResponseFrame.Voltage_out_tec_channel_3_low = (uint8_t)_voltage;
    253a:	86 8f       	std	Z+30, r24	; 0x1e
	// GET NEO LED DATA
	rgbw_color _RGBW = ringled_get_RGBW();
    253c:	0e 94 18 20 	call	0x4030	; 0x4030 <ringled_get_RGBW>
	s_pIOU_Sfp_Payload->iouGetParamResponseFrame.Neo_led_R = (uint8_t)_RGBW.red;
    2540:	00 91 88 0a 	lds	r16, 0x0A88	; 0x800a88 <s_pIOU_Sfp_Payload>
    2544:	10 91 89 0a 	lds	r17, 0x0A89	; 0x800a89 <s_pIOU_Sfp_Payload+0x1>
    2548:	f8 01       	movw	r30, r16
    254a:	67 8f       	std	Z+31, r22	; 0x1f
	s_pIOU_Sfp_Payload->iouGetParamResponseFrame.Neo_led_G = (uint8_t)_RGBW.green;
    254c:	70 a3       	std	Z+32, r23	; 0x20
	s_pIOU_Sfp_Payload->iouGetParamResponseFrame.Neo_led_B = (uint8_t)_RGBW.blue;
    254e:	81 a3       	std	Z+33, r24	; 0x21
	s_pIOU_Sfp_Payload->iouGetParamResponseFrame.Neo_led_W = (uint8_t)_RGBW.white;
    2550:	92 a3       	std	Z+34, r25	; 0x22
	// GET IR LED BRIGHT
	s_pIOU_Sfp_Payload->iouGetParamResponseFrame.IRled_duty = (uint8_t)IR_led_get_Current_DutyCyclesPercent();
    2552:	0e 94 59 13 	call	0x26b2	; 0x26b2 <IR_led_get_Current_DutyCyclesPercent>
    2556:	f8 01       	movw	r30, r16
    2558:	83 a3       	std	Z+35, r24	; 0x23
	// DECODE FRAME
	fsp_gen_pkt((void*)0, &s_pIOU_Sfp_Payload->iouGetParamResponseFrame, 36, FSP_ADR_COPC, FSP_PKT_TYPE_CMD_W_DATA, &s_IOU_FspPacket);
    255a:	60 91 88 0a 	lds	r22, 0x0A88	; 0x800a88 <s_pIOU_Sfp_Payload>
    255e:	70 91 89 0a 	lds	r23, 0x0A89	; 0x800a89 <s_pIOU_Sfp_Payload+0x1>
    2562:	0f 2e       	mov	r0, r31
    2564:	fc e8       	ldi	r31, 0x8C	; 140
    2566:	ef 2e       	mov	r14, r31
    2568:	fa e0       	ldi	r31, 0x0A	; 10
    256a:	ff 2e       	mov	r15, r31
    256c:	f0 2d       	mov	r31, r0
    256e:	07 e0       	ldi	r16, 0x07	; 7
    2570:	21 e0       	ldi	r18, 0x01	; 1
    2572:	44 e2       	ldi	r20, 0x24	; 36
    2574:	80 e0       	ldi	r24, 0x00	; 0
    2576:	90 e0       	ldi	r25, 0x00	; 0
    2578:	0e 94 61 22 	call	0x44c2	; 0x44c2 <fsp_gen_pkt>
	fsp_encode(&s_IOU_FspPacket, encode_frame, &frame_len);
    257c:	ae 01       	movw	r20, r28
    257e:	4d 5c       	subi	r20, 0xCD	; 205
    2580:	5f 4f       	sbci	r21, 0xFF	; 255
    2582:	be 01       	movw	r22, r28
    2584:	6f 5f       	subi	r22, 0xFF	; 255
    2586:	7f 4f       	sbci	r23, 0xFF	; 255
    2588:	c7 01       	movw	r24, r14
    258a:	0e 94 b8 22 	call	0x4570	; 0x4570 <fsp_encode>
	usart1_send_array(encode_frame, frame_len);
    258e:	6b a9       	ldd	r22, Y+51	; 0x33
    2590:	ce 01       	movw	r24, r28
    2592:	01 96       	adiw	r24, 0x01	; 1
    2594:	0e 94 56 1a 	call	0x34ac	; 0x34ac <usart1_send_array>
}
    2598:	e3 96       	adiw	r28, 0x33	; 51
    259a:	0f b6       	in	r0, 0x3f	; 63
    259c:	f8 94       	cli
    259e:	de bf       	out	0x3e, r29	; 62
    25a0:	0f be       	out	0x3f, r0	; 63
    25a2:	cd bf       	out	0x3d, r28	; 61
    25a4:	df 91       	pop	r29
    25a6:	cf 91       	pop	r28
    25a8:	1f 91       	pop	r17
    25aa:	0f 91       	pop	r16
    25ac:	ff 90       	pop	r15
    25ae:	ef 90       	pop	r14
    25b0:	08 95       	ret

000025b2 <COPC_process_command>:
	}
}

void COPC_process_command(fsp_packet_t	*s_COPC_FspPacket)
{
	s_pIOU_Sfp_Payload->commonFrame.Cmd = s_pCOPC_Sfp_Payload->commonFrame.Cmd;
    25b2:	e0 91 8a 0a 	lds	r30, 0x0A8A	; 0x800a8a <s_pCOPC_Sfp_Payload>
    25b6:	f0 91 8b 0a 	lds	r31, 0x0A8B	; 0x800a8b <s_pCOPC_Sfp_Payload+0x1>
    25ba:	80 81       	ld	r24, Z
    25bc:	a0 91 88 0a 	lds	r26, 0x0A88	; 0x800a88 <s_pIOU_Sfp_Payload>
    25c0:	b0 91 89 0a 	lds	r27, 0x0A89	; 0x800a89 <s_pIOU_Sfp_Payload+0x1>
    25c4:	8c 93       	st	X, r24
	switch (s_pCOPC_Sfp_Payload->commonFrame.Cmd)
    25c6:	e0 81       	ld	r30, Z
    25c8:	8e 2f       	mov	r24, r30
    25ca:	90 e0       	ldi	r25, 0x00	; 0
    25cc:	fc 01       	movw	r30, r24
    25ce:	31 97       	sbiw	r30, 0x01	; 1
    25d0:	e3 31       	cpi	r30, 0x13	; 19
    25d2:	f1 05       	cpc	r31, r1
    25d4:	98 f5       	brcc	.+102    	; 0x263c <COPC_process_command+0x8a>
    25d6:	ea 5b       	subi	r30, 0xBA	; 186
    25d8:	ff 4f       	sbci	r31, 0xFF	; 255
    25da:	0c 94 0a 29 	jmp	0x5214	; 0x5214 <__tablejump2__>
	{
		case FSP_CMD_CODE_IOU_SET_TEMP:
			copc_iou_set_temp();
    25de:	0e 94 92 0f 	call	0x1f24	; 0x1f24 <copc_iou_set_temp>
			break;
    25e2:	08 95       	ret
		case FSP_CMD_CODE_IOU_GET_TEMP:
			copc_iou_get_temp();
    25e4:	0e 94 20 10 	call	0x2040	; 0x2040 <copc_iou_get_temp>
			break;
    25e8:	08 95       	ret
		case FSP_CMD_CODE_IOU_GET_TEMP_SETPOINT:
			copc_iou_get_temp_setpoint();
    25ea:	0e 94 82 10 	call	0x2104	; 0x2104 <copc_iou_get_temp_setpoint>
			break;
    25ee:	08 95       	ret
		case FSP_CMD_CODE_IOU_TEC_ENA:
			copc_iou_tec_ena();
    25f0:	0e 94 a4 0f 	call	0x1f48	; 0x1f48 <copc_iou_tec_ena>
			break;
    25f4:	08 95       	ret
		case FSP_CMD_CODE_IOU_TEC_DIS:
			copc_iou_tec_dis();
    25f6:	0e 94 b0 0f 	call	0x1f60	; 0x1f60 <copc_iou_tec_dis>
			break;
    25fa:	08 95       	ret
		case FSP_CMD_CODE_IOU_TEC_ENA_AUTO:
			copc_iou_tec_ena_auto();
    25fc:	0e 94 bc 0f 	call	0x1f78	; 0x1f78 <copc_iou_tec_ena_auto>
			break;
    2600:	08 95       	ret
		case FSP_CMD_CODE_IOU_TEC_DIS_AUTO:
			copc_iou_tec_dis_auto();
    2602:	0e 94 d4 0f 	call	0x1fa8	; 0x1fa8 <copc_iou_tec_dis_auto>
			break;
    2606:	08 95       	ret
		case FSP_CMD_CODE_IOU_TEC_SET_OUTPUT:
			copc_iou_tec_set_output();
    2608:	0e 94 e1 0f 	call	0x1fc2	; 0x1fc2 <copc_iou_tec_set_output>
			break;
    260c:	08 95       	ret
		case FSP_CMD_CODE_IOU_TEC_AUTO_VOL:
			copc_iou_tec_set_auto_vol();
    260e:	0e 94 f4 0f 	call	0x1fe8	; 0x1fe8 <copc_iou_tec_set_auto_vol>
			break;
    2612:	08 95       	ret
		case FSP_CMD_CODE_IOU_TEC_LOG_ENA:
			break;
		case FSP_CMD_CODE_IOU_TEC_LOG_DIS:
			break;
		case FSP_CMD_CODE_IOU_RINGLED_SET_RGBW:
			copc_iou_ringled_set_RGBW();
    2614:	0e 94 06 10 	call	0x200c	; 0x200c <copc_iou_ringled_set_RGBW>
			break;
    2618:	08 95       	ret
		case FSP_CMD_CODE_IOU_RINGLED_GET_RGBW:
			copc_iou_ringled_get_RGBW();
    261a:	0e 94 d0 10 	call	0x21a0	; 0x21a0 <copc_iou_ringled_get_RGBW>
			break;
    261e:	08 95       	ret
		case FSP_CMD_CODE_IOU_IRLED_SET_BRIGHT:
			copc_iou_irled_set_bright();
    2620:	0e 94 13 10 	call	0x2026	; 0x2026 <copc_iou_irled_set_bright>
			break;
    2624:	08 95       	ret
		case FSP_CMD_CODE_IOU_IRLED_GET_BRIGHT:
			copc_iou_irled_get_bright();
    2626:	0e 94 15 11 	call	0x222a	; 0x222a <copc_iou_irled_get_bright>
			break;
    262a:	08 95       	ret
		case FSP_CMD_CODE_IOU_GET_ACCEL_GYRO:
			copc_iou_get_accel_gyro();
    262c:	0e 94 57 11 	call	0x22ae	; 0x22ae <copc_iou_get_accel_gyro>
			break;
    2630:	08 95       	ret
		case FSP_CMD_CODE_IOU_GET_PRESS:
			copc_iou_get_press();
    2632:	0e 94 be 11 	call	0x237c	; 0x237c <copc_iou_get_press>
			break;
    2636:	08 95       	ret
		case FSP_CMD_CODE_IOU_GET_PARAMETERS:
			copc_iou_get_param();
    2638:	0e 94 00 12 	call	0x2400	; 0x2400 <copc_iou_get_param>
    263c:	08 95       	ret

0000263e <COPC_task_update>:
}

static void COPC_task_update(void)
{
	char rxData;
	while (!rbuffer_empty(p_COPCBuffer))
    263e:	1d c0       	rjmp	.+58     	; 0x267a <COPC_task_update+0x3c>
	{
		rxData = rbuffer_remove(p_COPCBuffer);
    2640:	80 91 f2 0a 	lds	r24, 0x0AF2	; 0x800af2 <p_COPCBuffer>
    2644:	90 91 f3 0a 	lds	r25, 0x0AF3	; 0x800af3 <p_COPCBuffer+0x1>
    2648:	0e 94 9f 19 	call	0x333e	; 0x333e <rbuffer_remove>
		if(rxData == FSP_PKT_ESC)	
		{
			swap_byte = 1;
			break;
		}
		if(swap_byte)
    264c:	90 91 87 0a 	lds	r25, 0x0A87	; 0x800a87 <swap_byte>
    2650:	91 11       	cpse	r25, r1
		{
			swap_byte = 0;
    2652:	10 92 87 0a 	sts	0x0A87, r1	; 0x800a87 <swap_byte>
			if(rxData == FSP_PKT_TSOD)	rxData = FSP_PKT_SOD;
			if(rxData == FSP_PKT_TESC)	rxData = FSP_PKT_ESC;
			if(rxData == FSP_PKT_TEOF)	rxData = FSP_PKT_EOF;
		}
		switch ( fsp_decode(rxData,&s_COPC_FspPacket))
    2656:	6f eb       	ldi	r22, 0xBF	; 191
    2658:	7a e0       	ldi	r23, 0x0A	; 10
    265a:	0e 94 9f 23 	call	0x473e	; 0x473e <fsp_decode>
    265e:	81 30       	cpi	r24, 0x01	; 1
    2660:	19 f0       	breq	.+6      	; 0x2668 <COPC_task_update+0x2a>
    2662:	83 30       	cpi	r24, 0x03	; 3
    2664:	31 f0       	breq	.+12     	; 0x2672 <COPC_task_update+0x34>
    2666:	09 c0       	rjmp	.+18     	; 0x267a <COPC_task_update+0x3c>
		{
			//process command
            case FSP_PKT_NOT_READY:
				break;
            case FSP_PKT_READY:
				COPC_process_command(&s_COPC_FspPacket);          
    2668:	8f eb       	ldi	r24, 0xBF	; 191
    266a:	9a e0       	ldi	r25, 0x0A	; 10
    266c:	0e 94 d9 12 	call	0x25b2	; 0x25b2 <COPC_process_command>
	            break;
    2670:	04 c0       	rjmp	.+8      	; 0x267a <COPC_task_update+0x3c>
            case FSP_PKT_INVALID:
	            break;
            case FSP_PKT_WRONG_ADR:
				usart0_send_string("Wrong module address \r\n");
    2672:	87 e7       	ldi	r24, 0x77	; 119
    2674:	99 e0       	ldi	r25, 0x09	; 9
    2676:	0e 94 e0 19 	call	0x33c0	; 0x33c0 <usart0_send_string>
}

static void COPC_task_update(void)
{
	char rxData;
	while (!rbuffer_empty(p_COPCBuffer))
    267a:	80 91 f2 0a 	lds	r24, 0x0AF2	; 0x800af2 <p_COPCBuffer>
    267e:	90 91 f3 0a 	lds	r25, 0x0AF3	; 0x800af3 <p_COPCBuffer+0x1>
    2682:	0e 94 83 19 	call	0x3306	; 0x3306 <rbuffer_empty>
    2686:	88 23       	and	r24, r24
    2688:	d9 f2       	breq	.-74     	; 0x2640 <COPC_task_update+0x2>
	            break;
            default:
	           break;
		}
	}
}
    268a:	08 95       	ret

0000268c <IR_led_init>:
static IR_Led_CurrentDutyCyclePercentTypedef_t		IR_led_DutyCycle_status = 0;

void IR_led_init(void)
{
	#ifdef	IOU_HW_V1_0_0
		pwm1_init(IR_LED_PIN, 1000, 0);
    268c:	40 e0       	ldi	r20, 0x00	; 0
    268e:	68 ee       	ldi	r22, 0xE8	; 232
    2690:	73 e0       	ldi	r23, 0x03	; 3
    2692:	86 e0       	ldi	r24, 0x06	; 6
    2694:	0e 94 cd 17 	call	0x2f9a	; 0x2f9a <pwm1_init>
    2698:	08 95       	ret

0000269a <IR_led_set_DutyCyclesPercent>:
		pwm2_init(IR_LED_PIN, 1000, 0);
	#endif
}

void IR_led_set_DutyCyclesPercent(uint8_t _DutyCyclesPercent)
{
    269a:	cf 93       	push	r28
    269c:	c8 2f       	mov	r28, r24
    269e:	85 36       	cpi	r24, 0x65	; 101
    26a0:	08 f0       	brcs	.+2      	; 0x26a4 <IR_led_set_DutyCyclesPercent+0xa>
    26a2:	c4 e6       	ldi	r28, 0x64	; 100
	if (_DutyCyclesPercent > 100) _DutyCyclesPercent = 100;
	#ifdef	IOU_HW_V1_0_0
		pwm1_set_DutyCyclePercent(_DutyCyclesPercent);
    26a4:	8c 2f       	mov	r24, r28
    26a6:	0e 94 11 18 	call	0x3022	; 0x3022 <pwm1_set_DutyCyclePercent>
		
	#ifdef	IOU_HW_V1_2_0
		pwm2_set_DutyCyclePercent(_DutyCyclesPercent);
	#endif
	
	IR_led_DutyCycle_status = _DutyCyclesPercent;
    26aa:	c0 93 f4 0a 	sts	0x0AF4, r28	; 0x800af4 <IR_led_DutyCycle_status>
}
    26ae:	cf 91       	pop	r28
    26b0:	08 95       	ret

000026b2 <IR_led_get_Current_DutyCyclesPercent>:

uint8_t IR_led_get_Current_DutyCyclesPercent(void)
{
	return (uint8_t)IR_led_DutyCycle_status;
    26b2:	80 91 f4 0a 	lds	r24, 0x0AF4	; 0x800af4 <IR_led_DutyCycle_status>
    26b6:	08 95       	ret

000026b8 <ringled_update>:
	SCH_TASK_CreateTask(&s_ringled_task_context.taskHandle, &s_ringled_task_context.taskProperty);
}

void	ringled_update(void)
{
	ringled_show(colorMap, LED_COUNT);
    26b8:	6a e0       	ldi	r22, 0x0A	; 10
    26ba:	8a e8       	ldi	r24, 0x8A	; 138
    26bc:	9b e0       	ldi	r25, 0x0B	; 11
    26be:	0e 94 b3 1f 	call	0x3f66	; 0x3f66 <ringled_show>
    26c2:	08 95       	ret

000026c4 <ringled_create_task>:
	}
};

void	ringled_create_task(void)
{
	SCH_TASK_CreateTask(&s_ringled_task_context.taskHandle, &s_ringled_task_context.taskProperty);
    26c4:	67 e9       	ldi	r22, 0x97	; 151
    26c6:	71 e0       	ldi	r23, 0x01	; 1
    26c8:	86 e9       	ldi	r24, 0x96	; 150
    26ca:	91 e0       	ldi	r25, 0x01	; 1
    26cc:	0e 94 9e 20 	call	0x413c	; 0x413c <SCH_TASK_CreateTask>
    26d0:	08 95       	ret

000026d2 <status_led_led1_off>:
	
}

static void status_led_led1_off(void)
{
	LED1_DATA_PORT |= ((1 << LED1_PIN));	
    26d2:	e2 e6       	ldi	r30, 0x62	; 98
    26d4:	f0 e0       	ldi	r31, 0x00	; 0
    26d6:	80 81       	ld	r24, Z
    26d8:	84 60       	ori	r24, 0x04	; 4
    26da:	80 83       	st	Z, r24
    26dc:	08 95       	ret

000026de <status_led_update>:
{
	LED2_DATA_PORT &= ~((1 << LED2_PIN));
}
void	status_led_update(void)
{
	switch (*s_led_display_status.s_pIOU_Status) {
    26de:	e0 91 f6 0a 	lds	r30, 0x0AF6	; 0x800af6 <s_led_display_status+0x1>
    26e2:	f0 91 f7 0a 	lds	r31, 0x0AF7	; 0x800af7 <s_led_display_status+0x2>
    26e6:	80 81       	ld	r24, Z
    26e8:	88 23       	and	r24, r24
    26ea:	19 f0       	breq	.+6      	; 0x26f2 <status_led_update+0x14>
    26ec:	81 30       	cpi	r24, 0x01	; 1
    26ee:	c9 f1       	breq	.+114    	; 0x2762 <status_led_update+0x84>
    26f0:	08 95       	ret
	}
}
static	void	status_led_powerup(void)
{
		{
			if ((s_led_display_status.led1 == 1) && (s_led_display_status.led1 == 1))	//both ON
    26f2:	80 91 f5 0a 	lds	r24, 0x0AF5	; 0x800af5 <s_led_display_status>
    26f6:	80 ff       	sbrs	r24, 0
    26f8:	1a c0       	rjmp	.+52     	; 0x272e <status_led_update+0x50>
			{
				if (SCH_TIM_HasCompleted(SCH_TIM_LED))
    26fa:	80 e0       	ldi	r24, 0x00	; 0
    26fc:	0e 94 91 20 	call	0x4122	; 0x4122 <SCH_TIM_HasCompleted>
    2700:	88 23       	and	r24, r24
    2702:	09 f4       	brne	.+2      	; 0x2706 <status_led_update+0x28>
    2704:	45 c0       	rjmp	.+138    	; 0x2790 <status_led_update+0xb2>
				{
					s_led_display_status.led1 = 0;
    2706:	e5 ef       	ldi	r30, 0xF5	; 245
    2708:	fa e0       	ldi	r31, 0x0A	; 10
    270a:	80 81       	ld	r24, Z
    270c:	8e 7f       	andi	r24, 0xFE	; 254
    270e:	80 83       	st	Z, r24
					s_led_display_status.led1 = 0;
					status_led_led1_off();
    2710:	0e 94 69 13 	call	0x26d2	; 0x26d2 <status_led_led1_off>
	LED1_DATA_PORT &= ~((1 << LED1_PIN));
}

static void status_led_led2_off(void)
{
	LED2_DATA_PORT |= ((1 << LED2_PIN));
    2714:	e2 e6       	ldi	r30, 0x62	; 98
    2716:	f0 e0       	ldi	r31, 0x00	; 0
    2718:	80 81       	ld	r24, Z
    271a:	88 60       	ori	r24, 0x08	; 8
    271c:	80 83       	st	Z, r24
				{
					s_led_display_status.led1 = 0;
					s_led_display_status.led1 = 0;
					status_led_led1_off();
					status_led_led2_off();
					SCH_TIM_Start(SCH_TIM_LED,POWERUP_PERIOD);	//restart
    271e:	44 ef       	ldi	r20, 0xF4	; 244
    2720:	51 e0       	ldi	r21, 0x01	; 1
    2722:	60 e0       	ldi	r22, 0x00	; 0
    2724:	70 e0       	ldi	r23, 0x00	; 0
    2726:	80 e0       	ldi	r24, 0x00	; 0
    2728:	0e 94 86 20 	call	0x410c	; 0x410c <SCH_TIM_Start>
    272c:	08 95       	ret
				}
			}
			else if ((s_led_display_status.led1 == 0) && (s_led_display_status.led1 == 0))	//both OFF
			{
				if (SCH_TIM_HasCompleted(SCH_TIM_LED))
    272e:	80 e0       	ldi	r24, 0x00	; 0
    2730:	0e 94 91 20 	call	0x4122	; 0x4122 <SCH_TIM_HasCompleted>
    2734:	88 23       	and	r24, r24
    2736:	61 f1       	breq	.+88     	; 0x2790 <status_led_update+0xb2>
				{
					s_led_display_status.led1 = 1;
    2738:	e5 ef       	ldi	r30, 0xF5	; 245
    273a:	fa e0       	ldi	r31, 0x0A	; 10
    273c:	80 81       	ld	r24, Z
    273e:	81 60       	ori	r24, 0x01	; 1
    2740:	80 83       	st	Z, r24
	LED1_DATA_PORT |= ((1 << LED1_PIN));	
}

static void status_led_led1_on(void)
{
	LED1_DATA_PORT &= ~((1 << LED1_PIN));
    2742:	e2 e6       	ldi	r30, 0x62	; 98
    2744:	f0 e0       	ldi	r31, 0x00	; 0
    2746:	80 81       	ld	r24, Z
    2748:	8b 7f       	andi	r24, 0xFB	; 251
    274a:	80 83       	st	Z, r24
	LED2_DATA_PORT |= ((1 << LED2_PIN));
}

static void status_led_led2_on(void)
{
	LED2_DATA_PORT &= ~((1 << LED2_PIN));
    274c:	80 81       	ld	r24, Z
    274e:	87 7f       	andi	r24, 0xF7	; 247
    2750:	80 83       	st	Z, r24
				{
					s_led_display_status.led1 = 1;
					s_led_display_status.led1 = 1;
					status_led_led1_on();
					status_led_led2_on();
					SCH_TIM_Start(SCH_TIM_LED,POWERUP_PERIOD);	//restart					
    2752:	44 ef       	ldi	r20, 0xF4	; 244
    2754:	51 e0       	ldi	r21, 0x01	; 1
    2756:	60 e0       	ldi	r22, 0x00	; 0
    2758:	70 e0       	ldi	r23, 0x00	; 0
    275a:	80 e0       	ldi	r24, 0x00	; 0
    275c:	0e 94 86 20 	call	0x410c	; 0x410c <SCH_TIM_Start>
    2760:	08 95       	ret
		}
}

static	void	status_led_normal(void)
{
	if (s_led_display_status.led1 == 1)
    2762:	80 91 f5 0a 	lds	r24, 0x0AF5	; 0x800af5 <s_led_display_status>
    2766:	80 ff       	sbrs	r24, 0
    2768:	13 c0       	rjmp	.+38     	; 0x2790 <status_led_update+0xb2>
	{
		if (SCH_TIM_HasCompleted(SCH_TIM_LED))
    276a:	80 e0       	ldi	r24, 0x00	; 0
    276c:	0e 94 91 20 	call	0x4122	; 0x4122 <SCH_TIM_HasCompleted>
    2770:	88 23       	and	r24, r24
    2772:	71 f0       	breq	.+28     	; 0x2790 <status_led_update+0xb2>
			{
				s_led_display_status.led1 = 0;
    2774:	e5 ef       	ldi	r30, 0xF5	; 245
    2776:	fa e0       	ldi	r31, 0x0A	; 10
    2778:	80 81       	ld	r24, Z
    277a:	8e 7f       	andi	r24, 0xFE	; 254
    277c:	80 83       	st	Z, r24
				status_led_led1_off();
    277e:	0e 94 69 13 	call	0x26d2	; 0x26d2 <status_led_led1_off>
				SCH_TIM_Start(SCH_TIM_LED,POWER_NORMAL_OFF_PERIOD);	//restart
    2782:	48 eb       	ldi	r20, 0xB8	; 184
    2784:	5b e0       	ldi	r21, 0x0B	; 11
    2786:	60 e0       	ldi	r22, 0x00	; 0
    2788:	70 e0       	ldi	r23, 0x00	; 0
    278a:	80 e0       	ldi	r24, 0x00	; 0
    278c:	0e 94 86 20 	call	0x410c	; 0x410c <SCH_TIM_Start>
    2790:	08 95       	ret

00002792 <status_led_init>:
static void status_led_led2_off(void);
static	void	status_led_powerup(void);


void status_led_init(void)
{
    2792:	cf 93       	push	r28
    2794:	df 93       	push	r29
	LED1_DIR_PORT |= (1 << LED1_PIN);
    2796:	e1 e6       	ldi	r30, 0x61	; 97
    2798:	f0 e0       	ldi	r31, 0x00	; 0
    279a:	80 81       	ld	r24, Z
    279c:	84 60       	ori	r24, 0x04	; 4
    279e:	80 83       	st	Z, r24
	LED1_DATA_PORT &= ~((1 << LED1_PIN));
    27a0:	c2 e6       	ldi	r28, 0x62	; 98
    27a2:	d0 e0       	ldi	r29, 0x00	; 0
    27a4:	88 81       	ld	r24, Y
    27a6:	8b 7f       	andi	r24, 0xFB	; 251
    27a8:	88 83       	st	Y, r24
	LED2_DIR_PORT |= (1 << LED2_PIN);
    27aa:	80 81       	ld	r24, Z
    27ac:	88 60       	ori	r24, 0x08	; 8
    27ae:	80 83       	st	Z, r24
	LED2_DATA_PORT &= ~((1 << LED2_PIN));
    27b0:	88 81       	ld	r24, Y
    27b2:	87 7f       	andi	r24, 0xF7	; 247
    27b4:	88 83       	st	Y, r24
	s_led_display_status.led1 = 0;
    27b6:	e5 ef       	ldi	r30, 0xF5	; 245
    27b8:	fa e0       	ldi	r31, 0x0A	; 10
    27ba:	80 81       	ld	r24, Z
	s_led_display_status.led2 = 0;
    27bc:	8e 7f       	andi	r24, 0xFE	; 254
    27be:	8d 7f       	andi	r24, 0xFD	; 253
    27c0:	80 83       	st	Z, r24
	s_led_display_status.s_pIOU_Status = &IOU_data.IOU_State_Data;
    27c2:	82 ec       	ldi	r24, 0xC2	; 194
    27c4:	9c e0       	ldi	r25, 0x0C	; 12
    27c6:	92 83       	std	Z+2, r25	; 0x02
    27c8:	81 83       	std	Z+1, r24	; 0x01
	status_led_led1_off();
    27ca:	0e 94 69 13 	call	0x26d2	; 0x26d2 <status_led_led1_off>
	LED1_DATA_PORT &= ~((1 << LED1_PIN));
}

static void status_led_led2_off(void)
{
	LED2_DATA_PORT |= ((1 << LED2_PIN));
    27ce:	88 81       	ld	r24, Y
    27d0:	88 60       	ori	r24, 0x08	; 8
    27d2:	88 83       	st	Y, r24
	s_led_display_status.led2 = 0;
	s_led_display_status.s_pIOU_Status = &IOU_data.IOU_State_Data;
	status_led_led1_off();
	status_led_led2_off();
	
}
    27d4:	df 91       	pop	r29
    27d6:	cf 91       	pop	r28
    27d8:	08 95       	ret

000027da <status_led_create_task>:
	}
}

void	status_led_create_task(void)
{
	SCH_TASK_CreateTask(&s_task_context.taskHandle, &s_task_context.taskProperty);
    27da:	6e e9       	ldi	r22, 0x9E	; 158
    27dc:	71 e0       	ldi	r23, 0x01	; 1
    27de:	8d e9       	ldi	r24, 0x9D	; 157
    27e0:	91 e0       	ldi	r25, 0x01	; 1
    27e2:	0e 94 9e 20 	call	0x413c	; 0x413c <SCH_TASK_CreateTask>
    27e6:	08 95       	ret

000027e8 <main>:
#include "Pressure.h"
#include "ir_led.h"

int main(void)
{
	SCH_Initialize();
    27e8:	0e 94 66 20 	call	0x40cc	; 0x40cc <SCH_Initialize>
	command_init();
    27ec:	0e 94 11 0f 	call	0x1e22	; 0x1e22 <command_init>
	watchdog_init();
    27f0:	0e 94 a3 17 	call	0x2f46	; 0x2f46 <watchdog_init>
	watchdog_create_timer();
    27f4:	0e 94 a6 17 	call	0x2f4c	; 0x2f4c <watchdog_create_timer>
	status_led_init();
    27f8:	0e 94 c9 13 	call	0x2792	; 0x2792 <status_led_init>
	temperature_init();
    27fc:	0e 94 b2 14 	call	0x2964	; 0x2964 <temperature_init>
	ringled_init();
    2800:	0e 94 f8 1f 	call	0x3ff0	; 0x3ff0 <ringled_init>
	IR_led_init();
    2804:	0e 94 46 13 	call	0x268c	; 0x268c <IR_led_init>
// 	Accel_and_Gyro_init();
// 	Pressure_init();
	COPC_init();
    2808:	0e 94 2d 0f 	call	0x1e5a	; 0x1e5a <COPC_init>
	
	status_led_create_task();
    280c:	0e 94 ed 13 	call	0x27da	; 0x27da <status_led_create_task>
	command_create_task();
    2810:	0e 94 f1 0e 	call	0x1de2	; 0x1de2 <command_create_task>
 	temperature_create_task();
    2814:	0e 94 18 14 	call	0x2830	; 0x2830 <temperature_create_task>
	ringled_create_task();
    2818:	0e 94 62 13 	call	0x26c4	; 0x26c4 <ringled_create_task>
// 	Accel_and_Gyro_create_task();
// 	Pressure_create_task();
	COPC_create_task();
    281c:	0e 94 45 0f 	call	0x1e8a	; 0x1e8a <COPC_create_task>
	SCH_StartSchedular();
    2820:	0e 94 9f 21 	call	0x433e	; 0x433e <SCH_StartSchedular>
	
	while (1)
	{
		SCH_HandleScheduledTask();
    2824:	0e 94 a2 21 	call	0x4344	; 0x4344 <SCH_HandleScheduledTask>
    2828:	fd cf       	rjmp	.-6      	; 0x2824 <main+0x3c>

0000282a <get_pressure>:
	SCH_TASK_CreateTask(&s_pressure_task_context.taskHandle, &s_pressure_task_context.taskProperty);
}

int16_t get_pressure(void)
{
	return (int16_t)get_BMP390_pressure();
    282a:	0e 94 de 1e 	call	0x3dbc	; 0x3dbc <get_BMP390_pressure>
}
    282e:	08 95       	ret

00002830 <temperature_create_task>:
	
}

void	temperature_create_task(void)
{
	SCH_TASK_CreateTask(&s_temperature_task_context .taskHandle, &s_temperature_task_context .taskProperty);
    2830:	61 ed       	ldi	r22, 0xD1	; 209
    2832:	71 e0       	ldi	r23, 0x01	; 1
    2834:	80 ed       	ldi	r24, 0xD0	; 208
    2836:	91 e0       	ldi	r25, 0x01	; 1
    2838:	0e 94 9e 20 	call	0x413c	; 0x413c <SCH_TASK_CreateTask>
    283c:	08 95       	ret

0000283e <temperature_set_point>:
}

void	temperature_set_point(uint16_t	setpoint, uint8_t channel)
{
	s_Temperature_CurrentState.channel_temperature_setpoint[channel] = setpoint;
    283e:	e6 2f       	mov	r30, r22
    2840:	f0 e0       	ldi	r31, 0x00	; 0
    2842:	ee 0f       	add	r30, r30
    2844:	ff 1f       	adc	r31, r31
    2846:	ee 54       	subi	r30, 0x4E	; 78
    2848:	fe 4f       	sbci	r31, 0xFE	; 254
    284a:	91 83       	std	Z+1, r25	; 0x01
    284c:	80 83       	st	Z, r24
    284e:	08 95       	ret

00002850 <temperature_get_NTC>:
}

int16_t	temperature_get_NTC(uint8_t	channel)
{
	return s_Temperature_CurrentState.NTC_channel_temperature[channel];
    2850:	e8 2f       	mov	r30, r24
    2852:	f0 e0       	ldi	r31, 0x00	; 0
    2854:	ee 0f       	add	r30, r30
    2856:	ff 1f       	adc	r31, r31
    2858:	ec 55       	subi	r30, 0x5C	; 92
    285a:	fe 4f       	sbci	r31, 0xFE	; 254
}
    285c:	80 81       	ld	r24, Z
    285e:	91 81       	ldd	r25, Z+1	; 0x01
    2860:	08 95       	ret

00002862 <temperature_get_onewire>:

int16_t	temperature_get_onewire(uint8_t	channel)
{
	return s_Temperature_CurrentState.onewire_channel_temperature[channel];
    2862:	e8 2f       	mov	r30, r24
    2864:	f0 e0       	ldi	r31, 0x00	; 0
    2866:	ee 0f       	add	r30, r30
    2868:	ff 1f       	adc	r31, r31
    286a:	e4 55       	subi	r30, 0x54	; 84
    286c:	fe 4f       	sbci	r31, 0xFE	; 254
}
    286e:	80 81       	ld	r24, Z
    2870:	91 81       	ldd	r25, Z+1	; 0x01
    2872:	08 95       	ret

00002874 <temperature_get_bmp390>:

int16_t	temperature_get_bmp390(void)
{
	return s_Temperature_CurrentState.i2c_sensor_temperature;
}
    2874:	80 91 b0 01 	lds	r24, 0x01B0	; 0x8001b0 <s_Temperature_CurrentState+0xc>
    2878:	90 91 b1 01 	lds	r25, 0x01B1	; 0x8001b1 <s_Temperature_CurrentState+0xd>
    287c:	08 95       	ret

0000287e <temperature_enable_TEC>:

void	temperature_enable_TEC(uint8_t	channel)
{
    287e:	cf 93       	push	r28
    2880:	c8 2f       	mov	r28, r24
	TEC_enable(channel);
    2882:	0e 94 2a 20 	call	0x4054	; 0x4054 <TEC_enable>
	s_Temperature_CurrentState.TEC_status |= (1 << (2*channel));
    2886:	e4 ea       	ldi	r30, 0xA4	; 164
    2888:	f1 e0       	ldi	r31, 0x01	; 1
    288a:	cc 0f       	add	r28, r28
    288c:	81 e0       	ldi	r24, 0x01	; 1
    288e:	90 e0       	ldi	r25, 0x00	; 0
    2890:	02 c0       	rjmp	.+4      	; 0x2896 <temperature_enable_TEC+0x18>
    2892:	88 0f       	add	r24, r24
    2894:	99 1f       	adc	r25, r25
    2896:	ca 95       	dec	r28
    2898:	e2 f7       	brpl	.-8      	; 0x2892 <temperature_enable_TEC+0x14>
    289a:	96 8d       	ldd	r25, Z+30	; 0x1e
    289c:	89 2b       	or	r24, r25
    289e:	86 8f       	std	Z+30, r24	; 0x1e
}
    28a0:	cf 91       	pop	r28
    28a2:	08 95       	ret

000028a4 <temperature_disable_TEC>:

void	temperature_disable_TEC(uint8_t	channel)
{
    28a4:	cf 93       	push	r28
    28a6:	c8 2f       	mov	r28, r24
	TEC_shutdown(channel);
    28a8:	0e 94 44 20 	call	0x4088	; 0x4088 <TEC_shutdown>
	s_Temperature_CurrentState.TEC_status &= ~ (1 << (2*channel));
    28ac:	e4 ea       	ldi	r30, 0xA4	; 164
    28ae:	f1 e0       	ldi	r31, 0x01	; 1
    28b0:	cc 0f       	add	r28, r28
    28b2:	81 e0       	ldi	r24, 0x01	; 1
    28b4:	90 e0       	ldi	r25, 0x00	; 0
    28b6:	02 c0       	rjmp	.+4      	; 0x28bc <temperature_disable_TEC+0x18>
    28b8:	88 0f       	add	r24, r24
    28ba:	99 1f       	adc	r25, r25
    28bc:	ca 95       	dec	r28
    28be:	e2 f7       	brpl	.-8      	; 0x28b8 <temperature_disable_TEC+0x14>
    28c0:	80 95       	com	r24
    28c2:	96 8d       	ldd	r25, Z+30	; 0x1e
    28c4:	89 23       	and	r24, r25
    28c6:	86 8f       	std	Z+30, r24	; 0x1e
}
    28c8:	cf 91       	pop	r28
    28ca:	08 95       	ret

000028cc <temperature_disable_auto_control_TEC>:
	temperature_set_TEC_output(channel , s_Temperature_CurrentState.mode[channel>>1],s_Temperature_CurrentState.TEC_output_voltage[channel] );	
}

void	temperature_disable_auto_control_TEC(uint8_t	channel)
{
	s_Temperature_CurrentState.TEC_status &=  ~(1 << (2*channel + 1));
    28cc:	e4 ea       	ldi	r30, 0xA4	; 164
    28ce:	f1 e0       	ldi	r31, 0x01	; 1
    28d0:	90 e0       	ldi	r25, 0x00	; 0
    28d2:	88 0f       	add	r24, r24
    28d4:	99 1f       	adc	r25, r25
    28d6:	01 96       	adiw	r24, 0x01	; 1
    28d8:	21 e0       	ldi	r18, 0x01	; 1
    28da:	30 e0       	ldi	r19, 0x00	; 0
    28dc:	a9 01       	movw	r20, r18
    28de:	02 c0       	rjmp	.+4      	; 0x28e4 <temperature_disable_auto_control_TEC+0x18>
    28e0:	44 0f       	add	r20, r20
    28e2:	55 1f       	adc	r21, r21
    28e4:	8a 95       	dec	r24
    28e6:	e2 f7       	brpl	.-8      	; 0x28e0 <temperature_disable_auto_control_TEC+0x14>
    28e8:	ca 01       	movw	r24, r20
    28ea:	80 95       	com	r24
    28ec:	96 8d       	ldd	r25, Z+30	; 0x1e
    28ee:	89 23       	and	r24, r25
    28f0:	86 8f       	std	Z+30, r24	; 0x1e
    28f2:	08 95       	ret

000028f4 <temperature_set_TEC_output>:
// set the output of the TEC manually
//@param	channel: 0-3
//@param	HeatCool: 0 HEAT, 1 COOL
//@voltage	Real Voltage multiply with 100
void    temperature_set_TEC_output(uint8_t channel, uint8_t HeatCool, uint16_t	voltage)
{
    28f4:	0f 93       	push	r16
    28f6:	cf 93       	push	r28
    28f8:	08 2f       	mov	r16, r24
    28fa:	c6 2f       	mov	r28, r22
	s_Temperature_CurrentState.TEC_output_voltage[channel] = voltage;
    28fc:	e8 2f       	mov	r30, r24
    28fe:	f0 e0       	ldi	r31, 0x00	; 0
    2900:	ee 0f       	add	r30, r30
    2902:	ff 1f       	adc	r31, r31
    2904:	e6 54       	subi	r30, 0x46	; 70
    2906:	fe 4f       	sbci	r31, 0xFE	; 254
    2908:	51 83       	std	Z+1, r21	; 0x01
    290a:	40 83       	st	Z, r20
	uint32_t	_delta = ((uint32_t)voltage * 4096) / 1150;
    290c:	ca 01       	movw	r24, r20
    290e:	a0 e0       	ldi	r26, 0x00	; 0
    2910:	b0 e0       	ldi	r27, 0x00	; 0
    2912:	bc 01       	movw	r22, r24
    2914:	cd 01       	movw	r24, r26
    2916:	05 2e       	mov	r0, r21
    2918:	5c e0       	ldi	r21, 0x0C	; 12
    291a:	66 0f       	add	r22, r22
    291c:	77 1f       	adc	r23, r23
    291e:	88 1f       	adc	r24, r24
    2920:	99 1f       	adc	r25, r25
    2922:	5a 95       	dec	r21
    2924:	d1 f7       	brne	.-12     	; 0x291a <temperature_set_TEC_output+0x26>
    2926:	50 2d       	mov	r21, r0
    2928:	2e e7       	ldi	r18, 0x7E	; 126
    292a:	34 e0       	ldi	r19, 0x04	; 4
    292c:	40 e0       	ldi	r20, 0x00	; 0
    292e:	50 e0       	ldi	r21, 0x00	; 0
    2930:	0e 94 e8 28 	call	0x51d0	; 0x51d0 <__udivmodsi4>
	uint32_t	_adcVal ;
	if (HeatCool == HEATING)		//want HEAT
    2934:	c1 30       	cpi	r28, 0x01	; 1
    2936:	49 f4       	brne	.+18     	; 0x294a <temperature_set_TEC_output+0x56>
	{
		_adcVal = DAC_at_2_5 - _delta;
    2938:	80 e0       	ldi	r24, 0x00	; 0
    293a:	98 e0       	ldi	r25, 0x08	; 8
    293c:	a0 e0       	ldi	r26, 0x00	; 0
    293e:	b0 e0       	ldi	r27, 0x00	; 0
    2940:	82 1b       	sub	r24, r18
    2942:	93 0b       	sbc	r25, r19
    2944:	a4 0b       	sbc	r26, r20
    2946:	b5 0b       	sbc	r27, r21
    2948:	05 c0       	rjmp	.+10     	; 0x2954 <temperature_set_TEC_output+0x60>
	}
	else
	{
		_adcVal = DAC_at_2_5 + _delta;
    294a:	da 01       	movw	r26, r20
    294c:	c9 01       	movw	r24, r18
    294e:	98 5f       	subi	r25, 0xF8	; 248
    2950:	af 4f       	sbci	r26, 0xFF	; 255
    2952:	bf 4f       	sbci	r27, 0xFF	; 255
	}

	MCP4291_set_output((uint16_t)_adcVal, 0, 0, 1, channel);
    2954:	21 e0       	ldi	r18, 0x01	; 1
    2956:	40 e0       	ldi	r20, 0x00	; 0
    2958:	60 e0       	ldi	r22, 0x00	; 0
    295a:	0e 94 16 1f 	call	0x3e2c	; 0x3e2c <MCP4291_set_output>
}
    295e:	cf 91       	pop	r28
    2960:	0f 91       	pop	r16
    2962:	08 95       	ret

00002964 <temperature_init>:
};

static	uint16_t	sTemperatureTimeCount[2] = {0,0};
static	uint8_t		sPrintLog = 0;
void	temperature_init(void)
{
    2964:	cf 93       	push	r28
	uint8_t	idx;
	init_adc();
    2966:	0e 94 b1 17 	call	0x2f62	; 0x2f62 <init_adc>
	TEC_init();
    296a:	0e 94 21 20 	call	0x4042	; 0x4042 <TEC_init>
	MCP4921_init();
    296e:	0e 94 ea 1e 	call	0x3dd4	; 0x3dd4 <MCP4921_init>
	SPI_Init();
    2972:	0e 94 29 18 	call	0x3052	; 0x3052 <SPI_Init>

	for(idx =0; idx < 4; idx ++)	
    2976:	c0 e0       	ldi	r28, 0x00	; 0
	{
		TEC_shutdown(idx);
    2978:	8c 2f       	mov	r24, r28
    297a:	0e 94 44 20 	call	0x4088	; 0x4088 <TEC_shutdown>
		temperature_set_TEC_output(idx, HEATING, TEC_OUT_DEFAULT);
    297e:	42 e3       	ldi	r20, 0x32	; 50
    2980:	50 e0       	ldi	r21, 0x00	; 0
    2982:	61 e0       	ldi	r22, 0x01	; 1
    2984:	8c 2f       	mov	r24, r28
    2986:	0e 94 7a 14 	call	0x28f4	; 0x28f4 <temperature_set_TEC_output>
	init_adc();
	TEC_init();
	MCP4921_init();
	SPI_Init();

	for(idx =0; idx < 4; idx ++)	
    298a:	cf 5f       	subi	r28, 0xFF	; 255
    298c:	c4 30       	cpi	r28, 0x04	; 4
    298e:	a1 f7       	brne	.-24     	; 0x2978 <temperature_init+0x14>
	{
		TEC_shutdown(idx);
		temperature_set_TEC_output(idx, HEATING, TEC_OUT_DEFAULT);
	}
}
    2990:	cf 91       	pop	r28
    2992:	08 95       	ret

00002994 <temperature_TEC_hysteris_control_heating>:

}

//if double output is enabled, turn on both output 0 and 1 if temperature is measuring based on NTC channel 0
void	temperature_TEC_hysteris_control_heating(uint16_t	NTC_temperature, uint8_t NTC_channel, uint8_t	double_output)
{
    2994:	ef 92       	push	r14
    2996:	ff 92       	push	r15
    2998:	0f 93       	push	r16
    299a:	1f 93       	push	r17
    299c:	cf 93       	push	r28
    299e:	df 93       	push	r29
    29a0:	f6 2e       	mov	r15, r22
    29a2:	e4 2e       	mov	r14, r20
		//		if NTC channel and automatic control
//		UARTprintf("TEC  %d is controlling heating\r\n", NTC_channel);
//		UARTprintf("NTCchannel is %d\r\n",NTC_channel);
			if (!(s_Temperature_CurrentState.TEC_status & (1<<(NTC_channel *2 * 2))))		//TEC is disabling
    29a4:	c6 2f       	mov	r28, r22
    29a6:	d0 e0       	ldi	r29, 0x00	; 0
    29a8:	8e 01       	movw	r16, r28
    29aa:	00 0f       	add	r16, r16
    29ac:	11 1f       	adc	r17, r17
    29ae:	00 0f       	add	r16, r16
    29b0:	11 1f       	adc	r17, r17
    29b2:	20 91 c2 01 	lds	r18, 0x01C2	; 0x8001c2 <s_Temperature_CurrentState+0x1e>
    29b6:	30 e0       	ldi	r19, 0x00	; 0
    29b8:	00 2e       	mov	r0, r16
    29ba:	02 c0       	rjmp	.+4      	; 0x29c0 <temperature_TEC_hysteris_control_heating+0x2c>
    29bc:	35 95       	asr	r19
    29be:	27 95       	ror	r18
    29c0:	0a 94       	dec	r0
    29c2:	e2 f7       	brpl	.-8      	; 0x29bc <temperature_TEC_hysteris_control_heating+0x28>
    29c4:	20 fd       	sbrc	r18, 0
    29c6:	8b c0       	rjmp	.+278    	; 0x2ade <temperature_TEC_hysteris_control_heating+0x14a>
			{
//				UARTprintf("TEC %d is disabling\r\n", NTC_channel);
				if (NTC_temperature < s_Temperature_CurrentState.channel_temperature_setpoint[NTC_channel] - TEMPERATURE_HYSTERIS)
    29c8:	fe 01       	movw	r30, r28
    29ca:	ee 0f       	add	r30, r30
    29cc:	ff 1f       	adc	r31, r31
    29ce:	ee 54       	subi	r30, 0x4E	; 78
    29d0:	fe 4f       	sbci	r31, 0xFE	; 254
    29d2:	40 81       	ld	r20, Z
    29d4:	51 81       	ldd	r21, Z+1	; 0x01
    29d6:	9a 01       	movw	r18, r20
    29d8:	22 50       	subi	r18, 0x02	; 2
    29da:	31 09       	sbc	r19, r1
    29dc:	82 17       	cp	r24, r18
    29de:	93 07       	cpc	r25, r19
    29e0:	38 f5       	brcc	.+78     	; 0x2a30 <temperature_TEC_hysteris_control_heating+0x9c>
				{
					TEC_enable(NTC_channel*2);
    29e2:	ff 0c       	add	r15, r15
    29e4:	8f 2d       	mov	r24, r15
    29e6:	0e 94 2a 20 	call	0x4054	; 0x4054 <TEC_enable>
					s_Temperature_CurrentState.TEC_status |= 1 << (NTC_channel *2* 2);
    29ea:	e4 ea       	ldi	r30, 0xA4	; 164
    29ec:	f1 e0       	ldi	r31, 0x01	; 1
    29ee:	81 e0       	ldi	r24, 0x01	; 1
    29f0:	90 e0       	ldi	r25, 0x00	; 0
    29f2:	00 2e       	mov	r0, r16
    29f4:	02 c0       	rjmp	.+4      	; 0x29fa <temperature_TEC_hysteris_control_heating+0x66>
    29f6:	88 0f       	add	r24, r24
    29f8:	99 1f       	adc	r25, r25
    29fa:	0a 94       	dec	r0
    29fc:	e2 f7       	brpl	.-8      	; 0x29f6 <temperature_TEC_hysteris_control_heating+0x62>
    29fe:	96 8d       	ldd	r25, Z+30	; 0x1e
    2a00:	89 2b       	or	r24, r25
    2a02:	86 8f       	std	Z+30, r24	; 0x1e
					if (double_output)
    2a04:	ee 20       	and	r14, r14
    2a06:	09 f4       	brne	.+2      	; 0x2a0a <temperature_TEC_hysteris_control_heating+0x76>
    2a08:	9c c0       	rjmp	.+312    	; 0x2b42 <temperature_TEC_hysteris_control_heating+0x1ae>
					{
						TEC_enable(NTC_channel*2 + 1);
    2a0a:	81 e0       	ldi	r24, 0x01	; 1
    2a0c:	8f 0d       	add	r24, r15
    2a0e:	0e 94 2a 20 	call	0x4054	; 0x4054 <TEC_enable>
						s_Temperature_CurrentState.TEC_status |= 1 << ((NTC_channel*2+1)*2);
    2a12:	e4 ea       	ldi	r30, 0xA4	; 164
    2a14:	f1 e0       	ldi	r31, 0x01	; 1
    2a16:	0e 5f       	subi	r16, 0xFE	; 254
    2a18:	1f 4f       	sbci	r17, 0xFF	; 255
    2a1a:	81 e0       	ldi	r24, 0x01	; 1
    2a1c:	90 e0       	ldi	r25, 0x00	; 0
    2a1e:	02 c0       	rjmp	.+4      	; 0x2a24 <temperature_TEC_hysteris_control_heating+0x90>
    2a20:	88 0f       	add	r24, r24
    2a22:	99 1f       	adc	r25, r25
    2a24:	0a 95       	dec	r16
    2a26:	e2 f7       	brpl	.-8      	; 0x2a20 <temperature_TEC_hysteris_control_heating+0x8c>
    2a28:	96 8d       	ldd	r25, Z+30	; 0x1e
    2a2a:	89 2b       	or	r24, r25
    2a2c:	86 8f       	std	Z+30, r24	; 0x1e
    2a2e:	89 c0       	rjmp	.+274    	; 0x2b42 <temperature_TEC_hysteris_control_heating+0x1ae>
					}
					
				}
				else  // Temperature is higher than setpoint  but TEC is disabled
				if (NTC_temperature >  (s_Temperature_CurrentState.channel_temperature_setpoint[NTC_channel] - TEMPERATURE_HYSTERIS)) 
    2a30:	28 17       	cp	r18, r24
    2a32:	39 07       	cpc	r19, r25
    2a34:	08 f0       	brcs	.+2      	; 0x2a38 <temperature_TEC_hysteris_control_heating+0xa4>
    2a36:	85 c0       	rjmp	.+266    	; 0x2b42 <temperature_TEC_hysteris_control_heating+0x1ae>
				{
//					check if temperature is still increasing, add to the time count
					if ((NTC_temperature >  s_Temperature_CurrentState.NTC_channel_temperature[NTC_channel])  ||(NTC_temperature >  (s_Temperature_CurrentState.channel_temperature_setpoint[NTC_channel] + TEMPERATURE_MAX_ERROR)))
    2a38:	fe 01       	movw	r30, r28
    2a3a:	ee 0f       	add	r30, r30
    2a3c:	ff 1f       	adc	r31, r31
    2a3e:	ec 55       	subi	r30, 0x5C	; 92
    2a40:	fe 4f       	sbci	r31, 0xFE	; 254
    2a42:	20 81       	ld	r18, Z
    2a44:	31 81       	ldd	r19, Z+1	; 0x01
    2a46:	28 17       	cp	r18, r24
    2a48:	39 07       	cpc	r19, r25
    2a4a:	30 f0       	brcs	.+12     	; 0x2a58 <temperature_TEC_hysteris_control_heating+0xc4>
    2a4c:	42 5e       	subi	r20, 0xE2	; 226
    2a4e:	5f 4f       	sbci	r21, 0xFF	; 255
    2a50:	48 17       	cp	r20, r24
    2a52:	59 07       	cpc	r21, r25
    2a54:	08 f0       	brcs	.+2      	; 0x2a58 <temperature_TEC_hysteris_control_heating+0xc4>
    2a56:	75 c0       	rjmp	.+234    	; 0x2b42 <temperature_TEC_hysteris_control_heating+0x1ae>
					{
						sTemperatureTimeCount[NTC_channel]++;
    2a58:	fe 01       	movw	r30, r28
    2a5a:	ee 0f       	add	r30, r30
    2a5c:	ff 1f       	adc	r31, r31
    2a5e:	e7 50       	subi	r30, 0x07	; 7
    2a60:	f5 4f       	sbci	r31, 0xF5	; 245
    2a62:	80 81       	ld	r24, Z
    2a64:	91 81       	ldd	r25, Z+1	; 0x01
    2a66:	01 96       	adiw	r24, 0x01	; 1
    2a68:	91 83       	std	Z+1, r25	; 0x01
    2a6a:	80 83       	st	Z, r24
//						if the temperature keep increasing without the TEC turned on, switch to COOL mode
						if (sTemperatureTimeCount[NTC_channel] > INCREASE_DECREASE_TIMES)
    2a6c:	85 3f       	cpi	r24, 0xF5	; 245
    2a6e:	91 40       	sbci	r25, 0x01	; 1
    2a70:	08 f4       	brcc	.+2      	; 0x2a74 <temperature_TEC_hysteris_control_heating+0xe0>
    2a72:	67 c0       	rjmp	.+206    	; 0x2b42 <temperature_TEC_hysteris_control_heating+0x1ae>
						{
							s_Temperature_CurrentState.mode[NTC_channel] = COOLING;
    2a74:	fe 01       	movw	r30, r28
    2a76:	ec 55       	subi	r30, 0x5C	; 92
    2a78:	fe 4f       	sbci	r31, 0xFE	; 254
    2a7a:	10 a6       	std	Z+40, r1	; 0x28
							sTemperatureTimeCount[NTC_channel] = 0;
    2a7c:	fe 01       	movw	r30, r28
    2a7e:	ee 0f       	add	r30, r30
    2a80:	ff 1f       	adc	r31, r31
    2a82:	e7 50       	subi	r30, 0x07	; 7
    2a84:	f5 4f       	sbci	r31, 0xF5	; 245
    2a86:	11 82       	std	Z+1, r1	; 0x01
    2a88:	10 82       	st	Z, r1
							if ((sPrintLog)) UARTprintf("LOG:NTC channel %d Switch to COOLING mode \r\n", NTC_channel);
    2a8a:	80 91 f8 0a 	lds	r24, 0x0AF8	; 0x800af8 <sPrintLog>
    2a8e:	88 23       	and	r24, r24
    2a90:	61 f0       	breq	.+24     	; 0x2aaa <temperature_TEC_hysteris_control_heating+0x116>
    2a92:	1f 92       	push	r1
    2a94:	ff 92       	push	r15
    2a96:	8f e8       	ldi	r24, 0x8F	; 143
    2a98:	99 e0       	ldi	r25, 0x09	; 9
    2a9a:	9f 93       	push	r25
    2a9c:	8f 93       	push	r24
    2a9e:	0e 94 c2 1e 	call	0x3d84	; 0x3d84 <UARTprintf>
    2aa2:	0f 90       	pop	r0
    2aa4:	0f 90       	pop	r0
    2aa6:	0f 90       	pop	r0
    2aa8:	0f 90       	pop	r0
							temperature_set_TEC_output(NTC_channel * 2 , COOLING,s_Temperature_CurrentState.TEC_output_voltage[NTC_channel * 2] );
    2aaa:	cc 0f       	add	r28, r28
    2aac:	dd 1f       	adc	r29, r29
    2aae:	ff 0c       	add	r15, r15
    2ab0:	fe 01       	movw	r30, r28
    2ab2:	ee 0f       	add	r30, r30
    2ab4:	ff 1f       	adc	r31, r31
    2ab6:	e6 54       	subi	r30, 0x46	; 70
    2ab8:	fe 4f       	sbci	r31, 0xFE	; 254
    2aba:	40 81       	ld	r20, Z
    2abc:	51 81       	ldd	r21, Z+1	; 0x01
    2abe:	60 e0       	ldi	r22, 0x00	; 0
    2ac0:	8f 2d       	mov	r24, r15
    2ac2:	0e 94 7a 14 	call	0x28f4	; 0x28f4 <temperature_set_TEC_output>
							temperature_set_TEC_output(NTC_channel * 2 + 1, COOLING,s_Temperature_CurrentState.TEC_output_voltage[NTC_channel * 2 +1] );
    2ac6:	cc 0f       	add	r28, r28
    2ac8:	dd 1f       	adc	r29, r29
    2aca:	c4 54       	subi	r28, 0x44	; 68
    2acc:	de 4f       	sbci	r29, 0xFE	; 254
    2ace:	48 81       	ld	r20, Y
    2ad0:	59 81       	ldd	r21, Y+1	; 0x01
    2ad2:	60 e0       	ldi	r22, 0x00	; 0
    2ad4:	81 e0       	ldi	r24, 0x01	; 1
    2ad6:	8f 0d       	add	r24, r15
    2ad8:	0e 94 7a 14 	call	0x28f4	; 0x28f4 <temperature_set_TEC_output>
    2adc:	32 c0       	rjmp	.+100    	; 0x2b42 <temperature_TEC_hysteris_control_heating+0x1ae>
			}
				
				else  //TEC is enabling
				{
//					UARTprintf("TEC %d is enabling\r\n", NTC_channel);
				if (NTC_temperature > s_Temperature_CurrentState.channel_temperature_setpoint[NTC_channel] + TEMPERATURE_HYSTERIS)
    2ade:	cc 0f       	add	r28, r28
    2ae0:	dd 1f       	adc	r29, r29
    2ae2:	ce 54       	subi	r28, 0x4E	; 78
    2ae4:	de 4f       	sbci	r29, 0xFE	; 254
    2ae6:	28 81       	ld	r18, Y
    2ae8:	39 81       	ldd	r19, Y+1	; 0x01
    2aea:	2e 5f       	subi	r18, 0xFE	; 254
    2aec:	3f 4f       	sbci	r19, 0xFF	; 255
    2aee:	28 17       	cp	r18, r24
    2af0:	39 07       	cpc	r19, r25
    2af2:	38 f5       	brcc	.+78     	; 0x2b42 <temperature_TEC_hysteris_control_heating+0x1ae>
				{
//					UARTprintf("TEC %d shutdown\r\n", NTC_channel);
					TEC_shutdown(NTC_channel*2);
    2af4:	ff 0c       	add	r15, r15
    2af6:	8f 2d       	mov	r24, r15
    2af8:	0e 94 44 20 	call	0x4088	; 0x4088 <TEC_shutdown>
					s_Temperature_CurrentState.TEC_status &= ~(1 << (NTC_channel * 2 *2));
    2afc:	e4 ea       	ldi	r30, 0xA4	; 164
    2afe:	f1 e0       	ldi	r31, 0x01	; 1
    2b00:	81 e0       	ldi	r24, 0x01	; 1
    2b02:	90 e0       	ldi	r25, 0x00	; 0
    2b04:	00 2e       	mov	r0, r16
    2b06:	02 c0       	rjmp	.+4      	; 0x2b0c <temperature_TEC_hysteris_control_heating+0x178>
    2b08:	88 0f       	add	r24, r24
    2b0a:	99 1f       	adc	r25, r25
    2b0c:	0a 94       	dec	r0
    2b0e:	e2 f7       	brpl	.-8      	; 0x2b08 <temperature_TEC_hysteris_control_heating+0x174>
    2b10:	80 95       	com	r24
    2b12:	96 8d       	ldd	r25, Z+30	; 0x1e
    2b14:	89 23       	and	r24, r25
    2b16:	86 8f       	std	Z+30, r24	; 0x1e
					if (double_output)
    2b18:	ee 20       	and	r14, r14
    2b1a:	99 f0       	breq	.+38     	; 0x2b42 <temperature_TEC_hysteris_control_heating+0x1ae>
					{
						TEC_shutdown(NTC_channel*2 + 1);
    2b1c:	81 e0       	ldi	r24, 0x01	; 1
    2b1e:	8f 0d       	add	r24, r15
    2b20:	0e 94 44 20 	call	0x4088	; 0x4088 <TEC_shutdown>
						s_Temperature_CurrentState.TEC_status &= ~(1 << ((NTC_channel * 2 + 1) *2));
    2b24:	e4 ea       	ldi	r30, 0xA4	; 164
    2b26:	f1 e0       	ldi	r31, 0x01	; 1
    2b28:	0e 5f       	subi	r16, 0xFE	; 254
    2b2a:	1f 4f       	sbci	r17, 0xFF	; 255
    2b2c:	81 e0       	ldi	r24, 0x01	; 1
    2b2e:	90 e0       	ldi	r25, 0x00	; 0
    2b30:	02 c0       	rjmp	.+4      	; 0x2b36 <temperature_TEC_hysteris_control_heating+0x1a2>
    2b32:	88 0f       	add	r24, r24
    2b34:	99 1f       	adc	r25, r25
    2b36:	0a 95       	dec	r16
    2b38:	e2 f7       	brpl	.-8      	; 0x2b32 <temperature_TEC_hysteris_control_heating+0x19e>
    2b3a:	80 95       	com	r24
    2b3c:	96 8d       	ldd	r25, Z+30	; 0x1e
    2b3e:	89 23       	and	r24, r25
    2b40:	86 8f       	std	Z+30, r24	; 0x1e
					
				}										
				}
			
		
}
    2b42:	df 91       	pop	r29
    2b44:	cf 91       	pop	r28
    2b46:	1f 91       	pop	r17
    2b48:	0f 91       	pop	r16
    2b4a:	ff 90       	pop	r15
    2b4c:	ef 90       	pop	r14
    2b4e:	08 95       	ret

00002b50 <temperature_TEC_hysteris_control_cooling>:

//if double output is enabled, turn on both output 0 and 1 if temperature is measuring based on NTC channel 0
//if double output is enabled, turn on both output 0 and 1 if temperature is measuring based on NTC channel 0
void	temperature_TEC_hysteris_control_cooling(uint16_t	NTC_temperature, uint8_t NTC_channel, uint8_t	double_output)
{
    2b50:	ef 92       	push	r14
    2b52:	ff 92       	push	r15
    2b54:	0f 93       	push	r16
    2b56:	1f 93       	push	r17
    2b58:	cf 93       	push	r28
    2b5a:	df 93       	push	r29
    2b5c:	f6 2e       	mov	r15, r22
    2b5e:	e4 2e       	mov	r14, r20
	//		if NTC channel and automatic control
//	UARTprintf("TEC %d is controlling cooling\r\n", NTC_channel);
	if (!(s_Temperature_CurrentState.TEC_status & (1<<(NTC_channel *2*2))))		//TEC is disabling
    2b60:	c6 2f       	mov	r28, r22
    2b62:	d0 e0       	ldi	r29, 0x00	; 0
    2b64:	8e 01       	movw	r16, r28
    2b66:	00 0f       	add	r16, r16
    2b68:	11 1f       	adc	r17, r17
    2b6a:	00 0f       	add	r16, r16
    2b6c:	11 1f       	adc	r17, r17
    2b6e:	20 91 c2 01 	lds	r18, 0x01C2	; 0x8001c2 <s_Temperature_CurrentState+0x1e>
    2b72:	30 e0       	ldi	r19, 0x00	; 0
    2b74:	00 2e       	mov	r0, r16
    2b76:	02 c0       	rjmp	.+4      	; 0x2b7c <temperature_TEC_hysteris_control_cooling+0x2c>
    2b78:	35 95       	asr	r19
    2b7a:	27 95       	ror	r18
    2b7c:	0a 94       	dec	r0
    2b7e:	e2 f7       	brpl	.-8      	; 0x2b78 <temperature_TEC_hysteris_control_cooling+0x28>
    2b80:	20 fd       	sbrc	r18, 0
    2b82:	8f c0       	rjmp	.+286    	; 0x2ca2 <temperature_TEC_hysteris_control_cooling+0x152>
	{
//		UARTprintf("TEC is disabling\r\n");
		if (NTC_temperature > s_Temperature_CurrentState.channel_temperature_setpoint[NTC_channel] + TEMPERATURE_HYSTERIS)
    2b84:	fe 01       	movw	r30, r28
    2b86:	ee 0f       	add	r30, r30
    2b88:	ff 1f       	adc	r31, r31
    2b8a:	ee 54       	subi	r30, 0x4E	; 78
    2b8c:	fe 4f       	sbci	r31, 0xFE	; 254
    2b8e:	20 81       	ld	r18, Z
    2b90:	31 81       	ldd	r19, Z+1	; 0x01
    2b92:	a9 01       	movw	r20, r18
    2b94:	4e 5f       	subi	r20, 0xFE	; 254
    2b96:	5f 4f       	sbci	r21, 0xFF	; 255
    2b98:	48 17       	cp	r20, r24
    2b9a:	59 07       	cpc	r21, r25
    2b9c:	38 f5       	brcc	.+78     	; 0x2bec <temperature_TEC_hysteris_control_cooling+0x9c>
		{
			TEC_enable(NTC_channel*2);
    2b9e:	ff 0c       	add	r15, r15
    2ba0:	8f 2d       	mov	r24, r15
    2ba2:	0e 94 2a 20 	call	0x4054	; 0x4054 <TEC_enable>
			s_Temperature_CurrentState.TEC_status |= 1 << (NTC_channel * 2 *2);
    2ba6:	e4 ea       	ldi	r30, 0xA4	; 164
    2ba8:	f1 e0       	ldi	r31, 0x01	; 1
    2baa:	81 e0       	ldi	r24, 0x01	; 1
    2bac:	90 e0       	ldi	r25, 0x00	; 0
    2bae:	00 2e       	mov	r0, r16
    2bb0:	02 c0       	rjmp	.+4      	; 0x2bb6 <temperature_TEC_hysteris_control_cooling+0x66>
    2bb2:	88 0f       	add	r24, r24
    2bb4:	99 1f       	adc	r25, r25
    2bb6:	0a 94       	dec	r0
    2bb8:	e2 f7       	brpl	.-8      	; 0x2bb2 <temperature_TEC_hysteris_control_cooling+0x62>
    2bba:	96 8d       	ldd	r25, Z+30	; 0x1e
    2bbc:	89 2b       	or	r24, r25
    2bbe:	86 8f       	std	Z+30, r24	; 0x1e
			if (double_output)
    2bc0:	ee 20       	and	r14, r14
    2bc2:	09 f4       	brne	.+2      	; 0x2bc6 <temperature_TEC_hysteris_control_cooling+0x76>
    2bc4:	a0 c0       	rjmp	.+320    	; 0x2d06 <temperature_TEC_hysteris_control_cooling+0x1b6>
			{
				TEC_enable(NTC_channel*2 + 1);
    2bc6:	81 e0       	ldi	r24, 0x01	; 1
    2bc8:	8f 0d       	add	r24, r15
    2bca:	0e 94 2a 20 	call	0x4054	; 0x4054 <TEC_enable>
				s_Temperature_CurrentState.TEC_status |= 1 << ((NTC_channel*2+1)*2);
    2bce:	e4 ea       	ldi	r30, 0xA4	; 164
    2bd0:	f1 e0       	ldi	r31, 0x01	; 1
    2bd2:	0e 5f       	subi	r16, 0xFE	; 254
    2bd4:	1f 4f       	sbci	r17, 0xFF	; 255
    2bd6:	81 e0       	ldi	r24, 0x01	; 1
    2bd8:	90 e0       	ldi	r25, 0x00	; 0
    2bda:	02 c0       	rjmp	.+4      	; 0x2be0 <temperature_TEC_hysteris_control_cooling+0x90>
    2bdc:	88 0f       	add	r24, r24
    2bde:	99 1f       	adc	r25, r25
    2be0:	0a 95       	dec	r16
    2be2:	e2 f7       	brpl	.-8      	; 0x2bdc <temperature_TEC_hysteris_control_cooling+0x8c>
    2be4:	96 8d       	ldd	r25, Z+30	; 0x1e
    2be6:	89 2b       	or	r24, r25
    2be8:	86 8f       	std	Z+30, r24	; 0x1e
    2bea:	8d c0       	rjmp	.+282    	; 0x2d06 <temperature_TEC_hysteris_control_cooling+0x1b6>
			}
			
		}
		else  // Temperature is lower than setpoint  but TEC is disabled
		if (NTC_temperature <  (s_Temperature_CurrentState.channel_temperature_setpoint[NTC_channel] - TEMPERATURE_HYSTERIS))
    2bec:	a9 01       	movw	r20, r18
    2bee:	42 50       	subi	r20, 0x02	; 2
    2bf0:	51 09       	sbc	r21, r1
    2bf2:	84 17       	cp	r24, r20
    2bf4:	95 07       	cpc	r25, r21
    2bf6:	08 f0       	brcs	.+2      	; 0x2bfa <temperature_TEC_hysteris_control_cooling+0xaa>
    2bf8:	86 c0       	rjmp	.+268    	; 0x2d06 <temperature_TEC_hysteris_control_cooling+0x1b6>
		{
			//					check if temperature is still increasing, add to the time count
			if ((NTC_temperature <  s_Temperature_CurrentState.NTC_channel_temperature[NTC_channel])  ||(NTC_temperature <  (s_Temperature_CurrentState.channel_temperature_setpoint[NTC_channel] - TEMPERATURE_MAX_ERROR)))
    2bfa:	fe 01       	movw	r30, r28
    2bfc:	ee 0f       	add	r30, r30
    2bfe:	ff 1f       	adc	r31, r31
    2c00:	ec 55       	subi	r30, 0x5C	; 92
    2c02:	fe 4f       	sbci	r31, 0xFE	; 254
    2c04:	40 81       	ld	r20, Z
    2c06:	51 81       	ldd	r21, Z+1	; 0x01
    2c08:	84 17       	cp	r24, r20
    2c0a:	95 07       	cpc	r25, r21
    2c0c:	30 f0       	brcs	.+12     	; 0x2c1a <temperature_TEC_hysteris_control_cooling+0xca>
    2c0e:	2e 51       	subi	r18, 0x1E	; 30
    2c10:	31 09       	sbc	r19, r1
    2c12:	82 17       	cp	r24, r18
    2c14:	93 07       	cpc	r25, r19
    2c16:	08 f0       	brcs	.+2      	; 0x2c1a <temperature_TEC_hysteris_control_cooling+0xca>
    2c18:	76 c0       	rjmp	.+236    	; 0x2d06 <temperature_TEC_hysteris_control_cooling+0x1b6>
			{
				sTemperatureTimeCount[NTC_channel]++;
    2c1a:	fe 01       	movw	r30, r28
    2c1c:	ee 0f       	add	r30, r30
    2c1e:	ff 1f       	adc	r31, r31
    2c20:	e7 50       	subi	r30, 0x07	; 7
    2c22:	f5 4f       	sbci	r31, 0xF5	; 245
    2c24:	80 81       	ld	r24, Z
    2c26:	91 81       	ldd	r25, Z+1	; 0x01
    2c28:	01 96       	adiw	r24, 0x01	; 1
    2c2a:	91 83       	std	Z+1, r25	; 0x01
    2c2c:	80 83       	st	Z, r24
				//						if the temperature keep increasing without the TEC turned on, switch to COOL mode
				if (sTemperatureTimeCount[NTC_channel] > INCREASE_DECREASE_TIMES)
    2c2e:	85 3f       	cpi	r24, 0xF5	; 245
    2c30:	91 40       	sbci	r25, 0x01	; 1
    2c32:	08 f4       	brcc	.+2      	; 0x2c36 <temperature_TEC_hysteris_control_cooling+0xe6>
    2c34:	68 c0       	rjmp	.+208    	; 0x2d06 <temperature_TEC_hysteris_control_cooling+0x1b6>
				{
					s_Temperature_CurrentState.mode[NTC_channel] = HEATING;
    2c36:	81 e0       	ldi	r24, 0x01	; 1
    2c38:	fe 01       	movw	r30, r28
    2c3a:	ec 55       	subi	r30, 0x5C	; 92
    2c3c:	fe 4f       	sbci	r31, 0xFE	; 254
    2c3e:	80 a7       	std	Z+40, r24	; 0x28
					sTemperatureTimeCount[NTC_channel] = 0;
    2c40:	fe 01       	movw	r30, r28
    2c42:	ee 0f       	add	r30, r30
    2c44:	ff 1f       	adc	r31, r31
    2c46:	e7 50       	subi	r30, 0x07	; 7
    2c48:	f5 4f       	sbci	r31, 0xF5	; 245
    2c4a:	11 82       	std	Z+1, r1	; 0x01
    2c4c:	10 82       	st	Z, r1
					if ((sPrintLog)) UARTprintf("LOG: NTC channel %d Switch to HEATING mode\r\n",NTC_channel);
    2c4e:	80 91 f8 0a 	lds	r24, 0x0AF8	; 0x800af8 <sPrintLog>
    2c52:	88 23       	and	r24, r24
    2c54:	61 f0       	breq	.+24     	; 0x2c6e <temperature_TEC_hysteris_control_cooling+0x11e>
    2c56:	1f 92       	push	r1
    2c58:	ff 92       	push	r15
    2c5a:	8c eb       	ldi	r24, 0xBC	; 188
    2c5c:	99 e0       	ldi	r25, 0x09	; 9
    2c5e:	9f 93       	push	r25
    2c60:	8f 93       	push	r24
    2c62:	0e 94 c2 1e 	call	0x3d84	; 0x3d84 <UARTprintf>
    2c66:	0f 90       	pop	r0
    2c68:	0f 90       	pop	r0
    2c6a:	0f 90       	pop	r0
    2c6c:	0f 90       	pop	r0
					temperature_set_TEC_output(NTC_channel * 2 , HEATING,s_Temperature_CurrentState.TEC_output_voltage[NTC_channel * 2] );
    2c6e:	cc 0f       	add	r28, r28
    2c70:	dd 1f       	adc	r29, r29
    2c72:	ff 0c       	add	r15, r15
    2c74:	fe 01       	movw	r30, r28
    2c76:	ee 0f       	add	r30, r30
    2c78:	ff 1f       	adc	r31, r31
    2c7a:	e6 54       	subi	r30, 0x46	; 70
    2c7c:	fe 4f       	sbci	r31, 0xFE	; 254
    2c7e:	40 81       	ld	r20, Z
    2c80:	51 81       	ldd	r21, Z+1	; 0x01
    2c82:	61 e0       	ldi	r22, 0x01	; 1
    2c84:	8f 2d       	mov	r24, r15
    2c86:	0e 94 7a 14 	call	0x28f4	; 0x28f4 <temperature_set_TEC_output>
					temperature_set_TEC_output(NTC_channel * 2 + 1, HEATING,s_Temperature_CurrentState.TEC_output_voltage[NTC_channel * 2 +1] );
    2c8a:	cc 0f       	add	r28, r28
    2c8c:	dd 1f       	adc	r29, r29
    2c8e:	c4 54       	subi	r28, 0x44	; 68
    2c90:	de 4f       	sbci	r29, 0xFE	; 254
    2c92:	48 81       	ld	r20, Y
    2c94:	59 81       	ldd	r21, Y+1	; 0x01
    2c96:	61 e0       	ldi	r22, 0x01	; 1
    2c98:	81 e0       	ldi	r24, 0x01	; 1
    2c9a:	8f 0d       	add	r24, r15
    2c9c:	0e 94 7a 14 	call	0x28f4	; 0x28f4 <temperature_set_TEC_output>
    2ca0:	32 c0       	rjmp	.+100    	; 0x2d06 <temperature_TEC_hysteris_control_cooling+0x1b6>
	}
	
	else  //TEC is enabling
	{
//		UARTprintf("TEC %d is enabling\r\n",NTC_channel);
		if (NTC_temperature < s_Temperature_CurrentState.channel_temperature_setpoint[NTC_channel] - TEMPERATURE_HYSTERIS)
    2ca2:	cc 0f       	add	r28, r28
    2ca4:	dd 1f       	adc	r29, r29
    2ca6:	ce 54       	subi	r28, 0x4E	; 78
    2ca8:	de 4f       	sbci	r29, 0xFE	; 254
    2caa:	28 81       	ld	r18, Y
    2cac:	39 81       	ldd	r19, Y+1	; 0x01
    2cae:	22 50       	subi	r18, 0x02	; 2
    2cb0:	31 09       	sbc	r19, r1
    2cb2:	82 17       	cp	r24, r18
    2cb4:	93 07       	cpc	r25, r19
    2cb6:	38 f5       	brcc	.+78     	; 0x2d06 <temperature_TEC_hysteris_control_cooling+0x1b6>
		{
//			UARTprintf("TEC shutdown\r\n");
			TEC_shutdown(NTC_channel*2);
    2cb8:	ff 0c       	add	r15, r15
    2cba:	8f 2d       	mov	r24, r15
    2cbc:	0e 94 44 20 	call	0x4088	; 0x4088 <TEC_shutdown>
			s_Temperature_CurrentState.TEC_status &= ~(1 << (NTC_channel * 2 *2));
    2cc0:	e4 ea       	ldi	r30, 0xA4	; 164
    2cc2:	f1 e0       	ldi	r31, 0x01	; 1
    2cc4:	81 e0       	ldi	r24, 0x01	; 1
    2cc6:	90 e0       	ldi	r25, 0x00	; 0
    2cc8:	00 2e       	mov	r0, r16
    2cca:	02 c0       	rjmp	.+4      	; 0x2cd0 <temperature_TEC_hysteris_control_cooling+0x180>
    2ccc:	88 0f       	add	r24, r24
    2cce:	99 1f       	adc	r25, r25
    2cd0:	0a 94       	dec	r0
    2cd2:	e2 f7       	brpl	.-8      	; 0x2ccc <temperature_TEC_hysteris_control_cooling+0x17c>
    2cd4:	80 95       	com	r24
    2cd6:	96 8d       	ldd	r25, Z+30	; 0x1e
    2cd8:	89 23       	and	r24, r25
    2cda:	86 8f       	std	Z+30, r24	; 0x1e
			if (double_output)
    2cdc:	ee 20       	and	r14, r14
    2cde:	99 f0       	breq	.+38     	; 0x2d06 <temperature_TEC_hysteris_control_cooling+0x1b6>
			{
				TEC_shutdown(NTC_channel*2 + 1);
    2ce0:	81 e0       	ldi	r24, 0x01	; 1
    2ce2:	8f 0d       	add	r24, r15
    2ce4:	0e 94 44 20 	call	0x4088	; 0x4088 <TEC_shutdown>
				s_Temperature_CurrentState.TEC_status &= ~(1 << ((NTC_channel * 2 + 1) *2));
    2ce8:	e4 ea       	ldi	r30, 0xA4	; 164
    2cea:	f1 e0       	ldi	r31, 0x01	; 1
    2cec:	0e 5f       	subi	r16, 0xFE	; 254
    2cee:	1f 4f       	sbci	r17, 0xFF	; 255
    2cf0:	81 e0       	ldi	r24, 0x01	; 1
    2cf2:	90 e0       	ldi	r25, 0x00	; 0
    2cf4:	02 c0       	rjmp	.+4      	; 0x2cfa <temperature_TEC_hysteris_control_cooling+0x1aa>
    2cf6:	88 0f       	add	r24, r24
    2cf8:	99 1f       	adc	r25, r25
    2cfa:	0a 95       	dec	r16
    2cfc:	e2 f7       	brpl	.-8      	; 0x2cf6 <temperature_TEC_hysteris_control_cooling+0x1a6>
    2cfe:	80 95       	com	r24
    2d00:	96 8d       	ldd	r25, Z+30	; 0x1e
    2d02:	89 23       	and	r24, r25
    2d04:	86 8f       	std	Z+30, r24	; 0x1e
			
		}
	}
	
	
}
    2d06:	df 91       	pop	r29
    2d08:	cf 91       	pop	r28
    2d0a:	1f 91       	pop	r17
    2d0c:	0f 91       	pop	r16
    2d0e:	ff 90       	pop	r15
    2d10:	ef 90       	pop	r14
    2d12:	08 95       	ret

00002d14 <temperature_enable_auto_control_TEC>:
	TEC_shutdown(channel);
	s_Temperature_CurrentState.TEC_status &= ~ (1 << (2*channel));
}
void	temperature_enable_auto_control_TEC(uint8_t	channel)
{
	s_Temperature_CurrentState.TEC_status |=  (1 << (2*channel + 1));
    2d14:	28 2f       	mov	r18, r24
    2d16:	30 e0       	ldi	r19, 0x00	; 0
    2d18:	e4 ea       	ldi	r30, 0xA4	; 164
    2d1a:	f1 e0       	ldi	r31, 0x01	; 1
    2d1c:	b9 01       	movw	r22, r18
    2d1e:	66 0f       	add	r22, r22
    2d20:	77 1f       	adc	r23, r23
    2d22:	6f 5f       	subi	r22, 0xFF	; 255
    2d24:	7f 4f       	sbci	r23, 0xFF	; 255
    2d26:	41 e0       	ldi	r20, 0x01	; 1
    2d28:	50 e0       	ldi	r21, 0x00	; 0
    2d2a:	02 c0       	rjmp	.+4      	; 0x2d30 <temperature_enable_auto_control_TEC+0x1c>
    2d2c:	44 0f       	add	r20, r20
    2d2e:	55 1f       	adc	r21, r21
    2d30:	6a 95       	dec	r22
    2d32:	e2 f7       	brpl	.-8      	; 0x2d2c <temperature_enable_auto_control_TEC+0x18>
    2d34:	96 8d       	ldd	r25, Z+30	; 0x1e
    2d36:	49 2b       	or	r20, r25
    2d38:	46 8f       	std	Z+30, r20	; 0x1e
	temperature_set_TEC_output(channel , s_Temperature_CurrentState.mode[channel>>1],s_Temperature_CurrentState.TEC_output_voltage[channel] );	
    2d3a:	22 0f       	add	r18, r18
    2d3c:	33 1f       	adc	r19, r19
    2d3e:	f9 01       	movw	r30, r18
    2d40:	e6 54       	subi	r30, 0x46	; 70
    2d42:	fe 4f       	sbci	r31, 0xFE	; 254
    2d44:	40 81       	ld	r20, Z
    2d46:	51 81       	ldd	r21, Z+1	; 0x01
    2d48:	e8 2f       	mov	r30, r24
    2d4a:	e6 95       	lsr	r30
    2d4c:	f0 e0       	ldi	r31, 0x00	; 0
    2d4e:	ec 55       	subi	r30, 0x5C	; 92
    2d50:	fe 4f       	sbci	r31, 0xFE	; 254
    2d52:	60 a5       	ldd	r22, Z+40	; 0x28
    2d54:	0e 94 7a 14 	call	0x28f4	; 0x28f4 <temperature_set_TEC_output>
    2d58:	08 95       	ret

00002d5a <temperature_get_setpoint>:
	MCP4291_set_output((uint16_t)_adcVal, 0, 0, 1, channel);
}

uint16_t	temperature_get_setpoint(uint8_t	channel)
{
	return s_Temperature_CurrentState.channel_temperature_setpoint[channel];
    2d5a:	e8 2f       	mov	r30, r24
    2d5c:	f0 e0       	ldi	r31, 0x00	; 0
    2d5e:	ee 0f       	add	r30, r30
    2d60:	ff 1f       	adc	r31, r31
    2d62:	ee 54       	subi	r30, 0x4E	; 78
    2d64:	fe 4f       	sbci	r31, 0xFE	; 254
}
    2d66:	80 81       	ld	r24, Z
    2d68:	91 81       	ldd	r25, Z+1	; 0x01
    2d6a:	08 95       	ret

00002d6c <temperature_get_voltage>:

uint16_t	temperature_get_voltage(uint8_t	channel)
{
	return s_Temperature_CurrentState.TEC_output_voltage[channel];
    2d6c:	e8 2f       	mov	r30, r24
    2d6e:	f0 e0       	ldi	r31, 0x00	; 0
    2d70:	ee 0f       	add	r30, r30
    2d72:	ff 1f       	adc	r31, r31
    2d74:	e6 54       	subi	r30, 0x46	; 70
    2d76:	fe 4f       	sbci	r31, 0xFE	; 254
}
    2d78:	80 81       	ld	r24, Z
    2d7a:	91 81       	ldd	r25, Z+1	; 0x01
    2d7c:	08 95       	ret

00002d7e <temperature_set_auto_voltage>:

void	temperature_set_auto_voltage(uint8_t	channel, uint16_t voltage)
{
	 s_Temperature_CurrentState.TEC_output_voltage[channel] = voltage;
    2d7e:	e8 2f       	mov	r30, r24
    2d80:	f0 e0       	ldi	r31, 0x00	; 0
    2d82:	ee 0f       	add	r30, r30
    2d84:	ff 1f       	adc	r31, r31
    2d86:	e6 54       	subi	r30, 0x46	; 70
    2d88:	fe 4f       	sbci	r31, 0xFE	; 254
    2d8a:	71 83       	std	Z+1, r23	; 0x01
    2d8c:	60 83       	st	Z, r22
    2d8e:	08 95       	ret

00002d90 <temperature_get_status>:
}

void	temperature_get_status(void)
{
	uint8_t	_status = s_Temperature_CurrentState.TEC_status;
    2d90:	e4 ea       	ldi	r30, 0xA4	; 164
    2d92:	f1 e0       	ldi	r31, 0x01	; 1
    2d94:	86 8d       	ldd	r24, Z+30	; 0x1e
	UARTprintf("%d %d %d %d %d %d %d %d %d %d %d %d\r\n", ((_status & (1 << TEC0_ENA)) >> TEC0_ENA), ((_status & (1 << TEC1_ENA)) >> TEC1_ENA),
    2d96:	95 89       	ldd	r25, Z+21	; 0x15
    2d98:	9f 93       	push	r25
    2d9a:	94 89       	ldd	r25, Z+20	; 0x14
    2d9c:	9f 93       	push	r25
    2d9e:	93 89       	ldd	r25, Z+19	; 0x13
    2da0:	9f 93       	push	r25
    2da2:	92 89       	ldd	r25, Z+18	; 0x12
    2da4:	9f 93       	push	r25
    2da6:	91 89       	ldd	r25, Z+17	; 0x11
    2da8:	9f 93       	push	r25
    2daa:	90 89       	ldd	r25, Z+16	; 0x10
    2dac:	9f 93       	push	r25
    2dae:	97 85       	ldd	r25, Z+15	; 0x0f
    2db0:	9f 93       	push	r25
    2db2:	96 85       	ldd	r25, Z+14	; 0x0e
    2db4:	9f 93       	push	r25
    2db6:	93 a5       	ldd	r25, Z+43	; 0x2b
    2db8:	1f 92       	push	r1
    2dba:	9f 93       	push	r25
    2dbc:	92 a5       	ldd	r25, Z+42	; 0x2a
    2dbe:	1f 92       	push	r1
    2dc0:	9f 93       	push	r25
    2dc2:	91 a5       	ldd	r25, Z+41	; 0x29
    2dc4:	1f 92       	push	r1
    2dc6:	9f 93       	push	r25
    2dc8:	90 a5       	ldd	r25, Z+40	; 0x28
    2dca:	1f 92       	push	r1
    2dcc:	9f 93       	push	r25
    2dce:	86 fb       	bst	r24, 6
    2dd0:	99 27       	eor	r25, r25
    2dd2:	90 f9       	bld	r25, 0
    2dd4:	1f 92       	push	r1
    2dd6:	9f 93       	push	r25
    2dd8:	84 fb       	bst	r24, 4
    2dda:	99 27       	eor	r25, r25
    2ddc:	90 f9       	bld	r25, 0
    2dde:	1f 92       	push	r1
    2de0:	9f 93       	push	r25
    2de2:	82 fb       	bst	r24, 2
    2de4:	99 27       	eor	r25, r25
    2de6:	90 f9       	bld	r25, 0
    2de8:	1f 92       	push	r1
    2dea:	9f 93       	push	r25
    2dec:	81 70       	andi	r24, 0x01	; 1
    2dee:	1f 92       	push	r1
    2df0:	8f 93       	push	r24
    2df2:	89 ee       	ldi	r24, 0xE9	; 233
    2df4:	99 e0       	ldi	r25, 0x09	; 9
    2df6:	9f 93       	push	r25
    2df8:	8f 93       	push	r24
    2dfa:	0e 94 c2 1e 	call	0x3d84	; 0x3d84 <UARTprintf>
									 ((_status & (1 << TEC2_ENA)) >> TEC2_ENA), ((_status & (1 <<TEC3_ENA)) >> TEC3_ENA),
									s_Temperature_CurrentState.mode[0], s_Temperature_CurrentState.mode[1],	s_Temperature_CurrentState.mode[2],	s_Temperature_CurrentState.mode[3],
									s_Temperature_CurrentState.channel_temperature_setpoint[0], s_Temperature_CurrentState.channel_temperature_setpoint[1],
									s_Temperature_CurrentState.channel_temperature_setpoint[2], s_Temperature_CurrentState.channel_temperature_setpoint[3]);
}
    2dfe:	8d b7       	in	r24, 0x3d	; 61
    2e00:	9e b7       	in	r25, 0x3e	; 62
    2e02:	4a 96       	adiw	r24, 0x1a	; 26
    2e04:	0f b6       	in	r0, 0x3f	; 63
    2e06:	f8 94       	cli
    2e08:	9e bf       	out	0x3e, r25	; 62
    2e0a:	0f be       	out	0x3f, r0	; 63
    2e0c:	8d bf       	out	0x3d, r24	; 61
    2e0e:	08 95       	ret

00002e10 <temperature_task_update>:
	TEC_shutdown(channel);
	s_Temperature_CurrentState.TEC_status &= ~(1 << (channel*2));
}

static	void	temperature_task_update(void)
{
    2e10:	af 92       	push	r10
    2e12:	bf 92       	push	r11
    2e14:	cf 92       	push	r12
    2e16:	df 92       	push	r13
    2e18:	ef 92       	push	r14
    2e1a:	ff 92       	push	r15
    2e1c:	0f 93       	push	r16
    2e1e:	1f 93       	push	r17
    2e20:	cf 93       	push	r28
    2e22:	df 93       	push	r29
		int16_t _NTC_channel0_temperature = get_NTC_temperature_using_table(0);
    2e24:	80 e0       	ldi	r24, 0x00	; 0
    2e26:	0e 94 a9 1f 	call	0x3f52	; 0x3f52 <get_NTC_temperature_using_table>
    2e2a:	7c 01       	movw	r14, r24
		int16_t _NTC_channel1_temperature = get_NTC_temperature_using_table(1);
    2e2c:	81 e0       	ldi	r24, 0x01	; 1
    2e2e:	0e 94 a9 1f 	call	0x3f52	; 0x3f52 <get_NTC_temperature_using_table>
    2e32:	8c 01       	movw	r16, r24
		int16_t _NTC_channel2_temperature = get_NTC_temperature_using_table(2);
    2e34:	82 e0       	ldi	r24, 0x02	; 2
    2e36:	0e 94 a9 1f 	call	0x3f52	; 0x3f52 <get_NTC_temperature_using_table>
    2e3a:	5c 01       	movw	r10, r24
		int16_t _NTC_channel3_temperature = get_NTC_temperature_using_table(3);
    2e3c:	83 e0       	ldi	r24, 0x03	; 3
    2e3e:	0e 94 a9 1f 	call	0x3f52	; 0x3f52 <get_NTC_temperature_using_table>
    2e42:	6c 01       	movw	r12, r24
		
		if ((s_Temperature_CurrentState.TEC_status & (1 << TEC0_AUTO)) == (1 << TEC0_AUTO))		//channel 0 is enabled and auto
    2e44:	80 91 c2 01 	lds	r24, 0x01C2	; 0x8001c2 <s_Temperature_CurrentState+0x1e>
    2e48:	81 ff       	sbrs	r24, 1
    2e4a:	0f c0       	rjmp	.+30     	; 0x2e6a <temperature_task_update+0x5a>
		{
			if (s_Temperature_CurrentState.mode[0] == HEATING)
    2e4c:	80 91 cc 01 	lds	r24, 0x01CC	; 0x8001cc <s_Temperature_CurrentState+0x28>
    2e50:	81 30       	cpi	r24, 0x01	; 1
    2e52:	31 f4       	brne	.+12     	; 0x2e60 <temperature_task_update+0x50>
			{
				temperature_TEC_hysteris_control_heating(_NTC_channel0_temperature, 0, 1);
    2e54:	41 e0       	ldi	r20, 0x01	; 1
    2e56:	60 e0       	ldi	r22, 0x00	; 0
    2e58:	c7 01       	movw	r24, r14
    2e5a:	0e 94 ca 14 	call	0x2994	; 0x2994 <temperature_TEC_hysteris_control_heating>
    2e5e:	05 c0       	rjmp	.+10     	; 0x2e6a <temperature_task_update+0x5a>
			}
			else
			{
				temperature_TEC_hysteris_control_cooling(_NTC_channel0_temperature, 0, 1);
    2e60:	41 e0       	ldi	r20, 0x01	; 1
    2e62:	60 e0       	ldi	r22, 0x00	; 0
    2e64:	c7 01       	movw	r24, r14
    2e66:	0e 94 a8 15 	call	0x2b50	; 0x2b50 <temperature_TEC_hysteris_control_cooling>
			}
		}
		
		if ((s_Temperature_CurrentState.TEC_status & (1 << TEC1_AUTO)) == (1 << TEC1_AUTO))		//channel 1 is enabled and auto
    2e6a:	80 91 c2 01 	lds	r24, 0x01C2	; 0x8001c2 <s_Temperature_CurrentState+0x1e>
    2e6e:	83 ff       	sbrs	r24, 3
    2e70:	35 c0       	rjmp	.+106    	; 0x2edc <temperature_task_update+0xcc>
		{
			if (s_Temperature_CurrentState.mode[1] == HEATING)
    2e72:	80 91 cd 01 	lds	r24, 0x01CD	; 0x8001cd <s_Temperature_CurrentState+0x29>
    2e76:	81 30       	cpi	r24, 0x01	; 1
    2e78:	31 f4       	brne	.+12     	; 0x2e86 <temperature_task_update+0x76>
			{
				temperature_TEC_hysteris_control_heating(_NTC_channel1_temperature, 1, 1);
    2e7a:	41 e0       	ldi	r20, 0x01	; 1
    2e7c:	61 e0       	ldi	r22, 0x01	; 1
    2e7e:	c8 01       	movw	r24, r16
    2e80:	0e 94 ca 14 	call	0x2994	; 0x2994 <temperature_TEC_hysteris_control_heating>
    2e84:	05 c0       	rjmp	.+10     	; 0x2e90 <temperature_task_update+0x80>
			}
			else
			{
				temperature_TEC_hysteris_control_cooling(_NTC_channel1_temperature, 1, 1);
    2e86:	41 e0       	ldi	r20, 0x01	; 1
    2e88:	61 e0       	ldi	r22, 0x01	; 1
    2e8a:	c8 01       	movw	r24, r16
    2e8c:	0e 94 a8 15 	call	0x2b50	; 0x2b50 <temperature_TEC_hysteris_control_cooling>
			}
		}
		
		if ((s_Temperature_CurrentState.TEC_status & (1 << TEC1_AUTO)) == (1 << TEC1_AUTO))		//channel 2 is enabled and auto
    2e90:	80 91 c2 01 	lds	r24, 0x01C2	; 0x8001c2 <s_Temperature_CurrentState+0x1e>
    2e94:	83 ff       	sbrs	r24, 3
    2e96:	22 c0       	rjmp	.+68     	; 0x2edc <temperature_task_update+0xcc>
		{
			if (s_Temperature_CurrentState.mode[1] == HEATING)
    2e98:	80 91 cd 01 	lds	r24, 0x01CD	; 0x8001cd <s_Temperature_CurrentState+0x29>
    2e9c:	81 30       	cpi	r24, 0x01	; 1
    2e9e:	31 f4       	brne	.+12     	; 0x2eac <temperature_task_update+0x9c>
			{
				temperature_TEC_hysteris_control_heating(_NTC_channel1_temperature, 2, 1);
    2ea0:	41 e0       	ldi	r20, 0x01	; 1
    2ea2:	62 e0       	ldi	r22, 0x02	; 2
    2ea4:	c8 01       	movw	r24, r16
    2ea6:	0e 94 ca 14 	call	0x2994	; 0x2994 <temperature_TEC_hysteris_control_heating>
    2eaa:	05 c0       	rjmp	.+10     	; 0x2eb6 <temperature_task_update+0xa6>
			}
			else
			{
				temperature_TEC_hysteris_control_cooling(_NTC_channel1_temperature, 2, 1);
    2eac:	41 e0       	ldi	r20, 0x01	; 1
    2eae:	62 e0       	ldi	r22, 0x02	; 2
    2eb0:	c8 01       	movw	r24, r16
    2eb2:	0e 94 a8 15 	call	0x2b50	; 0x2b50 <temperature_TEC_hysteris_control_cooling>
			}
		}
		
		if ((s_Temperature_CurrentState.TEC_status & (1 << TEC1_AUTO)) == (1 << TEC1_AUTO))		//channel 3 is enabled and auto
    2eb6:	80 91 c2 01 	lds	r24, 0x01C2	; 0x8001c2 <s_Temperature_CurrentState+0x1e>
    2eba:	83 ff       	sbrs	r24, 3
    2ebc:	0f c0       	rjmp	.+30     	; 0x2edc <temperature_task_update+0xcc>
		{
			if (s_Temperature_CurrentState.mode[1] == HEATING)
    2ebe:	80 91 cd 01 	lds	r24, 0x01CD	; 0x8001cd <s_Temperature_CurrentState+0x29>
    2ec2:	81 30       	cpi	r24, 0x01	; 1
    2ec4:	31 f4       	brne	.+12     	; 0x2ed2 <temperature_task_update+0xc2>
			{
				temperature_TEC_hysteris_control_heating(_NTC_channel1_temperature, 3, 1);
    2ec6:	41 e0       	ldi	r20, 0x01	; 1
    2ec8:	63 e0       	ldi	r22, 0x03	; 3
    2eca:	c8 01       	movw	r24, r16
    2ecc:	0e 94 ca 14 	call	0x2994	; 0x2994 <temperature_TEC_hysteris_control_heating>
    2ed0:	05 c0       	rjmp	.+10     	; 0x2edc <temperature_task_update+0xcc>
			}
			else
			{
				temperature_TEC_hysteris_control_cooling(_NTC_channel1_temperature, 3, 1);
    2ed2:	41 e0       	ldi	r20, 0x01	; 1
    2ed4:	63 e0       	ldi	r22, 0x03	; 3
    2ed6:	c8 01       	movw	r24, r16
    2ed8:	0e 94 a8 15 	call	0x2b50	; 0x2b50 <temperature_TEC_hysteris_control_cooling>
			}
		}
		
		s_Temperature_CurrentState.NTC_channel_temperature[0] = _NTC_channel0_temperature;
    2edc:	c4 ea       	ldi	r28, 0xA4	; 164
    2ede:	d1 e0       	ldi	r29, 0x01	; 1
    2ee0:	f9 82       	std	Y+1, r15	; 0x01
    2ee2:	e8 82       	st	Y, r14
		s_Temperature_CurrentState.NTC_channel_temperature[1] = _NTC_channel1_temperature;
    2ee4:	1b 83       	std	Y+3, r17	; 0x03
    2ee6:	0a 83       	std	Y+2, r16	; 0x02
		s_Temperature_CurrentState.NTC_channel_temperature[2] = _NTC_channel2_temperature;
    2ee8:	bd 82       	std	Y+5, r11	; 0x05
    2eea:	ac 82       	std	Y+4, r10	; 0x04
		s_Temperature_CurrentState.NTC_channel_temperature[3] = _NTC_channel3_temperature;
    2eec:	df 82       	std	Y+7, r13	; 0x07
    2eee:	ce 82       	std	Y+6, r12	; 0x06
// 		// update temperature from onewire sensor
// 		s_Temperature_CurrentState.onewire_channel_temperature[0] = get_NTC_temperature(0) /*get_onewire_temperature(0)*/;
// 		s_Temperature_CurrentState.onewire_channel_temperature[1] = get_NTC_temperature(1) /*get_onewire_temperature(1)*/;	
		
		// update temperature from BMP390 sensor
		s_Temperature_CurrentState.i2c_sensor_temperature = get_BMP390_temperature();
    2ef0:	0e 94 d2 1e 	call	0x3da4	; 0x3da4 <get_BMP390_temperature>
    2ef4:	9d 87       	std	Y+13, r25	; 0x0d
    2ef6:	8c 87       	std	Y+12, r24	; 0x0c
		
		if (SCH_TIM_HasCompleted(SCH_TIM_TEMPERATURE_LOG))
    2ef8:	81 e0       	ldi	r24, 0x01	; 1
    2efa:	0e 94 91 20 	call	0x4122	; 0x4122 <SCH_TIM_HasCompleted>
    2efe:	88 23       	and	r24, r24
    2f00:	69 f0       	breq	.+26     	; 0x2f1c <temperature_task_update+0x10c>
		{
			if (sPrintLog)
    2f02:	80 91 f8 0a 	lds	r24, 0x0AF8	; 0x800af8 <sPrintLog>
    2f06:	88 23       	and	r24, r24
    2f08:	49 f0       	breq	.+18     	; 0x2f1c <temperature_task_update+0x10c>
			{
				SCH_TIM_Start(SCH_TIM_TEMPERATURE_LOG,TEMPERATURE_LOG_PERIOD);
    2f0a:	48 ee       	ldi	r20, 0xE8	; 232
    2f0c:	53 e0       	ldi	r21, 0x03	; 3
    2f0e:	60 e0       	ldi	r22, 0x00	; 0
    2f10:	70 e0       	ldi	r23, 0x00	; 0
    2f12:	81 e0       	ldi	r24, 0x01	; 1
    2f14:	0e 94 86 20 	call	0x410c	; 0x410c <SCH_TIM_Start>
				temperature_get_status();
    2f18:	0e 94 c8 16 	call	0x2d90	; 0x2d90 <temperature_get_status>
			}
		}	

}
    2f1c:	df 91       	pop	r29
    2f1e:	cf 91       	pop	r28
    2f20:	1f 91       	pop	r17
    2f22:	0f 91       	pop	r16
    2f24:	ff 90       	pop	r15
    2f26:	ef 90       	pop	r14
    2f28:	df 90       	pop	r13
    2f2a:	cf 90       	pop	r12
    2f2c:	bf 90       	pop	r11
    2f2e:	af 90       	pop	r10
    2f30:	08 95       	ret

00002f32 <temperature_enable_log>:
									s_Temperature_CurrentState.channel_temperature_setpoint[2], s_Temperature_CurrentState.channel_temperature_setpoint[3]);
}

void	temperature_enable_log(void)
{
	sPrintLog  = 1;
    2f32:	81 e0       	ldi	r24, 0x01	; 1
    2f34:	80 93 f8 0a 	sts	0x0AF8, r24	; 0x800af8 <sPrintLog>
    2f38:	08 95       	ret

00002f3a <temperature_disable_log>:
}

void	temperature_disable_log(void)
{
	sPrintLog  = 0;
    2f3a:	10 92 f8 0a 	sts	0x0AF8, r1	; 0x800af8 <sPrintLog>
    2f3e:	08 95       	ret

00002f40 <watchdog_pulse>:
{
	TPL5010_init();
}
static void watchdog_pulse(void)
{
	TPL5010_done_pulse ();
    2f40:	0e 94 63 20 	call	0x40c6	; 0x40c6 <TPL5010_done_pulse>
    2f44:	08 95       	ret

00002f46 <watchdog_init>:
		watchdog_pulse         // timerCallbackFunction;
	}
};
void watchdog_init(void)
{
	TPL5010_init();
    2f46:	0e 94 5e 20 	call	0x40bc	; 0x40bc <TPL5010_init>
    2f4a:	08 95       	ret

00002f4c <watchdog_create_timer>:
	TPL5010_done_pulse ();
}

void	watchdog_create_timer(void)
{
	SCH_TIM_CreateTimer(&s_WatchdogTimerContext.timerHandle, &s_WatchdogTimerContext.timerProperty);
    2f4c:	68 ed       	ldi	r22, 0xD8	; 216
    2f4e:	71 e0       	ldi	r23, 0x01	; 1
    2f50:	87 ed       	ldi	r24, 0xD7	; 215
    2f52:	91 e0       	ldi	r25, 0x01	; 1
    2f54:	0e 94 d2 20 	call	0x41a4	; 0x41a4 <SCH_TIM_CreateTimer>
	SCH_TIM_RestartTimer(s_WatchdogTimerContext.timerHandle);
    2f58:	80 91 d7 01 	lds	r24, 0x01D7	; 0x8001d7 <s_WatchdogTimerContext>
    2f5c:	0e 94 03 21 	call	0x4206	; 0x4206 <SCH_TIM_RestartTimer>
    2f60:	08 95       	ret

00002f62 <init_adc>:
    2f62:	17 b8       	out	0x07, r1	; 7
    2f64:	3e 9a       	sbi	0x07, 6	; 7
    2f66:	86 b1       	in	r24, 0x06	; 6
    2f68:	87 68       	ori	r24, 0x87	; 135
    2f6a:	86 b9       	out	0x06, r24	; 6
    2f6c:	08 95       	ret

00002f6e <adc_read>:
    2f6e:	88 23       	and	r24, r24
    2f70:	21 f0       	breq	.+8      	; 0x2f7a <adc_read+0xc>
    2f72:	81 30       	cpi	r24, 0x01	; 1
    2f74:	19 f4       	brne	.+6      	; 0x2f7c <adc_read+0xe>
    2f76:	80 e0       	ldi	r24, 0x00	; 0
    2f78:	01 c0       	rjmp	.+2      	; 0x2f7c <adc_read+0xe>
    2f7a:	81 e0       	ldi	r24, 0x01	; 1
    2f7c:	97 b1       	in	r25, 0x07	; 7
    2f7e:	90 7f       	andi	r25, 0xF0	; 240
    2f80:	97 b9       	out	0x07, r25	; 7
    2f82:	97 b1       	in	r25, 0x07	; 7
    2f84:	8f 70       	andi	r24, 0x0F	; 15
    2f86:	89 2b       	or	r24, r25
    2f88:	87 b9       	out	0x07, r24	; 7
    2f8a:	36 9a       	sbi	0x06, 6	; 6
    2f8c:	36 99       	sbic	0x06, 6	; 6
    2f8e:	fe cf       	rjmp	.-4      	; 0x2f8c <adc_read+0x1e>
    2f90:	84 b1       	in	r24, 0x04	; 4
    2f92:	25 b1       	in	r18, 0x05	; 5
    2f94:	90 e0       	ldi	r25, 0x00	; 0
    2f96:	92 2b       	or	r25, r18
    2f98:	08 95       	ret

00002f9a <pwm1_init>:
	TCCR1B |= (1 << CS11) | (1 << CS10);	// Set prescaler to 64 and start the timer
	
	ICR1  = _TimePeriodUs * 0.125;					// Voi F = 8M thi T = 0.125us, va prescaler = 64 nen T' = 8us
	
	OCR1C = _DutyCyclePercent * ICR1 * 0.01;		// Output Compare
}
    2f9a:	cf 93       	push	r28
    2f9c:	c4 2f       	mov	r28, r20
    2f9e:	48 b3       	in	r20, 0x18	; 24
    2fa0:	21 e0       	ldi	r18, 0x01	; 1
    2fa2:	30 e0       	ldi	r19, 0x00	; 0
    2fa4:	f9 01       	movw	r30, r18
    2fa6:	02 c0       	rjmp	.+4      	; 0x2fac <pwm1_init+0x12>
    2fa8:	ee 0f       	add	r30, r30
    2faa:	ff 1f       	adc	r31, r31
    2fac:	8a 95       	dec	r24
    2fae:	e2 f7       	brpl	.-8      	; 0x2fa8 <pwm1_init+0xe>
    2fb0:	cf 01       	movw	r24, r30
    2fb2:	9e 2f       	mov	r25, r30
    2fb4:	90 95       	com	r25
    2fb6:	49 23       	and	r20, r25
    2fb8:	48 bb       	out	0x18, r20	; 24
    2fba:	97 b3       	in	r25, 0x17	; 23
    2fbc:	89 2b       	or	r24, r25
    2fbe:	87 bb       	out	0x17, r24	; 23
    2fc0:	8f b5       	in	r24, 0x2f	; 47
    2fc2:	82 60       	ori	r24, 0x02	; 2
    2fc4:	8f bd       	out	0x2f, r24	; 47
    2fc6:	8e b5       	in	r24, 0x2e	; 46
    2fc8:	88 61       	ori	r24, 0x18	; 24
    2fca:	8e bd       	out	0x2e, r24	; 46
    2fcc:	8f b5       	in	r24, 0x2f	; 47
    2fce:	80 62       	ori	r24, 0x20	; 32
    2fd0:	8f bd       	out	0x2f, r24	; 47
    2fd2:	8e b5       	in	r24, 0x2e	; 46
    2fd4:	83 60       	ori	r24, 0x03	; 3
    2fd6:	8e bd       	out	0x2e, r24	; 46
    2fd8:	80 e0       	ldi	r24, 0x00	; 0
    2fda:	90 e0       	ldi	r25, 0x00	; 0
    2fdc:	0e 94 60 24 	call	0x48c0	; 0x48c0 <__floatunsisf>
    2fe0:	20 e0       	ldi	r18, 0x00	; 0
    2fe2:	30 e0       	ldi	r19, 0x00	; 0
    2fe4:	40 e0       	ldi	r20, 0x00	; 0
    2fe6:	5e e3       	ldi	r21, 0x3E	; 62
    2fe8:	0e 94 ee 24 	call	0x49dc	; 0x49dc <__mulsf3>
    2fec:	0e 94 31 24 	call	0x4862	; 0x4862 <__fixunssfsi>
    2ff0:	77 bd       	out	0x27, r23	; 39
    2ff2:	66 bd       	out	0x26, r22	; 38
    2ff4:	86 b5       	in	r24, 0x26	; 38
    2ff6:	97 b5       	in	r25, 0x27	; 39
    2ff8:	c8 9f       	mul	r28, r24
    2ffa:	b0 01       	movw	r22, r0
    2ffc:	c9 9f       	mul	r28, r25
    2ffe:	70 0d       	add	r23, r0
    3000:	11 24       	eor	r1, r1
    3002:	80 e0       	ldi	r24, 0x00	; 0
    3004:	90 e0       	ldi	r25, 0x00	; 0
    3006:	0e 94 60 24 	call	0x48c0	; 0x48c0 <__floatunsisf>
    300a:	2a e0       	ldi	r18, 0x0A	; 10
    300c:	37 ed       	ldi	r19, 0xD7	; 215
    300e:	43 e2       	ldi	r20, 0x23	; 35
    3010:	5c e3       	ldi	r21, 0x3C	; 60
    3012:	0e 94 ee 24 	call	0x49dc	; 0x49dc <__mulsf3>
    3016:	0e 94 31 24 	call	0x4862	; 0x4862 <__fixunssfsi>
    301a:	79 bd       	out	0x29, r23	; 41
    301c:	68 bd       	out	0x28, r22	; 40
    301e:	cf 91       	pop	r28
    3020:	08 95       	ret

00003022 <pwm1_set_DutyCyclePercent>:

void pwm1_set_DutyCyclePercent(const uint8_t _DutyCyclePercent)
{
	OCR1B = _DutyCyclePercent * ICR1 * 0.01;
    3022:	26 b5       	in	r18, 0x26	; 38
    3024:	37 b5       	in	r19, 0x27	; 39
    3026:	48 2f       	mov	r20, r24
    3028:	42 9f       	mul	r20, r18
    302a:	c0 01       	movw	r24, r0
    302c:	43 9f       	mul	r20, r19
    302e:	90 0d       	add	r25, r0
    3030:	11 24       	eor	r1, r1
    3032:	bc 01       	movw	r22, r24
    3034:	80 e0       	ldi	r24, 0x00	; 0
    3036:	90 e0       	ldi	r25, 0x00	; 0
    3038:	0e 94 60 24 	call	0x48c0	; 0x48c0 <__floatunsisf>
    303c:	2a e0       	ldi	r18, 0x0A	; 10
    303e:	37 ed       	ldi	r19, 0xD7	; 215
    3040:	43 e2       	ldi	r20, 0x23	; 35
    3042:	5c e3       	ldi	r21, 0x3C	; 60
    3044:	0e 94 ee 24 	call	0x49dc	; 0x49dc <__mulsf3>
    3048:	0e 94 31 24 	call	0x4862	; 0x4862 <__fixunssfsi>
    304c:	79 bd       	out	0x29, r23	; 41
    304e:	68 bd       	out	0x28, r22	; 40
    3050:	08 95       	ret

00003052 <SPI_Init>:
// Initialize the SPI as master
void SPI_Init(void)
{
	

	 	MCP2515_SS0_DDR |= (1 << MCP2515_SS0_PIN);
    3052:	b8 9a       	sbi	0x17, 0	; 23
	 	MCP2515_SS0_PORT |= (1 << MCP2515_SS0_PIN);      //kh?i ??ng chn SS l output v xu?t 1 tr??c khi kh?i ??ng SPI
    3054:	c0 9a       	sbi	0x18, 0	; 24
		   
	// make the MOSI, SCK, and SS pins outputs
	SPI_DDR |= ( 1 << SPI_MOSI ) | ( 1 << SPI_SCK ) ;
    3056:	87 b3       	in	r24, 0x17	; 23
    3058:	86 60       	ori	r24, 0x06	; 6
    305a:	87 bb       	out	0x17, r24	; 23

	// make sure the MISO pin is input
	SPI_DDR &= ~( 1 << SPI_MISO );
    305c:	bb 98       	cbi	0x17, 3	; 23

	// set up the SPI module: SPI enabled, MSB first, master mode,
	//  clock polarity and phase = 0, F_osc/16
	SPI_SPCR |= ( 1 << SPI_SPE ) | ( 1 << SPI_MSTR ) | ( 1 << SPI_SPR0 );
    305e:	8d b1       	in	r24, 0x0d	; 13
    3060:	81 65       	ori	r24, 0x51	; 81
    3062:	8d b9       	out	0x0d, r24	; 13
    3064:	08 95       	ret

00003066 <SPI_SendByte>:

// Transfer a byte of data
uint8_t SPI_SendByte( uint8_t data )
{
	// Start transmission
	SPDR = data;
    3066:	8f b9       	out	0x0f, r24	; 15
//	SPDR = 01;

	// Wait for the transmission to complete
	while (!(SPSR & (1 << SPIF)));
    3068:	77 9b       	sbis	0x0e, 7	; 14
    306a:	fe cf       	rjmp	.-4      	; 0x3068 <SPI_SendByte+0x2>

	// return the byte received from the slave
	return SPDR;
    306c:	8f b1       	in	r24, 0x0f	; 15
}
    306e:	08 95       	ret

00003070 <timer_start_timer0>:
    3070:	83 b7       	in	r24, 0x33	; 51
    3072:	84 60       	ori	r24, 0x04	; 4
    3074:	83 bf       	out	0x33, r24	; 51
    3076:	87 b7       	in	r24, 0x37	; 55
    3078:	82 60       	ori	r24, 0x02	; 2
    307a:	87 bf       	out	0x37, r24	; 55
    307c:	78 94       	sei
    307e:	08 95       	ret

00003080 <timer_timer0_init>:
    3080:	83 b7       	in	r24, 0x33	; 51
    3082:	88 60       	ori	r24, 0x08	; 8
    3084:	83 bf       	out	0x33, r24	; 51
    3086:	12 be       	out	0x32, r1	; 50
    3088:	8c e7       	ldi	r24, 0x7C	; 124
    308a:	81 bf       	out	0x31, r24	; 49
    308c:	08 95       	ret

0000308e <twi_stop>:
    308e:	84 e9       	ldi	r24, 0x94	; 148
    3090:	80 93 74 00 	sts	0x0074, r24	; 0x800074 <__TEXT_REGION_LENGTH__+0x7f0074>
    3094:	e4 e7       	ldi	r30, 0x74	; 116
    3096:	f0 e0       	ldi	r31, 0x00	; 0
    3098:	80 81       	ld	r24, Z
    309a:	84 fd       	sbrc	r24, 4
    309c:	fd cf       	rjmp	.-6      	; 0x3098 <twi_stop+0xa>
    309e:	08 95       	ret

000030a0 <twi_releaseBus>:
    30a0:	85 ec       	ldi	r24, 0xC5	; 197
    30a2:	80 93 74 00 	sts	0x0074, r24	; 0x800074 <__TEXT_REGION_LENGTH__+0x7f0074>
    30a6:	10 92 2c 0b 	sts	0x0B2C, r1	; 0x800b2c <twi_state>
    30aa:	08 95       	ret

000030ac <__vector_33>:
    30ac:	1f 92       	push	r1
    30ae:	0f 92       	push	r0
    30b0:	0f b6       	in	r0, 0x3f	; 63
    30b2:	0f 92       	push	r0
    30b4:	11 24       	eor	r1, r1
    30b6:	2f 93       	push	r18
    30b8:	3f 93       	push	r19
    30ba:	4f 93       	push	r20
    30bc:	5f 93       	push	r21
    30be:	6f 93       	push	r22
    30c0:	7f 93       	push	r23
    30c2:	8f 93       	push	r24
    30c4:	9f 93       	push	r25
    30c6:	af 93       	push	r26
    30c8:	bf 93       	push	r27
    30ca:	ef 93       	push	r30
    30cc:	ff 93       	push	r31
    30ce:	80 91 71 00 	lds	r24, 0x0071	; 0x800071 <__TEXT_REGION_LENGTH__+0x7f0071>
    30d2:	e8 2f       	mov	r30, r24
    30d4:	e8 7f       	andi	r30, 0xF8	; 248
    30d6:	8e 2f       	mov	r24, r30
    30d8:	90 e0       	ldi	r25, 0x00	; 0
    30da:	89 3c       	cpi	r24, 0xC9	; 201
    30dc:	91 05       	cpc	r25, r1
    30de:	08 f0       	brcs	.+2      	; 0x30e2 <__vector_33+0x36>
    30e0:	f5 c0       	rjmp	.+490    	; 0x32cc <__vector_33+0x220>
    30e2:	fc 01       	movw	r30, r24
    30e4:	e7 5a       	subi	r30, 0xA7	; 167
    30e6:	ff 4f       	sbci	r31, 0xFF	; 255
    30e8:	0c 94 0a 29 	jmp	0x5214	; 0x5214 <__tablejump2__>
    30ec:	80 91 2b 0b 	lds	r24, 0x0B2B	; 0x800b2b <twi_slarw>
    30f0:	80 93 73 00 	sts	0x0073, r24	; 0x800073 <__TEXT_REGION_LENGTH__+0x7f0073>
    30f4:	85 e8       	ldi	r24, 0x85	; 133
    30f6:	80 93 74 00 	sts	0x0074, r24	; 0x800074 <__TEXT_REGION_LENGTH__+0x7f0074>
    30fa:	e8 c0       	rjmp	.+464    	; 0x32cc <__vector_33+0x220>
    30fc:	90 91 1c 0b 	lds	r25, 0x0B1C	; 0x800b1c <twi_master_txBufferIndex>
    3100:	80 91 1b 0b 	lds	r24, 0x0B1B	; 0x800b1b <twi_master_txBufferLength>
    3104:	98 17       	cp	r25, r24
    3106:	80 f4       	brcc	.+32     	; 0x3128 <__vector_33+0x7c>
    3108:	e0 91 1c 0b 	lds	r30, 0x0B1C	; 0x800b1c <twi_master_txBufferIndex>
    310c:	81 e0       	ldi	r24, 0x01	; 1
    310e:	8e 0f       	add	r24, r30
    3110:	80 93 1c 0b 	sts	0x0B1C, r24	; 0x800b1c <twi_master_txBufferIndex>
    3114:	f0 e0       	ldi	r31, 0x00	; 0
    3116:	e3 5e       	subi	r30, 0xE3	; 227
    3118:	f4 4f       	sbci	r31, 0xF4	; 244
    311a:	80 81       	ld	r24, Z
    311c:	80 93 73 00 	sts	0x0073, r24	; 0x800073 <__TEXT_REGION_LENGTH__+0x7f0073>
    3120:	85 ec       	ldi	r24, 0xC5	; 197
    3122:	80 93 74 00 	sts	0x0074, r24	; 0x800074 <__TEXT_REGION_LENGTH__+0x7f0074>
    3126:	d2 c0       	rjmp	.+420    	; 0x32cc <__vector_33+0x220>
    3128:	80 91 2a 0b 	lds	r24, 0x0B2A	; 0x800b2a <twi_sendStop>
    312c:	88 23       	and	r24, r24
    312e:	19 f0       	breq	.+6      	; 0x3136 <__vector_33+0x8a>
    3130:	0e 94 47 18 	call	0x308e	; 0x308e <twi_stop>
    3134:	cb c0       	rjmp	.+406    	; 0x32cc <__vector_33+0x220>
    3136:	81 e0       	ldi	r24, 0x01	; 1
    3138:	80 93 29 0b 	sts	0x0B29, r24	; 0x800b29 <twi_inRepStart>
    313c:	84 ea       	ldi	r24, 0xA4	; 164
    313e:	80 93 74 00 	sts	0x0074, r24	; 0x800074 <__TEXT_REGION_LENGTH__+0x7f0074>
    3142:	10 92 2c 0b 	sts	0x0B2C, r1	; 0x800b2c <twi_state>
    3146:	c2 c0       	rjmp	.+388    	; 0x32cc <__vector_33+0x220>
    3148:	80 e2       	ldi	r24, 0x20	; 32
    314a:	80 93 fd 0a 	sts	0x0AFD, r24	; 0x800afd <twi_error>
    314e:	0e 94 47 18 	call	0x308e	; 0x308e <twi_stop>
    3152:	bc c0       	rjmp	.+376    	; 0x32cc <__vector_33+0x220>
    3154:	80 e3       	ldi	r24, 0x30	; 48
    3156:	80 93 fd 0a 	sts	0x0AFD, r24	; 0x800afd <twi_error>
    315a:	0e 94 47 18 	call	0x308e	; 0x308e <twi_stop>
    315e:	b6 c0       	rjmp	.+364    	; 0x32cc <__vector_33+0x220>
    3160:	88 e3       	ldi	r24, 0x38	; 56
    3162:	80 93 fd 0a 	sts	0x0AFD, r24	; 0x800afd <twi_error>
    3166:	0e 94 50 18 	call	0x30a0	; 0x30a0 <twi_releaseBus>
    316a:	b0 c0       	rjmp	.+352    	; 0x32cc <__vector_33+0x220>
    316c:	e0 91 12 0b 	lds	r30, 0x0B12	; 0x800b12 <twi_master_rxBufferIndex>
    3170:	81 e0       	ldi	r24, 0x01	; 1
    3172:	8e 0f       	add	r24, r30
    3174:	80 93 12 0b 	sts	0x0B12, r24	; 0x800b12 <twi_master_rxBufferIndex>
    3178:	80 91 73 00 	lds	r24, 0x0073	; 0x800073 <__TEXT_REGION_LENGTH__+0x7f0073>
    317c:	f0 e0       	ldi	r31, 0x00	; 0
    317e:	ed 5e       	subi	r30, 0xED	; 237
    3180:	f4 4f       	sbci	r31, 0xF4	; 244
    3182:	80 83       	st	Z, r24
    3184:	90 91 12 0b 	lds	r25, 0x0B12	; 0x800b12 <twi_master_rxBufferIndex>
    3188:	80 91 11 0b 	lds	r24, 0x0B11	; 0x800b11 <twi_master_rxBufferLength>
    318c:	98 17       	cp	r25, r24
    318e:	20 f4       	brcc	.+8      	; 0x3198 <__vector_33+0xec>
    3190:	85 ec       	ldi	r24, 0xC5	; 197
    3192:	80 93 74 00 	sts	0x0074, r24	; 0x800074 <__TEXT_REGION_LENGTH__+0x7f0074>
    3196:	9a c0       	rjmp	.+308    	; 0x32cc <__vector_33+0x220>
    3198:	85 e8       	ldi	r24, 0x85	; 133
    319a:	80 93 74 00 	sts	0x0074, r24	; 0x800074 <__TEXT_REGION_LENGTH__+0x7f0074>
    319e:	96 c0       	rjmp	.+300    	; 0x32cc <__vector_33+0x220>
    31a0:	e0 91 12 0b 	lds	r30, 0x0B12	; 0x800b12 <twi_master_rxBufferIndex>
    31a4:	81 e0       	ldi	r24, 0x01	; 1
    31a6:	8e 0f       	add	r24, r30
    31a8:	80 93 12 0b 	sts	0x0B12, r24	; 0x800b12 <twi_master_rxBufferIndex>
    31ac:	80 91 73 00 	lds	r24, 0x0073	; 0x800073 <__TEXT_REGION_LENGTH__+0x7f0073>
    31b0:	f0 e0       	ldi	r31, 0x00	; 0
    31b2:	ed 5e       	subi	r30, 0xED	; 237
    31b4:	f4 4f       	sbci	r31, 0xF4	; 244
    31b6:	80 83       	st	Z, r24
    31b8:	80 91 2a 0b 	lds	r24, 0x0B2A	; 0x800b2a <twi_sendStop>
    31bc:	88 23       	and	r24, r24
    31be:	19 f0       	breq	.+6      	; 0x31c6 <__vector_33+0x11a>
    31c0:	0e 94 47 18 	call	0x308e	; 0x308e <twi_stop>
    31c4:	83 c0       	rjmp	.+262    	; 0x32cc <__vector_33+0x220>
    31c6:	81 e0       	ldi	r24, 0x01	; 1
    31c8:	80 93 29 0b 	sts	0x0B29, r24	; 0x800b29 <twi_inRepStart>
    31cc:	84 ea       	ldi	r24, 0xA4	; 164
    31ce:	80 93 74 00 	sts	0x0074, r24	; 0x800074 <__TEXT_REGION_LENGTH__+0x7f0074>
    31d2:	10 92 2c 0b 	sts	0x0B2C, r1	; 0x800b2c <twi_state>
    31d6:	7a c0       	rjmp	.+244    	; 0x32cc <__vector_33+0x220>
    31d8:	0e 94 47 18 	call	0x308e	; 0x308e <twi_stop>
    31dc:	77 c0       	rjmp	.+238    	; 0x32cc <__vector_33+0x220>
    31de:	83 e0       	ldi	r24, 0x03	; 3
    31e0:	80 93 2c 0b 	sts	0x0B2C, r24	; 0x800b2c <twi_state>
    31e4:	10 92 fe 0a 	sts	0x0AFE, r1	; 0x800afe <twi_slv_rxBufferIndex>
    31e8:	85 ec       	ldi	r24, 0xC5	; 197
    31ea:	80 93 74 00 	sts	0x0074, r24	; 0x800074 <__TEXT_REGION_LENGTH__+0x7f0074>
    31ee:	6e c0       	rjmp	.+220    	; 0x32cc <__vector_33+0x220>
    31f0:	80 91 fe 0a 	lds	r24, 0x0AFE	; 0x800afe <twi_slv_rxBufferIndex>
    31f4:	88 30       	cpi	r24, 0x08	; 8
    31f6:	80 f4       	brcc	.+32     	; 0x3218 <__vector_33+0x16c>
    31f8:	e0 91 fe 0a 	lds	r30, 0x0AFE	; 0x800afe <twi_slv_rxBufferIndex>
    31fc:	81 e0       	ldi	r24, 0x01	; 1
    31fe:	8e 0f       	add	r24, r30
    3200:	80 93 fe 0a 	sts	0x0AFE, r24	; 0x800afe <twi_slv_rxBufferIndex>
    3204:	80 91 73 00 	lds	r24, 0x0073	; 0x800073 <__TEXT_REGION_LENGTH__+0x7f0073>
    3208:	f0 e0       	ldi	r31, 0x00	; 0
    320a:	e1 50       	subi	r30, 0x01	; 1
    320c:	f5 4f       	sbci	r31, 0xF5	; 245
    320e:	80 83       	st	Z, r24
    3210:	85 ec       	ldi	r24, 0xC5	; 197
    3212:	80 93 74 00 	sts	0x0074, r24	; 0x800074 <__TEXT_REGION_LENGTH__+0x7f0074>
    3216:	5a c0       	rjmp	.+180    	; 0x32cc <__vector_33+0x220>
    3218:	85 e8       	ldi	r24, 0x85	; 133
    321a:	80 93 74 00 	sts	0x0074, r24	; 0x800074 <__TEXT_REGION_LENGTH__+0x7f0074>
    321e:	56 c0       	rjmp	.+172    	; 0x32cc <__vector_33+0x220>
    3220:	0e 94 50 18 	call	0x30a0	; 0x30a0 <twi_releaseBus>
    3224:	80 91 fe 0a 	lds	r24, 0x0AFE	; 0x800afe <twi_slv_rxBufferIndex>
    3228:	88 30       	cpi	r24, 0x08	; 8
    322a:	30 f4       	brcc	.+12     	; 0x3238 <__vector_33+0x18c>
    322c:	e0 91 fe 0a 	lds	r30, 0x0AFE	; 0x800afe <twi_slv_rxBufferIndex>
    3230:	f0 e0       	ldi	r31, 0x00	; 0
    3232:	e1 50       	subi	r30, 0x01	; 1
    3234:	f5 4f       	sbci	r31, 0xF5	; 245
    3236:	10 82       	st	Z, r1
    3238:	60 91 fe 0a 	lds	r22, 0x0AFE	; 0x800afe <twi_slv_rxBufferIndex>
    323c:	70 e0       	ldi	r23, 0x00	; 0
    323e:	e0 91 25 0b 	lds	r30, 0x0B25	; 0x800b25 <twi_onSlaveReceive>
    3242:	f0 91 26 0b 	lds	r31, 0x0B26	; 0x800b26 <twi_onSlaveReceive+0x1>
    3246:	8f ef       	ldi	r24, 0xFF	; 255
    3248:	9a e0       	ldi	r25, 0x0A	; 10
    324a:	09 95       	icall
    324c:	10 92 fe 0a 	sts	0x0AFE, r1	; 0x800afe <twi_slv_rxBufferIndex>
    3250:	3d c0       	rjmp	.+122    	; 0x32cc <__vector_33+0x220>
    3252:	85 e8       	ldi	r24, 0x85	; 133
    3254:	80 93 74 00 	sts	0x0074, r24	; 0x800074 <__TEXT_REGION_LENGTH__+0x7f0074>
    3258:	39 c0       	rjmp	.+114    	; 0x32cc <__vector_33+0x220>
    325a:	84 e0       	ldi	r24, 0x04	; 4
    325c:	80 93 2c 0b 	sts	0x0B2C, r24	; 0x800b2c <twi_state>
    3260:	10 92 08 0b 	sts	0x0B08, r1	; 0x800b08 <twi_slv_txBufferIndex>
    3264:	10 92 07 0b 	sts	0x0B07, r1	; 0x800b07 <twi_slv_txBufferLength>
    3268:	e0 91 27 0b 	lds	r30, 0x0B27	; 0x800b27 <twi_onSlaveTransmit>
    326c:	f0 91 28 0b 	lds	r31, 0x0B28	; 0x800b28 <twi_onSlaveTransmit+0x1>
    3270:	09 95       	icall
    3272:	80 91 07 0b 	lds	r24, 0x0B07	; 0x800b07 <twi_slv_txBufferLength>
    3276:	81 11       	cpse	r24, r1
    3278:	05 c0       	rjmp	.+10     	; 0x3284 <__vector_33+0x1d8>
    327a:	81 e0       	ldi	r24, 0x01	; 1
    327c:	80 93 07 0b 	sts	0x0B07, r24	; 0x800b07 <twi_slv_txBufferLength>
    3280:	10 92 09 0b 	sts	0x0B09, r1	; 0x800b09 <twi_slv_txBuffer>
    3284:	e0 91 08 0b 	lds	r30, 0x0B08	; 0x800b08 <twi_slv_txBufferIndex>
    3288:	81 e0       	ldi	r24, 0x01	; 1
    328a:	8e 0f       	add	r24, r30
    328c:	80 93 08 0b 	sts	0x0B08, r24	; 0x800b08 <twi_slv_txBufferIndex>
    3290:	f0 e0       	ldi	r31, 0x00	; 0
    3292:	e7 5f       	subi	r30, 0xF7	; 247
    3294:	f4 4f       	sbci	r31, 0xF4	; 244
    3296:	80 81       	ld	r24, Z
    3298:	80 93 73 00 	sts	0x0073, r24	; 0x800073 <__TEXT_REGION_LENGTH__+0x7f0073>
    329c:	90 91 08 0b 	lds	r25, 0x0B08	; 0x800b08 <twi_slv_txBufferIndex>
    32a0:	80 91 07 0b 	lds	r24, 0x0B07	; 0x800b07 <twi_slv_txBufferLength>
    32a4:	98 17       	cp	r25, r24
    32a6:	20 f4       	brcc	.+8      	; 0x32b0 <__vector_33+0x204>
    32a8:	85 ec       	ldi	r24, 0xC5	; 197
    32aa:	80 93 74 00 	sts	0x0074, r24	; 0x800074 <__TEXT_REGION_LENGTH__+0x7f0074>
    32ae:	0e c0       	rjmp	.+28     	; 0x32cc <__vector_33+0x220>
    32b0:	85 e8       	ldi	r24, 0x85	; 133
    32b2:	80 93 74 00 	sts	0x0074, r24	; 0x800074 <__TEXT_REGION_LENGTH__+0x7f0074>
    32b6:	0a c0       	rjmp	.+20     	; 0x32cc <__vector_33+0x220>
    32b8:	85 ec       	ldi	r24, 0xC5	; 197
    32ba:	80 93 74 00 	sts	0x0074, r24	; 0x800074 <__TEXT_REGION_LENGTH__+0x7f0074>
    32be:	10 92 2c 0b 	sts	0x0B2C, r1	; 0x800b2c <twi_state>
    32c2:	04 c0       	rjmp	.+8      	; 0x32cc <__vector_33+0x220>
    32c4:	10 92 fd 0a 	sts	0x0AFD, r1	; 0x800afd <twi_error>
    32c8:	0e 94 47 18 	call	0x308e	; 0x308e <twi_stop>
    32cc:	ff 91       	pop	r31
    32ce:	ef 91       	pop	r30
    32d0:	bf 91       	pop	r27
    32d2:	af 91       	pop	r26
    32d4:	9f 91       	pop	r25
    32d6:	8f 91       	pop	r24
    32d8:	7f 91       	pop	r23
    32da:	6f 91       	pop	r22
    32dc:	5f 91       	pop	r21
    32de:	4f 91       	pop	r20
    32e0:	3f 91       	pop	r19
    32e2:	2f 91       	pop	r18
    32e4:	0f 90       	pop	r0
    32e6:	0f be       	out	0x3f, r0	; 63
    32e8:	0f 90       	pop	r0
    32ea:	1f 90       	pop	r1
    32ec:	18 95       	reti

000032ee <rbuffer_init>:
	while(!(UCSR1A & (1 << TXC)));										// Wait for Tx unit to transmit the LAST character of ringbuffer

	_delay_ms(200);                                             // Extra safety for Tx to finish!

	UCSR1B &= ~( (1<<RXEN)|(1<<TXEN)|(1<<RXCIE) | (1<<	UDRIE));					//disable TX, RX, RX interrupt
	UCSR1C &= (1<<UCSZ1) | (1<<UCSZ0);
    32ee:	2f b7       	in	r18, 0x3f	; 63
    32f0:	f8 94       	cli
    32f2:	fc 01       	movw	r30, r24
    32f4:	e0 5c       	subi	r30, 0xC0	; 192
    32f6:	ff 4f       	sbci	r31, 0xFF	; 255
    32f8:	10 82       	st	Z, r1
    32fa:	31 96       	adiw	r30, 0x01	; 1
    32fc:	10 82       	st	Z, r1
    32fe:	31 96       	adiw	r30, 0x01	; 1
    3300:	10 82       	st	Z, r1
    3302:	2f bf       	out	0x3f, r18	; 63
    3304:	08 95       	ret

00003306 <rbuffer_empty>:
    3306:	8e 5b       	subi	r24, 0xBE	; 190
    3308:	9f 4f       	sbci	r25, 0xFF	; 255
    330a:	fc 01       	movw	r30, r24
    330c:	90 81       	ld	r25, Z
    330e:	81 e0       	ldi	r24, 0x01	; 1
    3310:	91 11       	cpse	r25, r1
    3312:	80 e0       	ldi	r24, 0x00	; 0
    3314:	08 95       	ret

00003316 <rbuffer_insert>:
    3316:	fb 01       	movw	r30, r22
    3318:	e0 5c       	subi	r30, 0xC0	; 192
    331a:	ff 4f       	sbci	r31, 0xFF	; 255
    331c:	90 81       	ld	r25, Z
    331e:	db 01       	movw	r26, r22
    3320:	a9 0f       	add	r26, r25
    3322:	b1 1d       	adc	r27, r1
    3324:	8c 93       	st	X, r24
    3326:	9f b7       	in	r25, 0x3f	; 63
    3328:	f8 94       	cli
    332a:	80 81       	ld	r24, Z
    332c:	8f 5f       	subi	r24, 0xFF	; 255
    332e:	8f 73       	andi	r24, 0x3F	; 63
    3330:	80 83       	st	Z, r24
    3332:	32 96       	adiw	r30, 0x02	; 2
    3334:	80 81       	ld	r24, Z
    3336:	8f 5f       	subi	r24, 0xFF	; 255
    3338:	80 83       	st	Z, r24
    333a:	9f bf       	out	0x3f, r25	; 63
    333c:	08 95       	ret

0000333e <rbuffer_remove>:
    333e:	fc 01       	movw	r30, r24
    3340:	ef 5b       	subi	r30, 0xBF	; 191
    3342:	ff 4f       	sbci	r31, 0xFF	; 255
    3344:	20 81       	ld	r18, Z
    3346:	dc 01       	movw	r26, r24
    3348:	a2 0f       	add	r26, r18
    334a:	b1 1d       	adc	r27, r1
    334c:	3c 91       	ld	r19, X
    334e:	4f b7       	in	r20, 0x3f	; 63
    3350:	f8 94       	cli
    3352:	20 81       	ld	r18, Z
    3354:	2f 5f       	subi	r18, 0xFF	; 255
    3356:	2f 73       	andi	r18, 0x3F	; 63
    3358:	20 83       	st	Z, r18
    335a:	31 96       	adiw	r30, 0x01	; 1
    335c:	90 81       	ld	r25, Z
    335e:	91 50       	subi	r25, 0x01	; 1
    3360:	90 83       	st	Z, r25
    3362:	4f bf       	out	0x3f, r20	; 63
    3364:	83 2f       	mov	r24, r19
    3366:	08 95       	ret

00003368 <usart0_init>:
    3368:	80 91 df 01 	lds	r24, 0x01DF	; 0x8001df <p_UART0_meta>
    336c:	90 91 e0 01 	lds	r25, 0x01E0	; 0x8001e0 <p_UART0_meta+0x1>
    3370:	8d 5b       	subi	r24, 0xBD	; 189
    3372:	9f 4f       	sbci	r25, 0xFF	; 255
    3374:	0e 94 77 19 	call	0x32ee	; 0x32ee <rbuffer_init>
    3378:	80 91 df 01 	lds	r24, 0x01DF	; 0x8001df <p_UART0_meta>
    337c:	90 91 e0 01 	lds	r25, 0x01E0	; 0x8001e0 <p_UART0_meta+0x1>
    3380:	0e 94 77 19 	call	0x32ee	; 0x32ee <rbuffer_init>
    3384:	10 92 90 00 	sts	0x0090, r1	; 0x800090 <__TEXT_REGION_LENGTH__+0x7f0090>
    3388:	83 e3       	ldi	r24, 0x33	; 51
    338a:	89 b9       	out	0x09, r24	; 9
    338c:	8a b1       	in	r24, 0x0a	; 10
    338e:	88 69       	ori	r24, 0x98	; 152
    3390:	8a b9       	out	0x0a, r24	; 10
    3392:	e5 e9       	ldi	r30, 0x95	; 149
    3394:	f0 e0       	ldi	r31, 0x00	; 0
    3396:	80 81       	ld	r24, Z
    3398:	86 60       	ori	r24, 0x06	; 6
    339a:	80 83       	st	Z, r24
    339c:	78 94       	sei
    339e:	08 95       	ret

000033a0 <usart0_send_char>:
    33a0:	60 91 df 01 	lds	r22, 0x01DF	; 0x8001df <p_UART0_meta>
    33a4:	70 91 e0 01 	lds	r23, 0x01E0	; 0x8001e0 <p_UART0_meta+0x1>
    33a8:	fb 01       	movw	r30, r22
    33aa:	eb 57       	subi	r30, 0x7B	; 123
    33ac:	ff 4f       	sbci	r31, 0xFF	; 255
    33ae:	90 81       	ld	r25, Z
    33b0:	90 34       	cpi	r25, 0x40	; 64
    33b2:	e9 f3       	breq	.-6      	; 0x33ae <usart0_send_char+0xe>
    33b4:	6d 5b       	subi	r22, 0xBD	; 189
    33b6:	7f 4f       	sbci	r23, 0xFF	; 255
    33b8:	0e 94 8b 19 	call	0x3316	; 0x3316 <rbuffer_insert>
    33bc:	55 9a       	sbi	0x0a, 5	; 10
    33be:	08 95       	ret

000033c0 <usart0_send_string>:
    33c0:	cf 93       	push	r28
    33c2:	df 93       	push	r29
    33c4:	ec 01       	movw	r28, r24
    33c6:	88 81       	ld	r24, Y
    33c8:	88 23       	and	r24, r24
    33ca:	31 f0       	breq	.+12     	; 0x33d8 <usart0_send_string+0x18>
    33cc:	21 96       	adiw	r28, 0x01	; 1
    33ce:	0e 94 d0 19 	call	0x33a0	; 0x33a0 <usart0_send_char>
    33d2:	89 91       	ld	r24, Y+
    33d4:	81 11       	cpse	r24, r1
    33d6:	fb cf       	rjmp	.-10     	; 0x33ce <usart0_send_string+0xe>
    33d8:	df 91       	pop	r29
    33da:	cf 91       	pop	r28
    33dc:	08 95       	ret

000033de <usart0_send_array>:
    33de:	0f 93       	push	r16
    33e0:	1f 93       	push	r17
    33e2:	cf 93       	push	r28
    33e4:	df 93       	push	r29
    33e6:	66 23       	and	r22, r22
    33e8:	71 f0       	breq	.+28     	; 0x3406 <usart0_send_array+0x28>
    33ea:	ec 01       	movw	r28, r24
    33ec:	61 50       	subi	r22, 0x01	; 1
    33ee:	06 2f       	mov	r16, r22
    33f0:	10 e0       	ldi	r17, 0x00	; 0
    33f2:	0f 5f       	subi	r16, 0xFF	; 255
    33f4:	1f 4f       	sbci	r17, 0xFF	; 255
    33f6:	08 0f       	add	r16, r24
    33f8:	19 1f       	adc	r17, r25
    33fa:	89 91       	ld	r24, Y+
    33fc:	0e 94 d0 19 	call	0x33a0	; 0x33a0 <usart0_send_char>
    3400:	c0 17       	cp	r28, r16
    3402:	d1 07       	cpc	r29, r17
    3404:	d1 f7       	brne	.-12     	; 0x33fa <usart0_send_array+0x1c>
    3406:	df 91       	pop	r29
    3408:	cf 91       	pop	r28
    340a:	1f 91       	pop	r17
    340c:	0f 91       	pop	r16
    340e:	08 95       	ret

00003410 <usart0_send_string_P>:
    3410:	cf 93       	push	r28
    3412:	df 93       	push	r29
    3414:	ec 01       	movw	r28, r24
    3416:	21 96       	adiw	r28, 0x01	; 1
    3418:	fc 01       	movw	r30, r24
    341a:	84 91       	lpm	r24, Z
    341c:	88 23       	and	r24, r24
    341e:	39 f0       	breq	.+14     	; 0x342e <usart0_send_string_P+0x1e>
    3420:	0e 94 d0 19 	call	0x33a0	; 0x33a0 <usart0_send_char>
    3424:	fe 01       	movw	r30, r28
    3426:	84 91       	lpm	r24, Z
    3428:	21 96       	adiw	r28, 0x01	; 1
    342a:	81 11       	cpse	r24, r1
    342c:	f9 cf       	rjmp	.-14     	; 0x3420 <usart0_send_string_P+0x10>
    342e:	df 91       	pop	r29
    3430:	cf 91       	pop	r28
    3432:	08 95       	ret

00003434 <uart_get_uart0_rx_buffer_address>:
    3434:	80 91 df 01 	lds	r24, 0x01DF	; 0x8001df <p_UART0_meta>
    3438:	90 91 e0 01 	lds	r25, 0x01E0	; 0x8001e0 <p_UART0_meta+0x1>
    343c:	08 95       	ret

0000343e <usart1_init>:
    343e:	80 91 dd 01 	lds	r24, 0x01DD	; 0x8001dd <p_UART1_meta>
    3442:	90 91 de 01 	lds	r25, 0x01DE	; 0x8001de <p_UART1_meta+0x1>
    3446:	8d 5b       	subi	r24, 0xBD	; 189
    3448:	9f 4f       	sbci	r25, 0xFF	; 255
    344a:	0e 94 77 19 	call	0x32ee	; 0x32ee <rbuffer_init>
    344e:	80 91 dd 01 	lds	r24, 0x01DD	; 0x8001dd <p_UART1_meta>
    3452:	90 91 de 01 	lds	r25, 0x01DE	; 0x8001de <p_UART1_meta+0x1>
    3456:	0e 94 77 19 	call	0x32ee	; 0x32ee <rbuffer_init>
    345a:	10 92 98 00 	sts	0x0098, r1	; 0x800098 <__TEXT_REGION_LENGTH__+0x7f0098>
    345e:	89 e1       	ldi	r24, 0x19	; 25
    3460:	80 93 99 00 	sts	0x0099, r24	; 0x800099 <__TEXT_REGION_LENGTH__+0x7f0099>
    3464:	ea e9       	ldi	r30, 0x9A	; 154
    3466:	f0 e0       	ldi	r31, 0x00	; 0
    3468:	80 81       	ld	r24, Z
    346a:	88 69       	ori	r24, 0x98	; 152
    346c:	80 83       	st	Z, r24
    346e:	ed e9       	ldi	r30, 0x9D	; 157
    3470:	f0 e0       	ldi	r31, 0x00	; 0
    3472:	80 81       	ld	r24, Z
    3474:	86 60       	ori	r24, 0x06	; 6
    3476:	80 83       	st	Z, r24
    3478:	eb e9       	ldi	r30, 0x9B	; 155
    347a:	f0 e0       	ldi	r31, 0x00	; 0
    347c:	80 81       	ld	r24, Z
    347e:	82 60       	ori	r24, 0x02	; 2
    3480:	80 83       	st	Z, r24
    3482:	08 95       	ret

00003484 <usart1_send_char>:
    3484:	60 91 dd 01 	lds	r22, 0x01DD	; 0x8001dd <p_UART1_meta>
    3488:	70 91 de 01 	lds	r23, 0x01DE	; 0x8001de <p_UART1_meta+0x1>
    348c:	fb 01       	movw	r30, r22
    348e:	eb 57       	subi	r30, 0x7B	; 123
    3490:	ff 4f       	sbci	r31, 0xFF	; 255
    3492:	90 81       	ld	r25, Z
    3494:	90 34       	cpi	r25, 0x40	; 64
    3496:	e9 f3       	breq	.-6      	; 0x3492 <usart1_send_char+0xe>
    3498:	6d 5b       	subi	r22, 0xBD	; 189
    349a:	7f 4f       	sbci	r23, 0xFF	; 255
    349c:	0e 94 8b 19 	call	0x3316	; 0x3316 <rbuffer_insert>
    34a0:	ea e9       	ldi	r30, 0x9A	; 154
    34a2:	f0 e0       	ldi	r31, 0x00	; 0
    34a4:	80 81       	ld	r24, Z
    34a6:	80 62       	ori	r24, 0x20	; 32
    34a8:	80 83       	st	Z, r24
    34aa:	08 95       	ret

000034ac <usart1_send_array>:
    34ac:	0f 93       	push	r16
    34ae:	1f 93       	push	r17
    34b0:	cf 93       	push	r28
    34b2:	df 93       	push	r29
    34b4:	66 23       	and	r22, r22
    34b6:	71 f0       	breq	.+28     	; 0x34d4 <usart1_send_array+0x28>
    34b8:	ec 01       	movw	r28, r24
    34ba:	61 50       	subi	r22, 0x01	; 1
    34bc:	06 2f       	mov	r16, r22
    34be:	10 e0       	ldi	r17, 0x00	; 0
    34c0:	0f 5f       	subi	r16, 0xFF	; 255
    34c2:	1f 4f       	sbci	r17, 0xFF	; 255
    34c4:	08 0f       	add	r16, r24
    34c6:	19 1f       	adc	r17, r25
    34c8:	89 91       	ld	r24, Y+
    34ca:	0e 94 42 1a 	call	0x3484	; 0x3484 <usart1_send_char>
    34ce:	c0 17       	cp	r28, r16
    34d0:	d1 07       	cpc	r29, r17
    34d2:	d1 f7       	brne	.-12     	; 0x34c8 <usart1_send_array+0x1c>
    34d4:	df 91       	pop	r29
    34d6:	cf 91       	pop	r28
    34d8:	1f 91       	pop	r17
    34da:	0f 91       	pop	r16
    34dc:	08 95       	ret

000034de <uart_get_uart1_rx_buffer_address>:


volatile ringbuffer_t * uart_get_uart1_rx_buffer_address(void)
{
	return &(p_UART1_meta->rb_rx);
}
    34de:	80 91 dd 01 	lds	r24, 0x01DD	; 0x8001dd <p_UART1_meta>
    34e2:	90 91 de 01 	lds	r25, 0x01DE	; 0x8001de <p_UART1_meta+0x1>
    34e6:	08 95       	ret

000034e8 <__vector_18>:

// ---- ---- ---- ---- ---- ---- ---- ---- ---- ---- ---- ---- ---- ----
// ISR FUNCTIONS
#ifdef USART0_ENABLE

ISR(USART0_RX_vect) {
    34e8:	1f 92       	push	r1
    34ea:	0f 92       	push	r0
    34ec:	0f b6       	in	r0, 0x3f	; 63
    34ee:	0f 92       	push	r0
    34f0:	11 24       	eor	r1, r1
    34f2:	2f 93       	push	r18
    34f4:	3f 93       	push	r19
    34f6:	4f 93       	push	r20
    34f8:	5f 93       	push	r21
    34fa:	6f 93       	push	r22
    34fc:	7f 93       	push	r23
    34fe:	8f 93       	push	r24
    3500:	9f 93       	push	r25
    3502:	af 93       	push	r26
    3504:	bf 93       	push	r27
    3506:	ef 93       	push	r30
    3508:	ff 93       	push	r31
	
   char	data = UDR0;
    350a:	8c b1       	in	r24, 0x0c	; 12

    if(!rbuffer_full(&p_UART0_meta->rb_rx)) {
    350c:	60 91 df 01 	lds	r22, 0x01DF	; 0x8001df <p_UART0_meta>
    3510:	70 91 e0 01 	lds	r23, 0x01E0	; 0x8001e0 <p_UART0_meta+0x1>
uint8_t rbuffer_count(volatile ringbuffer_t* rb) {
    return rb->count;
}

bool rbuffer_full(volatile ringbuffer_t* rb) {
    return (rb->count == (uint8_t)RBUFFER_SIZE);
    3514:	fb 01       	movw	r30, r22
    3516:	ee 5b       	subi	r30, 0xBE	; 190
    3518:	ff 4f       	sbci	r31, 0xFF	; 255
    351a:	90 81       	ld	r25, Z

ISR(USART0_RX_vect) {
	
   char	data = UDR0;

    if(!rbuffer_full(&p_UART0_meta->rb_rx)) {
    351c:	90 34       	cpi	r25, 0x40	; 64
    351e:	71 f0       	breq	.+28     	; 0x353c <__vector_18+0x54>
	    rbuffer_insert(data, &p_UART0_meta->rb_rx);
    3520:	0e 94 8b 19 	call	0x3316	; 0x3316 <rbuffer_insert>
	    p_UART0_meta->usart_error = UCSR0A & USART_RX_ERROR_MASK ;
    3524:	e0 91 df 01 	lds	r30, 0x01DF	; 0x8001df <p_UART0_meta>
    3528:	f0 91 e0 01 	lds	r31, 0x01E0	; 0x8001e0 <p_UART0_meta+0x1>
    352c:	8b b1       	in	r24, 0x0b	; 11
    352e:	8c 71       	andi	r24, 0x1C	; 28
    3530:	90 e0       	ldi	r25, 0x00	; 0
    3532:	ea 57       	subi	r30, 0x7A	; 122
    3534:	ff 4f       	sbci	r31, 0xFF	; 255
    3536:	91 83       	std	Z+1, r25	; 0x01
    3538:	80 83       	st	Z, r24
    353a:	09 c0       	rjmp	.+18     	; 0x354e <__vector_18+0x66>

    }
    else {
	    p_UART0_meta->usart_error = ((UCSR0A & USART_RX_ERROR_MASK) | USART_BUFFER_OVERFLOW>>8);
    353c:	8b b1       	in	r24, 0x0b	; 11
    353e:	8c 71       	andi	r24, 0x1C	; 28
    3540:	81 60       	ori	r24, 0x01	; 1
    3542:	90 e0       	ldi	r25, 0x00	; 0
    3544:	fb 01       	movw	r30, r22
    3546:	ea 57       	subi	r30, 0x7A	; 122
    3548:	ff 4f       	sbci	r31, 0xFF	; 255
    354a:	91 83       	std	Z+1, r25	; 0x01
    354c:	80 83       	st	Z, r24
    }   
}
    354e:	ff 91       	pop	r31
    3550:	ef 91       	pop	r30
    3552:	bf 91       	pop	r27
    3554:	af 91       	pop	r26
    3556:	9f 91       	pop	r25
    3558:	8f 91       	pop	r24
    355a:	7f 91       	pop	r23
    355c:	6f 91       	pop	r22
    355e:	5f 91       	pop	r21
    3560:	4f 91       	pop	r20
    3562:	3f 91       	pop	r19
    3564:	2f 91       	pop	r18
    3566:	0f 90       	pop	r0
    3568:	0f be       	out	0x3f, r0	; 63
    356a:	0f 90       	pop	r0
    356c:	1f 90       	pop	r1
    356e:	18 95       	reti

00003570 <__vector_19>:
ISR(USART0_UDRE_vect) {
    3570:	1f 92       	push	r1
    3572:	0f 92       	push	r0
    3574:	0f b6       	in	r0, 0x3f	; 63
    3576:	0f 92       	push	r0
    3578:	11 24       	eor	r1, r1
    357a:	2f 93       	push	r18
    357c:	3f 93       	push	r19
    357e:	4f 93       	push	r20
    3580:	5f 93       	push	r21
    3582:	6f 93       	push	r22
    3584:	7f 93       	push	r23
    3586:	8f 93       	push	r24
    3588:	9f 93       	push	r25
    358a:	af 93       	push	r26
    358c:	bf 93       	push	r27
    358e:	ef 93       	push	r30
    3590:	ff 93       	push	r31
    if(!rbuffer_empty(&p_UART0_meta->rb_tx)) {
    3592:	80 91 df 01 	lds	r24, 0x01DF	; 0x8001df <p_UART0_meta>
    3596:	90 91 e0 01 	lds	r25, 0x01E0	; 0x8001e0 <p_UART0_meta+0x1>
bool rbuffer_full(volatile ringbuffer_t* rb) {
    return (rb->count == (uint8_t)RBUFFER_SIZE);
}

bool rbuffer_empty(volatile ringbuffer_t* rb) {
    return (rb->count == 0);
    359a:	fc 01       	movw	r30, r24
    359c:	eb 57       	subi	r30, 0x7B	; 123
    359e:	ff 4f       	sbci	r31, 0xFF	; 255
    35a0:	20 81       	ld	r18, Z
    else {
	    p_UART0_meta->usart_error = ((UCSR0A & USART_RX_ERROR_MASK) | USART_BUFFER_OVERFLOW>>8);
    }   
}
ISR(USART0_UDRE_vect) {
    if(!rbuffer_empty(&p_UART0_meta->rb_tx)) {
    35a2:	22 23       	and	r18, r18
    35a4:	31 f0       	breq	.+12     	; 0x35b2 <__vector_19+0x42>
	    UDR0 = rbuffer_remove(&p_UART0_meta->rb_tx);
    35a6:	8d 5b       	subi	r24, 0xBD	; 189
    35a8:	9f 4f       	sbci	r25, 0xFF	; 255
    35aa:	0e 94 9f 19 	call	0x333e	; 0x333e <rbuffer_remove>
    35ae:	8c b9       	out	0x0c, r24	; 12
    35b0:	01 c0       	rjmp	.+2      	; 0x35b4 <__vector_19+0x44>
    }
    else {
	    UCSR0B &= ~(1 << UDRE);                   // Enable Tx buffer empty interrupt 
    35b2:	55 98       	cbi	0x0a, 5	; 10
    }
}
    35b4:	ff 91       	pop	r31
    35b6:	ef 91       	pop	r30
    35b8:	bf 91       	pop	r27
    35ba:	af 91       	pop	r26
    35bc:	9f 91       	pop	r25
    35be:	8f 91       	pop	r24
    35c0:	7f 91       	pop	r23
    35c2:	6f 91       	pop	r22
    35c4:	5f 91       	pop	r21
    35c6:	4f 91       	pop	r20
    35c8:	3f 91       	pop	r19
    35ca:	2f 91       	pop	r18
    35cc:	0f 90       	pop	r0
    35ce:	0f be       	out	0x3f, r0	; 63
    35d0:	0f 90       	pop	r0
    35d2:	1f 90       	pop	r1
    35d4:	18 95       	reti

000035d6 <__vector_30>:
#endif

#ifdef USART1_ENABLE
ISR(USART1_RX_vect) {
    35d6:	1f 92       	push	r1
    35d8:	0f 92       	push	r0
    35da:	0f b6       	in	r0, 0x3f	; 63
    35dc:	0f 92       	push	r0
    35de:	11 24       	eor	r1, r1
    35e0:	2f 93       	push	r18
    35e2:	3f 93       	push	r19
    35e4:	4f 93       	push	r20
    35e6:	5f 93       	push	r21
    35e8:	6f 93       	push	r22
    35ea:	7f 93       	push	r23
    35ec:	8f 93       	push	r24
    35ee:	9f 93       	push	r25
    35f0:	af 93       	push	r26
    35f2:	bf 93       	push	r27
    35f4:	ef 93       	push	r30
    35f6:	ff 93       	push	r31
	
   char	data = UDR1;
    35f8:	80 91 9c 00 	lds	r24, 0x009C	; 0x80009c <__TEXT_REGION_LENGTH__+0x7f009c>
    if(!rbuffer_full(&p_UART1_meta->rb_rx)) {
    35fc:	60 91 dd 01 	lds	r22, 0x01DD	; 0x8001dd <p_UART1_meta>
    3600:	70 91 de 01 	lds	r23, 0x01DE	; 0x8001de <p_UART1_meta+0x1>
uint8_t rbuffer_count(volatile ringbuffer_t* rb) {
    return rb->count;
}

bool rbuffer_full(volatile ringbuffer_t* rb) {
    return (rb->count == (uint8_t)RBUFFER_SIZE);
    3604:	fb 01       	movw	r30, r22
    3606:	ee 5b       	subi	r30, 0xBE	; 190
    3608:	ff 4f       	sbci	r31, 0xFF	; 255
    360a:	90 81       	ld	r25, Z

#ifdef USART1_ENABLE
ISR(USART1_RX_vect) {
	
   char	data = UDR1;
    if(!rbuffer_full(&p_UART1_meta->rb_rx)) {
    360c:	90 34       	cpi	r25, 0x40	; 64
    360e:	79 f0       	breq	.+30     	; 0x362e <__vector_30+0x58>
	    rbuffer_insert(data, &p_UART1_meta->rb_rx);
    3610:	0e 94 8b 19 	call	0x3316	; 0x3316 <rbuffer_insert>
	    p_UART1_meta->usart_error = UCSR1A & USART_RX_ERROR_MASK ;
    3614:	e0 91 dd 01 	lds	r30, 0x01DD	; 0x8001dd <p_UART1_meta>
    3618:	f0 91 de 01 	lds	r31, 0x01DE	; 0x8001de <p_UART1_meta+0x1>
    361c:	80 91 9b 00 	lds	r24, 0x009B	; 0x80009b <__TEXT_REGION_LENGTH__+0x7f009b>
    3620:	8c 71       	andi	r24, 0x1C	; 28
    3622:	90 e0       	ldi	r25, 0x00	; 0
    3624:	ea 57       	subi	r30, 0x7A	; 122
    3626:	ff 4f       	sbci	r31, 0xFF	; 255
    3628:	91 83       	std	Z+1, r25	; 0x01
    362a:	80 83       	st	Z, r24
    362c:	0a c0       	rjmp	.+20     	; 0x3642 <__vector_30+0x6c>

    }
    else {
	    p_UART1_meta->usart_error = ((UCSR1A & USART_RX_ERROR_MASK) | USART_BUFFER_OVERFLOW);
    362e:	80 91 9b 00 	lds	r24, 0x009B	; 0x80009b <__TEXT_REGION_LENGTH__+0x7f009b>
    3632:	8c 71       	andi	r24, 0x1C	; 28
    3634:	90 e0       	ldi	r25, 0x00	; 0
    3636:	91 60       	ori	r25, 0x01	; 1
    3638:	fb 01       	movw	r30, r22
    363a:	ea 57       	subi	r30, 0x7A	; 122
    363c:	ff 4f       	sbci	r31, 0xFF	; 255
    363e:	91 83       	std	Z+1, r25	; 0x01
    3640:	80 83       	st	Z, r24
    }   
}
    3642:	ff 91       	pop	r31
    3644:	ef 91       	pop	r30
    3646:	bf 91       	pop	r27
    3648:	af 91       	pop	r26
    364a:	9f 91       	pop	r25
    364c:	8f 91       	pop	r24
    364e:	7f 91       	pop	r23
    3650:	6f 91       	pop	r22
    3652:	5f 91       	pop	r21
    3654:	4f 91       	pop	r20
    3656:	3f 91       	pop	r19
    3658:	2f 91       	pop	r18
    365a:	0f 90       	pop	r0
    365c:	0f be       	out	0x3f, r0	; 63
    365e:	0f 90       	pop	r0
    3660:	1f 90       	pop	r1
    3662:	18 95       	reti

00003664 <__vector_31>:
ISR(USART1_UDRE_vect) {
    3664:	1f 92       	push	r1
    3666:	0f 92       	push	r0
    3668:	0f b6       	in	r0, 0x3f	; 63
    366a:	0f 92       	push	r0
    366c:	11 24       	eor	r1, r1
    366e:	2f 93       	push	r18
    3670:	3f 93       	push	r19
    3672:	4f 93       	push	r20
    3674:	5f 93       	push	r21
    3676:	6f 93       	push	r22
    3678:	7f 93       	push	r23
    367a:	8f 93       	push	r24
    367c:	9f 93       	push	r25
    367e:	af 93       	push	r26
    3680:	bf 93       	push	r27
    3682:	ef 93       	push	r30
    3684:	ff 93       	push	r31
    if(!rbuffer_empty(&p_UART1_meta->rb_tx)) {
    3686:	80 91 dd 01 	lds	r24, 0x01DD	; 0x8001dd <p_UART1_meta>
    368a:	90 91 de 01 	lds	r25, 0x01DE	; 0x8001de <p_UART1_meta+0x1>
bool rbuffer_full(volatile ringbuffer_t* rb) {
    return (rb->count == (uint8_t)RBUFFER_SIZE);
}

bool rbuffer_empty(volatile ringbuffer_t* rb) {
    return (rb->count == 0);
    368e:	fc 01       	movw	r30, r24
    3690:	eb 57       	subi	r30, 0x7B	; 123
    3692:	ff 4f       	sbci	r31, 0xFF	; 255
    3694:	20 81       	ld	r18, Z
    else {
	    p_UART1_meta->usart_error = ((UCSR1A & USART_RX_ERROR_MASK) | USART_BUFFER_OVERFLOW);
    }   
}
ISR(USART1_UDRE_vect) {
    if(!rbuffer_empty(&p_UART1_meta->rb_tx)) {
    3696:	22 23       	and	r18, r18
    3698:	39 f0       	breq	.+14     	; 0x36a8 <__vector_31+0x44>
	    UDR1 = rbuffer_remove(&p_UART1_meta->rb_tx);
    369a:	8d 5b       	subi	r24, 0xBD	; 189
    369c:	9f 4f       	sbci	r25, 0xFF	; 255
    369e:	0e 94 9f 19 	call	0x333e	; 0x333e <rbuffer_remove>
    36a2:	80 93 9c 00 	sts	0x009C, r24	; 0x80009c <__TEXT_REGION_LENGTH__+0x7f009c>
    36a6:	05 c0       	rjmp	.+10     	; 0x36b2 <__vector_31+0x4e>
		
    }
    else {
	    UCSR1B &= ~(1 << UDRE);                   // Enable Tx buffer empty interrupt 
    36a8:	ea e9       	ldi	r30, 0x9A	; 154
    36aa:	f0 e0       	ldi	r31, 0x00	; 0
    36ac:	80 81       	ld	r24, Z
    36ae:	8f 7d       	andi	r24, 0xDF	; 223
    36b0:	80 83       	st	Z, r24
    }
}
    36b2:	ff 91       	pop	r31
    36b4:	ef 91       	pop	r30
    36b6:	bf 91       	pop	r27
    36b8:	af 91       	pop	r26
    36ba:	9f 91       	pop	r25
    36bc:	8f 91       	pop	r24
    36be:	7f 91       	pop	r23
    36c0:	6f 91       	pop	r22
    36c2:	5f 91       	pop	r21
    36c4:	4f 91       	pop	r20
    36c6:	3f 91       	pop	r19
    36c8:	2f 91       	pop	r18
    36ca:	0f 90       	pop	r0
    36cc:	0f be       	out	0x3f, r0	; 63
    36ce:	0f 90       	pop	r0
    36d0:	1f 90       	pop	r1
    36d2:	18 95       	reti

000036d4 <UARTvprintf>:
//! \return None.
//
//*****************************************************************************
void
UARTvprintf(const char *pcString, va_list vaArgP)
{
    36d4:	2f 92       	push	r2
    36d6:	3f 92       	push	r3
    36d8:	4f 92       	push	r4
    36da:	5f 92       	push	r5
    36dc:	6f 92       	push	r6
    36de:	7f 92       	push	r7
    36e0:	8f 92       	push	r8
    36e2:	9f 92       	push	r9
    36e4:	af 92       	push	r10
    36e6:	bf 92       	push	r11
    36e8:	cf 92       	push	r12
    36ea:	df 92       	push	r13
    36ec:	ef 92       	push	r14
    36ee:	ff 92       	push	r15
    36f0:	0f 93       	push	r16
    36f2:	1f 93       	push	r17
    36f4:	cf 93       	push	r28
    36f6:	df 93       	push	r29
    36f8:	cd b7       	in	r28, 0x3d	; 61
    36fa:	de b7       	in	r29, 0x3e	; 62
    36fc:	aa 97       	sbiw	r28, 0x2a	; 42
    36fe:	0f b6       	in	r0, 0x3f	; 63
    3700:	f8 94       	cli
    3702:	de bf       	out	0x3e, r29	; 62
    3704:	0f be       	out	0x3f, r0	; 63
    3706:	cd bf       	out	0x3d, r28	; 61
    3708:	8c 01       	movw	r16, r24
    370a:	7a a7       	std	Y+42, r23	; 0x2a
    370c:	69 a7       	std	Y+41, r22	; 0x29
                    //
                    // Convert the value into a string.
                    //
                    for(; ui32Idx; ui32Idx /= ui32Base)
                    {
                        pcBuf[ui32Pos++] =
    370e:	6e 01       	movw	r12, r28
    3710:	89 e1       	ldi	r24, 0x19	; 25
    3712:	c8 0e       	add	r12, r24
    3714:	d1 1c       	adc	r13, r1
    3716:	2c 2c       	mov	r2, r12
    3718:	3d 2c       	mov	r3, r13
    char *pcStr, pcBuf[16], cFill;

    //
    // Loop while there are more characters in the string.
    //
    while(*pcString)
    371a:	17 c3       	rjmp	.+1582   	; 0x3d4a <UARTvprintf+0x676>
    {
        //
        // Find the first non-% character, or the end of the string.
        //
        for(ui32Idx = 0;
    371c:	19 82       	std	Y+1, r1	; 0x01
    371e:	1a 82       	std	Y+2, r1	; 0x02
    3720:	1b 82       	std	Y+3, r1	; 0x03
    3722:	1c 82       	std	Y+4, r1	; 0x04
            (pcString[ui32Idx] != '%') && (pcString[ui32Idx] != '\0');
    3724:	89 81       	ldd	r24, Y+1	; 0x01
    3726:	9a 81       	ldd	r25, Y+2	; 0x02
    3728:	ab 81       	ldd	r26, Y+3	; 0x03
    372a:	bc 81       	ldd	r27, Y+4	; 0x04
    372c:	f8 01       	movw	r30, r16
    372e:	e8 0f       	add	r30, r24
    3730:	f9 1f       	adc	r31, r25
    while(*pcString)
    {
        //
        // Find the first non-% character, or the end of the string.
        //
        for(ui32Idx = 0;
    3732:	80 81       	ld	r24, Z
    3734:	85 32       	cpi	r24, 0x25	; 37
    3736:	49 f1       	breq	.+82     	; 0x378a <UARTvprintf+0xb6>
            (pcString[ui32Idx] != '%') && (pcString[ui32Idx] != '\0');
    3738:	89 81       	ldd	r24, Y+1	; 0x01
    373a:	9a 81       	ldd	r25, Y+2	; 0x02
    373c:	ab 81       	ldd	r26, Y+3	; 0x03
    373e:	bc 81       	ldd	r27, Y+4	; 0x04
    3740:	f8 01       	movw	r30, r16
    3742:	e8 0f       	add	r30, r24
    3744:	f9 1f       	adc	r31, r25
    3746:	80 81       	ld	r24, Z
    3748:	88 23       	and	r24, r24
    374a:	f9 f0       	breq	.+62     	; 0x378a <UARTvprintf+0xb6>
            ui32Idx++)
    374c:	89 81       	ldd	r24, Y+1	; 0x01
    374e:	9a 81       	ldd	r25, Y+2	; 0x02
    3750:	ab 81       	ldd	r26, Y+3	; 0x03
    3752:	bc 81       	ldd	r27, Y+4	; 0x04
    3754:	01 96       	adiw	r24, 0x01	; 1
    3756:	a1 1d       	adc	r26, r1
    3758:	b1 1d       	adc	r27, r1
    375a:	89 83       	std	Y+1, r24	; 0x01
    375c:	9a 83       	std	Y+2, r25	; 0x02
    375e:	ab 83       	std	Y+3, r26	; 0x03
    3760:	bc 83       	std	Y+4, r27	; 0x04
    {
        //
        // Find the first non-% character, or the end of the string.
        //
        for(ui32Idx = 0;
            (pcString[ui32Idx] != '%') && (pcString[ui32Idx] != '\0');
    3762:	89 81       	ldd	r24, Y+1	; 0x01
    3764:	9a 81       	ldd	r25, Y+2	; 0x02
    3766:	ab 81       	ldd	r26, Y+3	; 0x03
    3768:	bc 81       	ldd	r27, Y+4	; 0x04
    376a:	f8 01       	movw	r30, r16
    376c:	e8 0f       	add	r30, r24
    376e:	f9 1f       	adc	r31, r25
    while(*pcString)
    {
        //
        // Find the first non-% character, or the end of the string.
        //
        for(ui32Idx = 0;
    3770:	80 81       	ld	r24, Z
    3772:	85 32       	cpi	r24, 0x25	; 37
    3774:	51 f0       	breq	.+20     	; 0x378a <UARTvprintf+0xb6>
            (pcString[ui32Idx] != '%') && (pcString[ui32Idx] != '\0');
    3776:	89 81       	ldd	r24, Y+1	; 0x01
    3778:	9a 81       	ldd	r25, Y+2	; 0x02
    377a:	ab 81       	ldd	r26, Y+3	; 0x03
    377c:	bc 81       	ldd	r27, Y+4	; 0x04
    377e:	f8 01       	movw	r30, r16
    3780:	e8 0f       	add	r30, r24
    3782:	f9 1f       	adc	r31, r25
    3784:	80 81       	ld	r24, Z
    3786:	81 11       	cpse	r24, r1
    3788:	e1 cf       	rjmp	.-62     	; 0x374c <UARTvprintf+0x78>
        }

        //
        // Write this portion of the string.
        //
        CONSOLE_UART_WRITE(pcString, ui32Idx);
    378a:	69 81       	ldd	r22, Y+1	; 0x01
    378c:	7a 81       	ldd	r23, Y+2	; 0x02
    378e:	8b 81       	ldd	r24, Y+3	; 0x03
    3790:	9c 81       	ldd	r25, Y+4	; 0x04
    3792:	c8 01       	movw	r24, r16
    3794:	0e 94 ef 19 	call	0x33de	; 0x33de <usart0_send_array>

        //
        // Skip the portion of the string that was written.
        //
        pcString += ui32Idx;
    3798:	89 81       	ldd	r24, Y+1	; 0x01
    379a:	9a 81       	ldd	r25, Y+2	; 0x02
    379c:	ab 81       	ldd	r26, Y+3	; 0x03
    379e:	bc 81       	ldd	r27, Y+4	; 0x04
    37a0:	08 0f       	add	r16, r24
    37a2:	19 1f       	adc	r17, r25

        //
        // See if the next character is a %.
        //
        if(*pcString == '%')
    37a4:	d8 01       	movw	r26, r16
    37a6:	8c 91       	ld	r24, X
    37a8:	85 32       	cpi	r24, 0x25	; 37
    37aa:	09 f0       	breq	.+2      	; 0x37ae <UARTvprintf+0xda>
    37ac:	ce c2       	rjmp	.+1436   	; 0x3d4a <UARTvprintf+0x676>
        {
            //
            // Skip the %.
            //
            pcString++;
    37ae:	11 96       	adiw	r26, 0x01	; 1

            //
            // Set the digit count to zero, and the fill character to space
            // (in other words, to the defaults).
            //
            ui32Count = 0;
    37b0:	1d 86       	std	Y+13, r1	; 0x0d
    37b2:	1e 86       	std	Y+14, r1	; 0x0e
    37b4:	1f 86       	std	Y+15, r1	; 0x0f
    37b6:	18 8a       	std	Y+16, r1	; 0x10
            cFill = ' ';
    37b8:	68 94       	set
    37ba:	ff 24       	eor	r15, r15
    37bc:	f5 f8       	bld	r15, 5
again:

            //
            // Determine how to handle the next character.
            //
            switch(*pcString++)
    37be:	8d 01       	movw	r16, r26
    37c0:	0f 5f       	subi	r16, 0xFF	; 255
    37c2:	1f 4f       	sbci	r17, 0xFF	; 255
    37c4:	2c 91       	ld	r18, X
    37c6:	42 2f       	mov	r20, r18
    37c8:	02 2e       	mov	r0, r18
    37ca:	00 0c       	add	r0, r0
    37cc:	55 0b       	sbc	r21, r21
    37ce:	66 0b       	sbc	r22, r22
    37d0:	77 0b       	sbc	r23, r23
    37d2:	fa 01       	movw	r30, r20
    37d4:	b5 97       	sbiw	r30, 0x25	; 37
    37d6:	e4 35       	cpi	r30, 0x54	; 84
    37d8:	f1 05       	cpc	r31, r1
    37da:	08 f0       	brcs	.+2      	; 0x37de <UARTvprintf+0x10a>
    37dc:	ab c2       	rjmp	.+1366   	; 0x3d34 <UARTvprintf+0x660>
    37de:	ee 5d       	subi	r30, 0xDE	; 222
    37e0:	fe 4f       	sbci	r31, 0xFE	; 254
    37e2:	0c 94 0a 29 	jmp	0x5214	; 0x5214 <__tablejump2__>
                {
                    //
                    // If this is a zero, and it is the first digit, then the
                    // fill character is a zero instead of a space.
                    //
                    if((pcString[-1] == '0') && (ui32Count == 0))
    37e6:	20 33       	cpi	r18, 0x30	; 48
    37e8:	61 f4       	brne	.+24     	; 0x3802 <UARTvprintf+0x12e>
    37ea:	8d 85       	ldd	r24, Y+13	; 0x0d
    37ec:	9e 85       	ldd	r25, Y+14	; 0x0e
    37ee:	af 85       	ldd	r26, Y+15	; 0x0f
    37f0:	b8 89       	ldd	r27, Y+16	; 0x10
    37f2:	89 2b       	or	r24, r25
    37f4:	8a 2b       	or	r24, r26
    37f6:	8b 2b       	or	r24, r27
    37f8:	21 f4       	brne	.+8      	; 0x3802 <UARTvprintf+0x12e>
                    {
                        cFill = '0';
    37fa:	0f 2e       	mov	r0, r31
    37fc:	f0 e3       	ldi	r31, 0x30	; 48
    37fe:	ff 2e       	mov	r15, r31
    3800:	f0 2d       	mov	r31, r0
                    }

                    //
                    // Update the digit count.
                    //
                    ui32Count *= 10;
    3802:	8d 85       	ldd	r24, Y+13	; 0x0d
    3804:	9e 85       	ldd	r25, Y+14	; 0x0e
    3806:	af 85       	ldd	r26, Y+15	; 0x0f
    3808:	b8 89       	ldd	r27, Y+16	; 0x10
    380a:	88 0f       	add	r24, r24
    380c:	99 1f       	adc	r25, r25
    380e:	aa 1f       	adc	r26, r26
    3810:	bb 1f       	adc	r27, r27
    3812:	ac 01       	movw	r20, r24
    3814:	bd 01       	movw	r22, r26
    3816:	44 0f       	add	r20, r20
    3818:	55 1f       	adc	r21, r21
    381a:	66 1f       	adc	r22, r22
    381c:	77 1f       	adc	r23, r23
    381e:	44 0f       	add	r20, r20
    3820:	55 1f       	adc	r21, r21
    3822:	66 1f       	adc	r22, r22
    3824:	77 1f       	adc	r23, r23
    3826:	84 0f       	add	r24, r20
    3828:	95 1f       	adc	r25, r21
    382a:	a6 1f       	adc	r26, r22
    382c:	b7 1f       	adc	r27, r23
    382e:	8d 87       	std	Y+13, r24	; 0x0d
    3830:	9e 87       	std	Y+14, r25	; 0x0e
    3832:	af 87       	std	Y+15, r26	; 0x0f
    3834:	b8 8b       	std	Y+16, r27	; 0x10
                    ui32Count += pcString[-1] - '0';
    3836:	4d 85       	ldd	r20, Y+13	; 0x0d
    3838:	5e 85       	ldd	r21, Y+14	; 0x0e
    383a:	6f 85       	ldd	r22, Y+15	; 0x0f
    383c:	78 89       	ldd	r23, Y+16	; 0x10
    383e:	02 2e       	mov	r0, r18
    3840:	00 0c       	add	r0, r0
    3842:	33 0b       	sbc	r19, r19
    3844:	c9 01       	movw	r24, r18
    3846:	c0 97       	sbiw	r24, 0x30	; 48
    3848:	09 2e       	mov	r0, r25
    384a:	00 0c       	add	r0, r0
    384c:	aa 0b       	sbc	r26, r26
    384e:	bb 0b       	sbc	r27, r27
    3850:	84 0f       	add	r24, r20
    3852:	95 1f       	adc	r25, r21
    3854:	a6 1f       	adc	r26, r22
    3856:	b7 1f       	adc	r27, r23
    3858:	8d 87       	std	Y+13, r24	; 0x0d
    385a:	9e 87       	std	Y+14, r25	; 0x0e
    385c:	af 87       	std	Y+15, r26	; 0x0f
    385e:	b8 8b       	std	Y+16, r27	; 0x10
again:

            //
            // Determine how to handle the next character.
            //
            switch(*pcString++)
    3860:	d8 01       	movw	r26, r16
                    ui32Count += pcString[-1] - '0';

                    //
                    // Get the next character.
                    //
                    goto again;
    3862:	ad cf       	rjmp	.-166    	; 0x37be <UARTvprintf+0xea>
                case 'c':
                {
                    //
                    // Get the value from the varargs.
                    //
                    ui32Value = va_arg(vaArgP, uint32_t);
    3864:	e9 a4       	ldd	r14, Y+41	; 0x29
    3866:	fa a4       	ldd	r15, Y+42	; 0x2a
    3868:	b4 e0       	ldi	r27, 0x04	; 4
    386a:	eb 0e       	add	r14, r27
    386c:	f1 1c       	adc	r15, r1
    386e:	e9 a5       	ldd	r30, Y+41	; 0x29
    3870:	fa a5       	ldd	r31, Y+42	; 0x2a
    3872:	80 81       	ld	r24, Z
    3874:	91 81       	ldd	r25, Z+1	; 0x01
    3876:	a2 81       	ldd	r26, Z+2	; 0x02
    3878:	b3 81       	ldd	r27, Z+3	; 0x03
    387a:	8d 83       	std	Y+5, r24	; 0x05
    387c:	9e 83       	std	Y+6, r25	; 0x06
    387e:	af 83       	std	Y+7, r26	; 0x07
    3880:	b8 87       	std	Y+8, r27	; 0x08

                    //
                    // Print out the character.
                    //
                    CONSOLE_UART_WRITE((char *)&ui32Value, 1);
    3882:	61 e0       	ldi	r22, 0x01	; 1
    3884:	ce 01       	movw	r24, r28
    3886:	05 96       	adiw	r24, 0x05	; 5
    3888:	0e 94 ef 19 	call	0x33de	; 0x33de <usart0_send_array>
                case 'c':
                {
                    //
                    // Get the value from the varargs.
                    //
                    ui32Value = va_arg(vaArgP, uint32_t);
    388c:	fa a6       	std	Y+42, r15	; 0x2a
    388e:	e9 a6       	std	Y+41, r14	; 0x29
                    CONSOLE_UART_WRITE((char *)&ui32Value, 1);

                    //
                    // This command has been handled.
                    //
                    break;
    3890:	5c c2       	rjmp	.+1208   	; 0x3d4a <UARTvprintf+0x676>
                case 'i':
                {
                    //
                    // Get the value from the varargs.
                    //
                    ui32Value = va_arg(vaArgP, uint16_t);
    3892:	29 a5       	ldd	r18, Y+41	; 0x29
    3894:	3a a5       	ldd	r19, Y+42	; 0x2a
    3896:	2e 5f       	subi	r18, 0xFE	; 254
    3898:	3f 4f       	sbci	r19, 0xFF	; 255
    389a:	a9 a5       	ldd	r26, Y+41	; 0x29
    389c:	ba a5       	ldd	r27, Y+42	; 0x2a
    389e:	8d 91       	ld	r24, X+
    38a0:	9c 91       	ld	r25, X
    38a2:	a0 e0       	ldi	r26, 0x00	; 0
    38a4:	b0 e0       	ldi	r27, 0x00	; 0
    38a6:	8d 83       	std	Y+5, r24	; 0x05
    38a8:	9e 83       	std	Y+6, r25	; 0x06
    38aa:	af 83       	std	Y+7, r26	; 0x07
    38ac:	b8 87       	std	Y+8, r27	; 0x08

                    //
                    // Reset the buffer position.
                    //
                    ui32Pos = 0;
    38ae:	19 86       	std	Y+9, r1	; 0x09
    38b0:	1a 86       	std	Y+10, r1	; 0x0a
    38b2:	1b 86       	std	Y+11, r1	; 0x0b
    38b4:	1c 86       	std	Y+12, r1	; 0x0c

                    //
                    // If the value is negative, make it positive and indicate
                    // that a minus sign is needed.
                    //
                    if((int32_t)ui32Value < 0)
    38b6:	8d 81       	ldd	r24, Y+5	; 0x05
    38b8:	9e 81       	ldd	r25, Y+6	; 0x06
    38ba:	af 81       	ldd	r26, Y+7	; 0x07
    38bc:	b8 85       	ldd	r27, Y+8	; 0x08
    38be:	bb 23       	and	r27, r27
    38c0:	c4 f4       	brge	.+48     	; 0x38f2 <UARTvprintf+0x21e>
                    {
                        //
                        // Make the value positive.
                        //
                        ui32Value = -(int32_t)ui32Value;
    38c2:	8d 81       	ldd	r24, Y+5	; 0x05
    38c4:	9e 81       	ldd	r25, Y+6	; 0x06
    38c6:	af 81       	ldd	r26, Y+7	; 0x07
    38c8:	b8 85       	ldd	r27, Y+8	; 0x08
    38ca:	b0 95       	com	r27
    38cc:	a0 95       	com	r26
    38ce:	90 95       	com	r25
    38d0:	81 95       	neg	r24
    38d2:	9f 4f       	sbci	r25, 0xFF	; 255
    38d4:	af 4f       	sbci	r26, 0xFF	; 255
    38d6:	bf 4f       	sbci	r27, 0xFF	; 255
    38d8:	8d 83       	std	Y+5, r24	; 0x05
    38da:	9e 83       	std	Y+6, r25	; 0x06
    38dc:	af 83       	std	Y+7, r26	; 0x07
    38de:	b8 87       	std	Y+8, r27	; 0x08

                        //
                        // Indicate that the value is negative.
                        //
                        ui32Neg = 1;
    38e0:	81 e0       	ldi	r24, 0x01	; 1
    38e2:	90 e0       	ldi	r25, 0x00	; 0
    38e4:	a0 e0       	ldi	r26, 0x00	; 0
    38e6:	b0 e0       	ldi	r27, 0x00	; 0
    38e8:	8d 8b       	std	Y+21, r24	; 0x15
    38ea:	9e 8b       	std	Y+22, r25	; 0x16
    38ec:	af 8b       	std	Y+23, r26	; 0x17
    38ee:	b8 8f       	std	Y+24, r27	; 0x18
    38f0:	04 c0       	rjmp	.+8      	; 0x38fa <UARTvprintf+0x226>
                    {
                        //
                        // Indicate that the value is positive so that a minus
                        // sign isn't inserted.
                        //
                        ui32Neg = 0;
    38f2:	1d 8a       	std	Y+21, r1	; 0x15
    38f4:	1e 8a       	std	Y+22, r1	; 0x16
    38f6:	1f 8a       	std	Y+23, r1	; 0x17
    38f8:	18 8e       	std	Y+24, r1	; 0x18
                    }

                    //
                    // Set the base to 10.
                    //
                    ui32Base = 10;
    38fa:	8a e0       	ldi	r24, 0x0A	; 10
    38fc:	90 e0       	ldi	r25, 0x00	; 0
    38fe:	a0 e0       	ldi	r26, 0x00	; 0
    3900:	b0 e0       	ldi	r27, 0x00	; 0
    3902:	89 8b       	std	Y+17, r24	; 0x11
    3904:	9a 8b       	std	Y+18, r25	; 0x12
    3906:	ab 8b       	std	Y+19, r26	; 0x13
    3908:	bc 8b       	std	Y+20, r27	; 0x14
                case 'i':
                {
                    //
                    // Get the value from the varargs.
                    //
                    ui32Value = va_arg(vaArgP, uint16_t);
    390a:	3a a7       	std	Y+42, r19	; 0x2a
    390c:	29 a7       	std	Y+41, r18	; 0x29
                    ui32Base = 10;

                    //
                    // Convert the value to ASCII.
                    //
                    goto convert;
    390e:	bc c0       	rjmp	.+376    	; 0x3a88 <UARTvprintf+0x3b4>
                case 's':
                {
                    //
                    // Get the string pointer from the varargs.
                    //
                    pcStr = va_arg(vaArgP, char *);
    3910:	e9 a4       	ldd	r14, Y+41	; 0x29
    3912:	fa a4       	ldd	r15, Y+42	; 0x2a
    3914:	92 e0       	ldi	r25, 0x02	; 2
    3916:	e9 0e       	add	r14, r25
    3918:	f1 1c       	adc	r15, r1
    391a:	a9 a5       	ldd	r26, Y+41	; 0x29
    391c:	ba a5       	ldd	r27, Y+42	; 0x2a
    391e:	8d 91       	ld	r24, X+
    3920:	9c 91       	ld	r25, X

                    //
                    // Determine the length of the string.
                    //
                    for(ui32Idx = 0; pcStr[ui32Idx] != '\0'; ui32Idx++)
    3922:	19 82       	std	Y+1, r1	; 0x01
    3924:	1a 82       	std	Y+2, r1	; 0x02
    3926:	1b 82       	std	Y+3, r1	; 0x03
    3928:	1c 82       	std	Y+4, r1	; 0x04
    392a:	49 81       	ldd	r20, Y+1	; 0x01
    392c:	5a 81       	ldd	r21, Y+2	; 0x02
    392e:	6b 81       	ldd	r22, Y+3	; 0x03
    3930:	7c 81       	ldd	r23, Y+4	; 0x04
    3932:	fc 01       	movw	r30, r24
    3934:	e4 0f       	add	r30, r20
    3936:	f5 1f       	adc	r31, r21
    3938:	20 81       	ld	r18, Z
    393a:	22 23       	and	r18, r18
    393c:	b1 f0       	breq	.+44     	; 0x396a <UARTvprintf+0x296>
    393e:	49 81       	ldd	r20, Y+1	; 0x01
    3940:	5a 81       	ldd	r21, Y+2	; 0x02
    3942:	6b 81       	ldd	r22, Y+3	; 0x03
    3944:	7c 81       	ldd	r23, Y+4	; 0x04
    3946:	4f 5f       	subi	r20, 0xFF	; 255
    3948:	5f 4f       	sbci	r21, 0xFF	; 255
    394a:	6f 4f       	sbci	r22, 0xFF	; 255
    394c:	7f 4f       	sbci	r23, 0xFF	; 255
    394e:	49 83       	std	Y+1, r20	; 0x01
    3950:	5a 83       	std	Y+2, r21	; 0x02
    3952:	6b 83       	std	Y+3, r22	; 0x03
    3954:	7c 83       	std	Y+4, r23	; 0x04
    3956:	49 81       	ldd	r20, Y+1	; 0x01
    3958:	5a 81       	ldd	r21, Y+2	; 0x02
    395a:	6b 81       	ldd	r22, Y+3	; 0x03
    395c:	7c 81       	ldd	r23, Y+4	; 0x04
    395e:	fc 01       	movw	r30, r24
    3960:	e4 0f       	add	r30, r20
    3962:	f5 1f       	adc	r31, r21
    3964:	20 81       	ld	r18, Z
    3966:	21 11       	cpse	r18, r1
    3968:	ea cf       	rjmp	.-44     	; 0x393e <UARTvprintf+0x26a>
                    }

                    //
                    // Write the string.
                    //
                    CONSOLE_UART_WRITE(pcStr, ui32Idx);
    396a:	49 81       	ldd	r20, Y+1	; 0x01
    396c:	5a 81       	ldd	r21, Y+2	; 0x02
    396e:	6b 81       	ldd	r22, Y+3	; 0x03
    3970:	7c 81       	ldd	r23, Y+4	; 0x04
    3972:	64 2f       	mov	r22, r20
    3974:	0e 94 ef 19 	call	0x33de	; 0x33de <usart0_send_array>

                    //
                    // Write any required padding spaces
                    //
                    if(ui32Count > ui32Idx)
    3978:	4d 85       	ldd	r20, Y+13	; 0x0d
    397a:	5e 85       	ldd	r21, Y+14	; 0x0e
    397c:	6f 85       	ldd	r22, Y+15	; 0x0f
    397e:	78 89       	ldd	r23, Y+16	; 0x10
    3980:	89 81       	ldd	r24, Y+1	; 0x01
    3982:	9a 81       	ldd	r25, Y+2	; 0x02
    3984:	ab 81       	ldd	r26, Y+3	; 0x03
    3986:	bc 81       	ldd	r27, Y+4	; 0x04
    3988:	84 17       	cp	r24, r20
    398a:	95 07       	cpc	r25, r21
    398c:	a6 07       	cpc	r26, r22
    398e:	b7 07       	cpc	r27, r23
    3990:	08 f0       	brcs	.+2      	; 0x3994 <UARTvprintf+0x2c0>
    3992:	d6 c1       	rjmp	.+940    	; 0x3d40 <UARTvprintf+0x66c>
                    {
                        ui32Count -= ui32Idx;
    3994:	49 81       	ldd	r20, Y+1	; 0x01
    3996:	5a 81       	ldd	r21, Y+2	; 0x02
    3998:	6b 81       	ldd	r22, Y+3	; 0x03
    399a:	7c 81       	ldd	r23, Y+4	; 0x04
    399c:	8d 85       	ldd	r24, Y+13	; 0x0d
    399e:	9e 85       	ldd	r25, Y+14	; 0x0e
    39a0:	af 85       	ldd	r26, Y+15	; 0x0f
    39a2:	b8 89       	ldd	r27, Y+16	; 0x10
    39a4:	84 1b       	sub	r24, r20
    39a6:	95 0b       	sbc	r25, r21
    39a8:	a6 0b       	sbc	r26, r22
    39aa:	b7 0b       	sbc	r27, r23
    39ac:	8d 87       	std	Y+13, r24	; 0x0d
    39ae:	9e 87       	std	Y+14, r25	; 0x0e
    39b0:	af 87       	std	Y+15, r26	; 0x0f
    39b2:	b8 8b       	std	Y+16, r27	; 0x10
                        while(ui32Count--)
    39b4:	8d 85       	ldd	r24, Y+13	; 0x0d
    39b6:	9e 85       	ldd	r25, Y+14	; 0x0e
    39b8:	af 85       	ldd	r26, Y+15	; 0x0f
    39ba:	b8 89       	ldd	r27, Y+16	; 0x10
    39bc:	ac 01       	movw	r20, r24
    39be:	bd 01       	movw	r22, r26
    39c0:	41 50       	subi	r20, 0x01	; 1
    39c2:	51 09       	sbc	r21, r1
    39c4:	61 09       	sbc	r22, r1
    39c6:	71 09       	sbc	r23, r1
    39c8:	4d 87       	std	Y+13, r20	; 0x0d
    39ca:	5e 87       	std	Y+14, r21	; 0x0e
    39cc:	6f 87       	std	Y+15, r22	; 0x0f
    39ce:	78 8b       	std	Y+16, r23	; 0x10
    39d0:	89 2b       	or	r24, r25
    39d2:	8a 2b       	or	r24, r26
    39d4:	8b 2b       	or	r24, r27
    39d6:	09 f4       	brne	.+2      	; 0x39da <UARTvprintf+0x306>
    39d8:	b6 c1       	rjmp	.+876    	; 0x3d46 <UARTvprintf+0x672>
                        {
                            CONSOLE_UART_WRITE(" ", 1);
    39da:	61 e0       	ldi	r22, 0x01	; 1
    39dc:	8f e0       	ldi	r24, 0x0F	; 15
    39de:	92 e0       	ldi	r25, 0x02	; 2
    39e0:	0e 94 ef 19 	call	0x33de	; 0x33de <usart0_send_array>
                    // Write any required padding spaces
                    //
                    if(ui32Count > ui32Idx)
                    {
                        ui32Count -= ui32Idx;
                        while(ui32Count--)
    39e4:	8d 85       	ldd	r24, Y+13	; 0x0d
    39e6:	9e 85       	ldd	r25, Y+14	; 0x0e
    39e8:	af 85       	ldd	r26, Y+15	; 0x0f
    39ea:	b8 89       	ldd	r27, Y+16	; 0x10
    39ec:	ac 01       	movw	r20, r24
    39ee:	bd 01       	movw	r22, r26
    39f0:	41 50       	subi	r20, 0x01	; 1
    39f2:	51 09       	sbc	r21, r1
    39f4:	61 09       	sbc	r22, r1
    39f6:	71 09       	sbc	r23, r1
    39f8:	4d 87       	std	Y+13, r20	; 0x0d
    39fa:	5e 87       	std	Y+14, r21	; 0x0e
    39fc:	6f 87       	std	Y+15, r22	; 0x0f
    39fe:	78 8b       	std	Y+16, r23	; 0x10
    3a00:	89 2b       	or	r24, r25
    3a02:	8a 2b       	or	r24, r26
    3a04:	8b 2b       	or	r24, r27
    3a06:	49 f7       	brne	.-46     	; 0x39da <UARTvprintf+0x306>
                case 's':
                {
                    //
                    // Get the string pointer from the varargs.
                    //
                    pcStr = va_arg(vaArgP, char *);
    3a08:	fa a6       	std	Y+42, r15	; 0x2a
    3a0a:	e9 a6       	std	Y+41, r14	; 0x29
    3a0c:	9e c1       	rjmp	.+828    	; 0x3d4a <UARTvprintf+0x676>
                case 'u':
                {
                    //
                    // Get the value from the varargs.
                    //
                    ui32Value = va_arg(vaArgP, uint16_t);
    3a0e:	e9 a5       	ldd	r30, Y+41	; 0x29
    3a10:	fa a5       	ldd	r31, Y+42	; 0x2a
    3a12:	80 81       	ld	r24, Z
    3a14:	91 81       	ldd	r25, Z+1	; 0x01
    3a16:	a0 e0       	ldi	r26, 0x00	; 0
    3a18:	b0 e0       	ldi	r27, 0x00	; 0
    3a1a:	8d 83       	std	Y+5, r24	; 0x05
    3a1c:	9e 83       	std	Y+6, r25	; 0x06
    3a1e:	af 83       	std	Y+7, r26	; 0x07
    3a20:	b8 87       	std	Y+8, r27	; 0x08

                    //
                    // Reset the buffer position.
                    //
                    ui32Pos = 0;
    3a22:	19 86       	std	Y+9, r1	; 0x09
    3a24:	1a 86       	std	Y+10, r1	; 0x0a
    3a26:	1b 86       	std	Y+11, r1	; 0x0b
    3a28:	1c 86       	std	Y+12, r1	; 0x0c

                    //
                    // Set the base to 10.
                    //
                    ui32Base = 10;
    3a2a:	8a e0       	ldi	r24, 0x0A	; 10
    3a2c:	90 e0       	ldi	r25, 0x00	; 0
    3a2e:	a0 e0       	ldi	r26, 0x00	; 0
    3a30:	b0 e0       	ldi	r27, 0x00	; 0
    3a32:	89 8b       	std	Y+17, r24	; 0x11
    3a34:	9a 8b       	std	Y+18, r25	; 0x12
    3a36:	ab 8b       	std	Y+19, r26	; 0x13
    3a38:	bc 8b       	std	Y+20, r27	; 0x14

                    //
                    // Indicate that the value is positive so that a minus sign
                    // isn't inserted.
                    //
                    ui32Neg = 0;
    3a3a:	1d 8a       	std	Y+21, r1	; 0x15
    3a3c:	1e 8a       	std	Y+22, r1	; 0x16
    3a3e:	1f 8a       	std	Y+23, r1	; 0x17
    3a40:	18 8e       	std	Y+24, r1	; 0x18
                case 'u':
                {
                    //
                    // Get the value from the varargs.
                    //
                    ui32Value = va_arg(vaArgP, uint16_t);
    3a42:	32 96       	adiw	r30, 0x02	; 2
    3a44:	fa a7       	std	Y+42, r31	; 0x2a
    3a46:	e9 a7       	std	Y+41, r30	; 0x29
                    ui32Neg = 0;

                    //
                    // Convert the value to ASCII.
                    //
                    goto convert;
    3a48:	1f c0       	rjmp	.+62     	; 0x3a88 <UARTvprintf+0x3b4>
                case 'p':
                {
                    //
                    // Get the value from the varargs.
                    //
                    ui32Value = va_arg(vaArgP, uint16_t);
    3a4a:	a9 a5       	ldd	r26, Y+41	; 0x29
    3a4c:	ba a5       	ldd	r27, Y+42	; 0x2a
    3a4e:	8d 91       	ld	r24, X+
    3a50:	9c 91       	ld	r25, X
    3a52:	a0 e0       	ldi	r26, 0x00	; 0
    3a54:	b0 e0       	ldi	r27, 0x00	; 0
    3a56:	8d 83       	std	Y+5, r24	; 0x05
    3a58:	9e 83       	std	Y+6, r25	; 0x06
    3a5a:	af 83       	std	Y+7, r26	; 0x07
    3a5c:	b8 87       	std	Y+8, r27	; 0x08

                    //
                    // Reset the buffer position.
                    //
                    ui32Pos = 0;
    3a5e:	19 86       	std	Y+9, r1	; 0x09
    3a60:	1a 86       	std	Y+10, r1	; 0x0a
    3a62:	1b 86       	std	Y+11, r1	; 0x0b
    3a64:	1c 86       	std	Y+12, r1	; 0x0c

                    //
                    // Set the base to 16.
                    //
                    ui32Base = 16;
    3a66:	80 e1       	ldi	r24, 0x10	; 16
    3a68:	90 e0       	ldi	r25, 0x00	; 0
    3a6a:	a0 e0       	ldi	r26, 0x00	; 0
    3a6c:	b0 e0       	ldi	r27, 0x00	; 0
    3a6e:	89 8b       	std	Y+17, r24	; 0x11
    3a70:	9a 8b       	std	Y+18, r25	; 0x12
    3a72:	ab 8b       	std	Y+19, r26	; 0x13
    3a74:	bc 8b       	std	Y+20, r27	; 0x14

                    //
                    // Indicate that the value is positive so that a minus sign
                    // isn't inserted.
                    //
                    ui32Neg = 0;
    3a76:	1d 8a       	std	Y+21, r1	; 0x15
    3a78:	1e 8a       	std	Y+22, r1	; 0x16
    3a7a:	1f 8a       	std	Y+23, r1	; 0x17
    3a7c:	18 8e       	std	Y+24, r1	; 0x18
                case 'p':
                {
                    //
                    // Get the value from the varargs.
                    //
                    ui32Value = va_arg(vaArgP, uint16_t);
    3a7e:	a9 a5       	ldd	r26, Y+41	; 0x29
    3a80:	ba a5       	ldd	r27, Y+42	; 0x2a
    3a82:	12 96       	adiw	r26, 0x02	; 2
    3a84:	ba a7       	std	Y+42, r27	; 0x2a
    3a86:	a9 a7       	std	Y+41, r26	; 0x29
                    //
                    // Determine the number of digits in the string version of
                    // the value.
                    //
convert:
                    for(ui32Idx = 1;
    3a88:	81 e0       	ldi	r24, 0x01	; 1
    3a8a:	90 e0       	ldi	r25, 0x00	; 0
    3a8c:	a0 e0       	ldi	r26, 0x00	; 0
    3a8e:	b0 e0       	ldi	r27, 0x00	; 0
    3a90:	89 83       	std	Y+1, r24	; 0x01
    3a92:	9a 83       	std	Y+2, r25	; 0x02
    3a94:	ab 83       	std	Y+3, r26	; 0x03
    3a96:	bc 83       	std	Y+4, r27	; 0x04
                        (((ui32Idx * ui32Base) <= ui32Value) &&
    3a98:	29 81       	ldd	r18, Y+1	; 0x01
    3a9a:	3a 81       	ldd	r19, Y+2	; 0x02
    3a9c:	4b 81       	ldd	r20, Y+3	; 0x03
    3a9e:	5c 81       	ldd	r21, Y+4	; 0x04
    3aa0:	69 89       	ldd	r22, Y+17	; 0x11
    3aa2:	7a 89       	ldd	r23, Y+18	; 0x12
    3aa4:	8b 89       	ldd	r24, Y+19	; 0x13
    3aa6:	9c 89       	ldd	r25, Y+20	; 0x14
    3aa8:	8d 80       	ldd	r8, Y+5	; 0x05
    3aaa:	9e 80       	ldd	r9, Y+6	; 0x06
    3aac:	af 80       	ldd	r10, Y+7	; 0x07
    3aae:	b8 84       	ldd	r11, Y+8	; 0x08
                    //
                    // Determine the number of digits in the string version of
                    // the value.
                    //
convert:
                    for(ui32Idx = 1;
    3ab0:	0e 94 d8 28 	call	0x51b0	; 0x51b0 <__mulsi3>
    3ab4:	86 16       	cp	r8, r22
    3ab6:	97 06       	cpc	r9, r23
    3ab8:	a8 06       	cpc	r10, r24
    3aba:	b9 06       	cpc	r11, r25
    3abc:	68 f5       	brcc	.+90     	; 0x3b18 <UARTvprintf+0x444>
    3abe:	48 c0       	rjmp	.+144    	; 0x3b50 <UARTvprintf+0x47c>
                        (((ui32Idx * ui32Base) <= ui32Value) &&
                         (((ui32Idx * ui32Base) / ui32Base) == ui32Idx));
                        ui32Idx *= ui32Base, ui32Count--)
    3ac0:	29 89       	ldd	r18, Y+17	; 0x11
    3ac2:	3a 89       	ldd	r19, Y+18	; 0x12
    3ac4:	4b 89       	ldd	r20, Y+19	; 0x13
    3ac6:	5c 89       	ldd	r21, Y+20	; 0x14
    3ac8:	69 81       	ldd	r22, Y+1	; 0x01
    3aca:	7a 81       	ldd	r23, Y+2	; 0x02
    3acc:	8b 81       	ldd	r24, Y+3	; 0x03
    3ace:	9c 81       	ldd	r25, Y+4	; 0x04
    3ad0:	0e 94 d8 28 	call	0x51b0	; 0x51b0 <__mulsi3>
    3ad4:	69 83       	std	Y+1, r22	; 0x01
    3ad6:	7a 83       	std	Y+2, r23	; 0x02
    3ad8:	8b 83       	std	Y+3, r24	; 0x03
    3ada:	9c 83       	std	Y+4, r25	; 0x04
    3adc:	8d 85       	ldd	r24, Y+13	; 0x0d
    3ade:	9e 85       	ldd	r25, Y+14	; 0x0e
    3ae0:	af 85       	ldd	r26, Y+15	; 0x0f
    3ae2:	b8 89       	ldd	r27, Y+16	; 0x10
    3ae4:	01 97       	sbiw	r24, 0x01	; 1
    3ae6:	a1 09       	sbc	r26, r1
    3ae8:	b1 09       	sbc	r27, r1
    3aea:	8d 87       	std	Y+13, r24	; 0x0d
    3aec:	9e 87       	std	Y+14, r25	; 0x0e
    3aee:	af 87       	std	Y+15, r26	; 0x0f
    3af0:	b8 8b       	std	Y+16, r27	; 0x10
                    // Determine the number of digits in the string version of
                    // the value.
                    //
convert:
                    for(ui32Idx = 1;
                        (((ui32Idx * ui32Base) <= ui32Value) &&
    3af2:	29 81       	ldd	r18, Y+1	; 0x01
    3af4:	3a 81       	ldd	r19, Y+2	; 0x02
    3af6:	4b 81       	ldd	r20, Y+3	; 0x03
    3af8:	5c 81       	ldd	r21, Y+4	; 0x04
    3afa:	69 89       	ldd	r22, Y+17	; 0x11
    3afc:	7a 89       	ldd	r23, Y+18	; 0x12
    3afe:	8b 89       	ldd	r24, Y+19	; 0x13
    3b00:	9c 89       	ldd	r25, Y+20	; 0x14
    3b02:	8d 80       	ldd	r8, Y+5	; 0x05
    3b04:	9e 80       	ldd	r9, Y+6	; 0x06
    3b06:	af 80       	ldd	r10, Y+7	; 0x07
    3b08:	b8 84       	ldd	r11, Y+8	; 0x08
                    //
                    // Determine the number of digits in the string version of
                    // the value.
                    //
convert:
                    for(ui32Idx = 1;
    3b0a:	0e 94 d8 28 	call	0x51b0	; 0x51b0 <__mulsi3>
    3b0e:	86 16       	cp	r8, r22
    3b10:	97 06       	cpc	r9, r23
    3b12:	a8 06       	cpc	r10, r24
    3b14:	b9 06       	cpc	r11, r25
    3b16:	e0 f0       	brcs	.+56     	; 0x3b50 <UARTvprintf+0x47c>
                        (((ui32Idx * ui32Base) <= ui32Value) &&
                         (((ui32Idx * ui32Base) / ui32Base) == ui32Idx));
    3b18:	29 81       	ldd	r18, Y+1	; 0x01
    3b1a:	3a 81       	ldd	r19, Y+2	; 0x02
    3b1c:	4b 81       	ldd	r20, Y+3	; 0x03
    3b1e:	5c 81       	ldd	r21, Y+4	; 0x04
    3b20:	69 89       	ldd	r22, Y+17	; 0x11
    3b22:	7a 89       	ldd	r23, Y+18	; 0x12
    3b24:	8b 89       	ldd	r24, Y+19	; 0x13
    3b26:	9c 89       	ldd	r25, Y+20	; 0x14
    3b28:	49 88       	ldd	r4, Y+17	; 0x11
    3b2a:	5a 88       	ldd	r5, Y+18	; 0x12
    3b2c:	6b 88       	ldd	r6, Y+19	; 0x13
    3b2e:	7c 88       	ldd	r7, Y+20	; 0x14
    3b30:	89 80       	ldd	r8, Y+1	; 0x01
    3b32:	9a 80       	ldd	r9, Y+2	; 0x02
    3b34:	ab 80       	ldd	r10, Y+3	; 0x03
    3b36:	bc 80       	ldd	r11, Y+4	; 0x04
                    // Determine the number of digits in the string version of
                    // the value.
                    //
convert:
                    for(ui32Idx = 1;
                        (((ui32Idx * ui32Base) <= ui32Value) &&
    3b38:	0e 94 d8 28 	call	0x51b0	; 0x51b0 <__mulsi3>
    3b3c:	a3 01       	movw	r20, r6
    3b3e:	92 01       	movw	r18, r4
    3b40:	0e 94 e8 28 	call	0x51d0	; 0x51d0 <__udivmodsi4>
    3b44:	28 15       	cp	r18, r8
    3b46:	39 05       	cpc	r19, r9
    3b48:	4a 05       	cpc	r20, r10
    3b4a:	5b 05       	cpc	r21, r11
    3b4c:	09 f4       	brne	.+2      	; 0x3b50 <UARTvprintf+0x47c>
    3b4e:	b8 cf       	rjmp	.-144    	; 0x3ac0 <UARTvprintf+0x3ec>

                    //
                    // If the value is negative, reduce the count of padding
                    // characters needed.
                    //
                    if(ui32Neg)
    3b50:	8d 89       	ldd	r24, Y+21	; 0x15
    3b52:	9e 89       	ldd	r25, Y+22	; 0x16
    3b54:	af 89       	ldd	r26, Y+23	; 0x17
    3b56:	b8 8d       	ldd	r27, Y+24	; 0x18
    3b58:	89 2b       	or	r24, r25
    3b5a:	8a 2b       	or	r24, r26
    3b5c:	8b 2b       	or	r24, r27
    3b5e:	59 f0       	breq	.+22     	; 0x3b76 <UARTvprintf+0x4a2>
                    {
                        ui32Count--;
    3b60:	8d 85       	ldd	r24, Y+13	; 0x0d
    3b62:	9e 85       	ldd	r25, Y+14	; 0x0e
    3b64:	af 85       	ldd	r26, Y+15	; 0x0f
    3b66:	b8 89       	ldd	r27, Y+16	; 0x10
    3b68:	01 97       	sbiw	r24, 0x01	; 1
    3b6a:	a1 09       	sbc	r26, r1
    3b6c:	b1 09       	sbc	r27, r1
    3b6e:	8d 87       	std	Y+13, r24	; 0x0d
    3b70:	9e 87       	std	Y+14, r25	; 0x0e
    3b72:	af 87       	std	Y+15, r26	; 0x0f
    3b74:	b8 8b       	std	Y+16, r27	; 0x10

                    //
                    // If the value is negative and the value is padded with
                    // zeros, then place the minus sign before the padding.
                    //
                    if(ui32Neg && (cFill == '0'))
    3b76:	8d 89       	ldd	r24, Y+21	; 0x15
    3b78:	9e 89       	ldd	r25, Y+22	; 0x16
    3b7a:	af 89       	ldd	r26, Y+23	; 0x17
    3b7c:	b8 8d       	ldd	r27, Y+24	; 0x18
    3b7e:	89 2b       	or	r24, r25
    3b80:	8a 2b       	or	r24, r26
    3b82:	8b 2b       	or	r24, r27
    3b84:	d1 f0       	breq	.+52     	; 0x3bba <UARTvprintf+0x4e6>
    3b86:	90 e3       	ldi	r25, 0x30	; 48
    3b88:	f9 12       	cpse	r15, r25
    3b8a:	17 c0       	rjmp	.+46     	; 0x3bba <UARTvprintf+0x4e6>
                    {
                        //
                        // Place the minus sign in the output buffer.
                        //
                        pcBuf[ui32Pos++] = '-';
    3b8c:	89 85       	ldd	r24, Y+9	; 0x09
    3b8e:	9a 85       	ldd	r25, Y+10	; 0x0a
    3b90:	ab 85       	ldd	r26, Y+11	; 0x0b
    3b92:	bc 85       	ldd	r27, Y+12	; 0x0c
    3b94:	ac 01       	movw	r20, r24
    3b96:	bd 01       	movw	r22, r26
    3b98:	4f 5f       	subi	r20, 0xFF	; 255
    3b9a:	5f 4f       	sbci	r21, 0xFF	; 255
    3b9c:	6f 4f       	sbci	r22, 0xFF	; 255
    3b9e:	7f 4f       	sbci	r23, 0xFF	; 255
    3ba0:	49 87       	std	Y+9, r20	; 0x09
    3ba2:	5a 87       	std	Y+10, r21	; 0x0a
    3ba4:	6b 87       	std	Y+11, r22	; 0x0b
    3ba6:	7c 87       	std	Y+12, r23	; 0x0c
    3ba8:	f6 01       	movw	r30, r12
    3baa:	e8 0f       	add	r30, r24
    3bac:	f9 1f       	adc	r31, r25
    3bae:	ad e2       	ldi	r26, 0x2D	; 45
    3bb0:	a0 83       	st	Z, r26

                        //
                        // The minus sign has been placed, so turn off the
                        // negative flag.
                        //
                        ui32Neg = 0;
    3bb2:	1d 8a       	std	Y+21, r1	; 0x15
    3bb4:	1e 8a       	std	Y+22, r1	; 0x16
    3bb6:	1f 8a       	std	Y+23, r1	; 0x17
    3bb8:	18 8e       	std	Y+24, r1	; 0x18

                    //
                    // Provide additional padding at the beginning of the
                    // string conversion if needed.
                    //
                    if((ui32Count > 1) && (ui32Count < 16))
    3bba:	8d 85       	ldd	r24, Y+13	; 0x0d
    3bbc:	9e 85       	ldd	r25, Y+14	; 0x0e
    3bbe:	af 85       	ldd	r26, Y+15	; 0x0f
    3bc0:	b8 89       	ldd	r27, Y+16	; 0x10
    3bc2:	02 97       	sbiw	r24, 0x02	; 2
    3bc4:	a1 05       	cpc	r26, r1
    3bc6:	b1 05       	cpc	r27, r1
    3bc8:	08 f4       	brcc	.+2      	; 0x3bcc <UARTvprintf+0x4f8>
    3bca:	40 c0       	rjmp	.+128    	; 0x3c4c <UARTvprintf+0x578>
    3bcc:	8d 85       	ldd	r24, Y+13	; 0x0d
    3bce:	9e 85       	ldd	r25, Y+14	; 0x0e
    3bd0:	af 85       	ldd	r26, Y+15	; 0x0f
    3bd2:	b8 89       	ldd	r27, Y+16	; 0x10
    3bd4:	40 97       	sbiw	r24, 0x10	; 16
    3bd6:	a1 05       	cpc	r26, r1
    3bd8:	b1 05       	cpc	r27, r1
    3bda:	c0 f5       	brcc	.+112    	; 0x3c4c <UARTvprintf+0x578>
                    {
                        for(ui32Count--; ui32Count; ui32Count--)
    3bdc:	8d 85       	ldd	r24, Y+13	; 0x0d
    3bde:	9e 85       	ldd	r25, Y+14	; 0x0e
    3be0:	af 85       	ldd	r26, Y+15	; 0x0f
    3be2:	b8 89       	ldd	r27, Y+16	; 0x10
    3be4:	01 97       	sbiw	r24, 0x01	; 1
    3be6:	a1 09       	sbc	r26, r1
    3be8:	b1 09       	sbc	r27, r1
    3bea:	8d 87       	std	Y+13, r24	; 0x0d
    3bec:	9e 87       	std	Y+14, r25	; 0x0e
    3bee:	af 87       	std	Y+15, r26	; 0x0f
    3bf0:	b8 8b       	std	Y+16, r27	; 0x10
    3bf2:	8d 85       	ldd	r24, Y+13	; 0x0d
    3bf4:	9e 85       	ldd	r25, Y+14	; 0x0e
    3bf6:	af 85       	ldd	r26, Y+15	; 0x0f
    3bf8:	b8 89       	ldd	r27, Y+16	; 0x10
    3bfa:	89 2b       	or	r24, r25
    3bfc:	8a 2b       	or	r24, r26
    3bfe:	8b 2b       	or	r24, r27
    3c00:	29 f1       	breq	.+74     	; 0x3c4c <UARTvprintf+0x578>
                        {
                            pcBuf[ui32Pos++] = cFill;
    3c02:	89 85       	ldd	r24, Y+9	; 0x09
    3c04:	9a 85       	ldd	r25, Y+10	; 0x0a
    3c06:	ab 85       	ldd	r26, Y+11	; 0x0b
    3c08:	bc 85       	ldd	r27, Y+12	; 0x0c
    3c0a:	ac 01       	movw	r20, r24
    3c0c:	bd 01       	movw	r22, r26
    3c0e:	4f 5f       	subi	r20, 0xFF	; 255
    3c10:	5f 4f       	sbci	r21, 0xFF	; 255
    3c12:	6f 4f       	sbci	r22, 0xFF	; 255
    3c14:	7f 4f       	sbci	r23, 0xFF	; 255
    3c16:	49 87       	std	Y+9, r20	; 0x09
    3c18:	5a 87       	std	Y+10, r21	; 0x0a
    3c1a:	6b 87       	std	Y+11, r22	; 0x0b
    3c1c:	7c 87       	std	Y+12, r23	; 0x0c
    3c1e:	f6 01       	movw	r30, r12
    3c20:	e8 0f       	add	r30, r24
    3c22:	f9 1f       	adc	r31, r25
    3c24:	f0 82       	st	Z, r15
                    // Provide additional padding at the beginning of the
                    // string conversion if needed.
                    //
                    if((ui32Count > 1) && (ui32Count < 16))
                    {
                        for(ui32Count--; ui32Count; ui32Count--)
    3c26:	8d 85       	ldd	r24, Y+13	; 0x0d
    3c28:	9e 85       	ldd	r25, Y+14	; 0x0e
    3c2a:	af 85       	ldd	r26, Y+15	; 0x0f
    3c2c:	b8 89       	ldd	r27, Y+16	; 0x10
    3c2e:	01 97       	sbiw	r24, 0x01	; 1
    3c30:	a1 09       	sbc	r26, r1
    3c32:	b1 09       	sbc	r27, r1
    3c34:	8d 87       	std	Y+13, r24	; 0x0d
    3c36:	9e 87       	std	Y+14, r25	; 0x0e
    3c38:	af 87       	std	Y+15, r26	; 0x0f
    3c3a:	b8 8b       	std	Y+16, r27	; 0x10
    3c3c:	8d 85       	ldd	r24, Y+13	; 0x0d
    3c3e:	9e 85       	ldd	r25, Y+14	; 0x0e
    3c40:	af 85       	ldd	r26, Y+15	; 0x0f
    3c42:	b8 89       	ldd	r27, Y+16	; 0x10
    3c44:	89 2b       	or	r24, r25
    3c46:	8a 2b       	or	r24, r26
    3c48:	8b 2b       	or	r24, r27
    3c4a:	d9 f6       	brne	.-74     	; 0x3c02 <UARTvprintf+0x52e>

                    //
                    // If the value is negative, then place the minus sign
                    // before the number.
                    //
                    if(ui32Neg)
    3c4c:	8d 89       	ldd	r24, Y+21	; 0x15
    3c4e:	9e 89       	ldd	r25, Y+22	; 0x16
    3c50:	af 89       	ldd	r26, Y+23	; 0x17
    3c52:	b8 8d       	ldd	r27, Y+24	; 0x18
    3c54:	89 2b       	or	r24, r25
    3c56:	8a 2b       	or	r24, r26
    3c58:	8b 2b       	or	r24, r27
    3c5a:	99 f0       	breq	.+38     	; 0x3c82 <UARTvprintf+0x5ae>
                    {
                        //
                        // Place the minus sign in the output buffer.
                        //
                        pcBuf[ui32Pos++] = '-';
    3c5c:	89 85       	ldd	r24, Y+9	; 0x09
    3c5e:	9a 85       	ldd	r25, Y+10	; 0x0a
    3c60:	ab 85       	ldd	r26, Y+11	; 0x0b
    3c62:	bc 85       	ldd	r27, Y+12	; 0x0c
    3c64:	ac 01       	movw	r20, r24
    3c66:	bd 01       	movw	r22, r26
    3c68:	4f 5f       	subi	r20, 0xFF	; 255
    3c6a:	5f 4f       	sbci	r21, 0xFF	; 255
    3c6c:	6f 4f       	sbci	r22, 0xFF	; 255
    3c6e:	7f 4f       	sbci	r23, 0xFF	; 255
    3c70:	49 87       	std	Y+9, r20	; 0x09
    3c72:	5a 87       	std	Y+10, r21	; 0x0a
    3c74:	6b 87       	std	Y+11, r22	; 0x0b
    3c76:	7c 87       	std	Y+12, r23	; 0x0c
    3c78:	f6 01       	movw	r30, r12
    3c7a:	e8 0f       	add	r30, r24
    3c7c:	f9 1f       	adc	r31, r25
    3c7e:	bd e2       	ldi	r27, 0x2D	; 45
    3c80:	b0 83       	st	Z, r27
                    }

                    //
                    // Convert the value into a string.
                    //
                    for(; ui32Idx; ui32Idx /= ui32Base)
    3c82:	89 81       	ldd	r24, Y+1	; 0x01
    3c84:	9a 81       	ldd	r25, Y+2	; 0x02
    3c86:	ab 81       	ldd	r26, Y+3	; 0x03
    3c88:	bc 81       	ldd	r27, Y+4	; 0x04
    3c8a:	89 2b       	or	r24, r25
    3c8c:	8a 2b       	or	r24, r26
    3c8e:	8b 2b       	or	r24, r27
    3c90:	09 f4       	brne	.+2      	; 0x3c94 <UARTvprintf+0x5c0>
    3c92:	42 c0       	rjmp	.+132    	; 0x3d18 <UARTvprintf+0x644>
                    {
                        pcBuf[ui32Pos++] =
    3c94:	49 84       	ldd	r4, Y+9	; 0x09
    3c96:	5a 84       	ldd	r5, Y+10	; 0x0a
    3c98:	6b 84       	ldd	r6, Y+11	; 0x0b
    3c9a:	7c 84       	ldd	r7, Y+12	; 0x0c
    3c9c:	b3 01       	movw	r22, r6
    3c9e:	a2 01       	movw	r20, r4
    3ca0:	4f 5f       	subi	r20, 0xFF	; 255
    3ca2:	5f 4f       	sbci	r21, 0xFF	; 255
    3ca4:	6f 4f       	sbci	r22, 0xFF	; 255
    3ca6:	7f 4f       	sbci	r23, 0xFF	; 255
    3ca8:	49 87       	std	Y+9, r20	; 0x09
    3caa:	5a 87       	std	Y+10, r21	; 0x0a
    3cac:	6b 87       	std	Y+11, r22	; 0x0b
    3cae:	7c 87       	std	Y+12, r23	; 0x0c
                            g_pcHex[(ui32Value / ui32Idx) % ui32Base];
    3cb0:	6d 81       	ldd	r22, Y+5	; 0x05
    3cb2:	7e 81       	ldd	r23, Y+6	; 0x06
    3cb4:	8f 81       	ldd	r24, Y+7	; 0x07
    3cb6:	98 85       	ldd	r25, Y+8	; 0x08
    3cb8:	29 81       	ldd	r18, Y+1	; 0x01
    3cba:	3a 81       	ldd	r19, Y+2	; 0x02
    3cbc:	4b 81       	ldd	r20, Y+3	; 0x03
    3cbe:	5c 81       	ldd	r21, Y+4	; 0x04
    3cc0:	89 88       	ldd	r8, Y+17	; 0x11
    3cc2:	9a 88       	ldd	r9, Y+18	; 0x12
    3cc4:	ab 88       	ldd	r10, Y+19	; 0x13
    3cc6:	bc 88       	ldd	r11, Y+20	; 0x14
                    //
                    // Convert the value into a string.
                    //
                    for(; ui32Idx; ui32Idx /= ui32Base)
                    {
                        pcBuf[ui32Pos++] =
    3cc8:	76 01       	movw	r14, r12
    3cca:	e4 0c       	add	r14, r4
    3ccc:	f5 1c       	adc	r15, r5
                            g_pcHex[(ui32Value / ui32Idx) % ui32Base];
    3cce:	0e 94 e8 28 	call	0x51d0	; 0x51d0 <__udivmodsi4>
    3cd2:	ca 01       	movw	r24, r20
    3cd4:	b9 01       	movw	r22, r18
    3cd6:	a5 01       	movw	r20, r10
    3cd8:	94 01       	movw	r18, r8
    3cda:	0e 94 e8 28 	call	0x51d0	; 0x51d0 <__udivmodsi4>
    3cde:	fb 01       	movw	r30, r22
    3ce0:	e1 5f       	subi	r30, 0xF1	; 241
    3ce2:	f5 4f       	sbci	r31, 0xF5	; 245
                    //
                    // Convert the value into a string.
                    //
                    for(; ui32Idx; ui32Idx /= ui32Base)
                    {
                        pcBuf[ui32Pos++] =
    3ce4:	80 81       	ld	r24, Z
    3ce6:	f7 01       	movw	r30, r14
    3ce8:	80 83       	st	Z, r24
                            g_pcHex[(ui32Value / ui32Idx) % ui32Base];
                    }
    3cea:	29 89       	ldd	r18, Y+17	; 0x11
    3cec:	3a 89       	ldd	r19, Y+18	; 0x12
    3cee:	4b 89       	ldd	r20, Y+19	; 0x13
    3cf0:	5c 89       	ldd	r21, Y+20	; 0x14
                    }

                    //
                    // Convert the value into a string.
                    //
                    for(; ui32Idx; ui32Idx /= ui32Base)
    3cf2:	69 81       	ldd	r22, Y+1	; 0x01
    3cf4:	7a 81       	ldd	r23, Y+2	; 0x02
    3cf6:	8b 81       	ldd	r24, Y+3	; 0x03
    3cf8:	9c 81       	ldd	r25, Y+4	; 0x04
    3cfa:	0e 94 e8 28 	call	0x51d0	; 0x51d0 <__udivmodsi4>
    3cfe:	29 83       	std	Y+1, r18	; 0x01
    3d00:	3a 83       	std	Y+2, r19	; 0x02
    3d02:	4b 83       	std	Y+3, r20	; 0x03
    3d04:	5c 83       	std	Y+4, r21	; 0x04
    3d06:	89 81       	ldd	r24, Y+1	; 0x01
    3d08:	9a 81       	ldd	r25, Y+2	; 0x02
    3d0a:	ab 81       	ldd	r26, Y+3	; 0x03
    3d0c:	bc 81       	ldd	r27, Y+4	; 0x04
    3d0e:	89 2b       	or	r24, r25
    3d10:	8a 2b       	or	r24, r26
    3d12:	8b 2b       	or	r24, r27
    3d14:	09 f0       	breq	.+2      	; 0x3d18 <UARTvprintf+0x644>
    3d16:	be cf       	rjmp	.-132    	; 0x3c94 <UARTvprintf+0x5c0>
                    }

                    //
                    // Write the string.
                    //
                    CONSOLE_UART_WRITE(pcBuf, ui32Pos);
    3d18:	69 85       	ldd	r22, Y+9	; 0x09
    3d1a:	7a 85       	ldd	r23, Y+10	; 0x0a
    3d1c:	8b 85       	ldd	r24, Y+11	; 0x0b
    3d1e:	9c 85       	ldd	r25, Y+12	; 0x0c
    3d20:	82 2d       	mov	r24, r2
    3d22:	93 2d       	mov	r25, r3
    3d24:	0e 94 ef 19 	call	0x33de	; 0x33de <usart0_send_array>

                    //
                    // This command has been handled.
                    //
                    break;
    3d28:	10 c0       	rjmp	.+32     	; 0x3d4a <UARTvprintf+0x676>
                case '%':
                {
                    //
                    // Simply write a single %.
                    //
                    CONSOLE_UART_WRITE(pcString - 1, 1);
    3d2a:	61 e0       	ldi	r22, 0x01	; 1
    3d2c:	cd 01       	movw	r24, r26
    3d2e:	0e 94 ef 19 	call	0x33de	; 0x33de <usart0_send_array>

                    //
                    // This command has been handled.
                    //
                    break;
    3d32:	0b c0       	rjmp	.+22     	; 0x3d4a <UARTvprintf+0x676>
                default:
                {
                    //
                    // Indicate an error.
                    //
                    CONSOLE_UART_WRITE("ERROR", 5);
    3d34:	65 e0       	ldi	r22, 0x05	; 5
    3d36:	80 e2       	ldi	r24, 0x20	; 32
    3d38:	9a e0       	ldi	r25, 0x0A	; 10
    3d3a:	0e 94 ef 19 	call	0x33de	; 0x33de <usart0_send_array>

                    //
                    // This command has been handled.
                    //
                    break;
    3d3e:	05 c0       	rjmp	.+10     	; 0x3d4a <UARTvprintf+0x676>
                case 's':
                {
                    //
                    // Get the string pointer from the varargs.
                    //
                    pcStr = va_arg(vaArgP, char *);
    3d40:	fa a6       	std	Y+42, r15	; 0x2a
    3d42:	e9 a6       	std	Y+41, r14	; 0x29
    3d44:	02 c0       	rjmp	.+4      	; 0x3d4a <UARTvprintf+0x676>
    3d46:	fa a6       	std	Y+42, r15	; 0x2a
    3d48:	e9 a6       	std	Y+41, r14	; 0x29
    char *pcStr, pcBuf[16], cFill;

    //
    // Loop while there are more characters in the string.
    //
    while(*pcString)
    3d4a:	d8 01       	movw	r26, r16
    3d4c:	8c 91       	ld	r24, X
    3d4e:	81 11       	cpse	r24, r1
    3d50:	e5 cc       	rjmp	.-1590   	; 0x371c <UARTvprintf+0x48>
                    break;
                }
            }
        }
    }
}
    3d52:	aa 96       	adiw	r28, 0x2a	; 42
    3d54:	0f b6       	in	r0, 0x3f	; 63
    3d56:	f8 94       	cli
    3d58:	de bf       	out	0x3e, r29	; 62
    3d5a:	0f be       	out	0x3f, r0	; 63
    3d5c:	cd bf       	out	0x3d, r28	; 61
    3d5e:	df 91       	pop	r29
    3d60:	cf 91       	pop	r28
    3d62:	1f 91       	pop	r17
    3d64:	0f 91       	pop	r16
    3d66:	ff 90       	pop	r15
    3d68:	ef 90       	pop	r14
    3d6a:	df 90       	pop	r13
    3d6c:	cf 90       	pop	r12
    3d6e:	bf 90       	pop	r11
    3d70:	af 90       	pop	r10
    3d72:	9f 90       	pop	r9
    3d74:	8f 90       	pop	r8
    3d76:	7f 90       	pop	r7
    3d78:	6f 90       	pop	r6
    3d7a:	5f 90       	pop	r5
    3d7c:	4f 90       	pop	r4
    3d7e:	3f 90       	pop	r3
    3d80:	2f 90       	pop	r2
    3d82:	08 95       	ret

00003d84 <UARTprintf>:
//! \return None.
//
//*****************************************************************************
void
UARTprintf(const char *pcString, ...)
{
    3d84:	cf 93       	push	r28
    3d86:	df 93       	push	r29
    3d88:	cd b7       	in	r28, 0x3d	; 61
    3d8a:	de b7       	in	r29, 0x3e	; 62
    3d8c:	be 01       	movw	r22, r28
    3d8e:	6b 5f       	subi	r22, 0xFB	; 251
    3d90:	7f 4f       	sbci	r23, 0xFF	; 255
    3d92:	fb 01       	movw	r30, r22
    3d94:	81 91       	ld	r24, Z+
    3d96:	91 91       	ld	r25, Z+
    3d98:	bf 01       	movw	r22, r30
    //
    // Start the varargs processing.
    //
    va_start(vaArgP, pcString);

    UARTvprintf(pcString, vaArgP);
    3d9a:	0e 94 6a 1b 	call	0x36d4	; 0x36d4 <UARTvprintf>

    //
    // We're finished with the varargs now.
    //
    va_end(vaArgP);
    3d9e:	df 91       	pop	r29
    3da0:	cf 91       	pop	r28
    3da2:	08 95       	ret

00003da4 <get_BMP390_temperature>:
	BMP390_compensate_pressure(&TempPress_data);
}

int16_t	get_BMP390_temperature(void)
{
	return (int16_t)TempPress_data.temperature;
    3da4:	60 91 fa 0c 	lds	r22, 0x0CFA	; 0x800cfa <TempPress_data+0x4>
    3da8:	70 91 fb 0c 	lds	r23, 0x0CFB	; 0x800cfb <TempPress_data+0x5>
    3dac:	80 91 fc 0c 	lds	r24, 0x0CFC	; 0x800cfc <TempPress_data+0x6>
    3db0:	90 91 fd 0c 	lds	r25, 0x0CFD	; 0x800cfd <TempPress_data+0x7>
    3db4:	0e 94 2a 24 	call	0x4854	; 0x4854 <__fixsfsi>
}
    3db8:	cb 01       	movw	r24, r22
    3dba:	08 95       	ret

00003dbc <get_BMP390_pressure>:
int16_t	get_BMP390_pressure(void)
{
	return (int16_t)TempPress_data.pressure;
    3dbc:	60 91 02 0d 	lds	r22, 0x0D02	; 0x800d02 <TempPress_data+0xc>
    3dc0:	70 91 03 0d 	lds	r23, 0x0D03	; 0x800d03 <TempPress_data+0xd>
    3dc4:	80 91 04 0d 	lds	r24, 0x0D04	; 0x800d04 <TempPress_data+0xe>
    3dc8:	90 91 05 0d 	lds	r25, 0x0D05	; 0x800d05 <TempPress_data+0xf>
    3dcc:	0e 94 2a 24 	call	0x4854	; 0x4854 <__fixsfsi>
    3dd0:	cb 01       	movw	r24, r22
    3dd2:	08 95       	ret

00003dd4 <MCP4921_init>:
void MCP4291_assert_LDAC(void);
void MCP4291_deassert_LDAC(void);

void	MCP4921_init(void)
{
		MCP4921_SS0_DDR |= 1 << MCP4921_SS0_PIN;
    3dd4:	bc 9a       	sbi	0x17, 4	; 23
		MCP4921_SS1_DDR |= 1 << MCP4921_SS1_PIN;
    3dd6:	8e 9a       	sbi	0x11, 6	; 17
		MCP4921_SS2_DDR |= 1 << MCP4921_SS2_PIN;
    3dd8:	a4 9a       	sbi	0x14, 4	; 20
		MCP4921_SS3_DDR |= 1 << MCP4921_SS3_PIN;
    3dda:	a5 9a       	sbi	0x14, 5	; 20
		MCP4921_LDAC_DDR |= 1 << MCP4921_LDAC_PIN;
    3ddc:	8f 9a       	sbi	0x11, 7	; 17
		SPI_Init();
    3dde:	0e 94 29 18 	call	0x3052	; 0x3052 <SPI_Init>
    3de2:	08 95       	ret

00003de4 <MCP4291_AssertSS>:
}

// Assert the SS line
void MCP4291_AssertSS(uint8_t CS_line)
{
	switch (CS_line)
    3de4:	81 30       	cpi	r24, 0x01	; 1
    3de6:	41 f0       	breq	.+16     	; 0x3df8 <MCP4291_AssertSS+0x14>
    3de8:	28 f0       	brcs	.+10     	; 0x3df4 <MCP4291_AssertSS+0x10>
    3dea:	82 30       	cpi	r24, 0x02	; 2
    3dec:	39 f0       	breq	.+14     	; 0x3dfc <MCP4291_AssertSS+0x18>
    3dee:	83 30       	cpi	r24, 0x03	; 3
    3df0:	39 f0       	breq	.+14     	; 0x3e00 <MCP4291_AssertSS+0x1c>
    3df2:	08 95       	ret
	{
		case 0:
			MCP4921_SS0_PORT &= ~(1 << MCP4921_SS0_PIN);
    3df4:	c4 98       	cbi	0x18, 4	; 24
			break;
    3df6:	08 95       	ret
		case 1:
			MCP4921_SS1_PORT &= ~(1 << MCP4921_SS1_PIN);
    3df8:	96 98       	cbi	0x12, 6	; 18
			break;
    3dfa:	08 95       	ret
		case 2:
			MCP4921_SS2_PORT &= ~(1 << MCP4921_SS2_PIN);
    3dfc:	ac 98       	cbi	0x15, 4	; 21
			break;
    3dfe:	08 95       	ret
		case 3:
			MCP4921_SS3_PORT &= ~(1 << MCP4921_SS3_PIN);
    3e00:	ad 98       	cbi	0x15, 5	; 21
    3e02:	08 95       	ret

00003e04 <MCP4291_DeassertSS>:
}

// Deassert the SS line
void MCP4291_DeassertSS(uint8_t CS_line)
{
	switch (CS_line)
    3e04:	81 30       	cpi	r24, 0x01	; 1
    3e06:	41 f0       	breq	.+16     	; 0x3e18 <MCP4291_DeassertSS+0x14>
    3e08:	28 f0       	brcs	.+10     	; 0x3e14 <MCP4291_DeassertSS+0x10>
    3e0a:	82 30       	cpi	r24, 0x02	; 2
    3e0c:	39 f0       	breq	.+14     	; 0x3e1c <MCP4291_DeassertSS+0x18>
    3e0e:	83 30       	cpi	r24, 0x03	; 3
    3e10:	39 f0       	breq	.+14     	; 0x3e20 <MCP4291_DeassertSS+0x1c>
    3e12:	08 95       	ret
	{
		case 0:
			MCP4921_SS0_PORT |= (1 << MCP4921_SS0_PIN);
    3e14:	c4 9a       	sbi	0x18, 4	; 24
			break;
    3e16:	08 95       	ret
		case 1:
			MCP4921_SS1_PORT |= (1 << MCP4921_SS1_PIN);
    3e18:	96 9a       	sbi	0x12, 6	; 18
			break;
    3e1a:	08 95       	ret
		case 2:
			MCP4921_SS2_PORT |= (1 << MCP4921_SS2_PIN);
    3e1c:	ac 9a       	sbi	0x15, 4	; 21
			break;
    3e1e:	08 95       	ret
		case 3:
			MCP4921_SS3_PORT |= (1 << MCP4921_SS3_PIN);
    3e20:	ad 9a       	sbi	0x15, 5	; 21
    3e22:	08 95       	ret

00003e24 <MCP4291_assert_LDAC>:
	}
}

void MCP4291_assert_LDAC(void)
{
	MCP4921_LDAC_PORT &= ~(1 << MCP4921_LDAC_PIN);
    3e24:	97 98       	cbi	0x12, 7	; 18
    3e26:	08 95       	ret

00003e28 <MCP4291_deassert_LDAC>:
}
void MCP4291_deassert_LDAC(void)
{
	MCP4921_LDAC_PORT |= (1 << MCP4921_LDAC_PIN);
    3e28:	97 9a       	sbi	0x12, 7	; 18
    3e2a:	08 95       	ret

00003e2c <MCP4291_set_output>:
  * @param	buf_ena = 1: output buffered.
  * @param	DAC_number: from 0-3
  * @retval status: 0 PASS, >0: error
  *****************************************************************************/
uint8_t	MCP4291_set_output(uint16_t	Val, uint8_t shutdown, uint8_t gain_ena, uint8_t buf_ena, uint8_t DAC_num)
{
    3e2c:	af 92       	push	r10
    3e2e:	bf 92       	push	r11
    3e30:	cf 92       	push	r12
    3e32:	df 92       	push	r13
    3e34:	ef 92       	push	r14
    3e36:	ff 92       	push	r15
    3e38:	0f 93       	push	r16
    3e3a:	1f 93       	push	r17
    3e3c:	cf 93       	push	r28
    3e3e:	df 93       	push	r29
    3e40:	cd b7       	in	r28, 0x3d	; 61
    3e42:	de b7       	in	r29, 0x3e	; 62
    3e44:	28 97       	sbiw	r28, 0x08	; 8
    3e46:	0f b6       	in	r0, 0x3f	; 63
    3e48:	f8 94       	cli
    3e4a:	de bf       	out	0x3e, r29	; 62
    3e4c:	0f be       	out	0x3f, r0	; 63
    3e4e:	cd bf       	out	0x3d, r28	; 61
	volatile mcp4921_config_t		s_mcp4921_config[4];
	if (DAC_num >3)	return 1;
    3e50:	04 30       	cpi	r16, 0x04	; 4
    3e52:	08 f0       	brcs	.+2      	; 0x3e56 <MCP4291_set_output+0x2a>
    3e54:	6c c0       	rjmp	.+216    	; 0x3f2e <MCP4291_set_output+0x102>
    3e56:	12 2f       	mov	r17, r18
    3e58:	b4 2e       	mov	r11, r20
    3e5a:	a6 2e       	mov	r10, r22
    3e5c:	6c 01       	movw	r12, r24
	
	MCP4291_AssertSS(DAC_num);
    3e5e:	80 2f       	mov	r24, r16
    3e60:	0e 94 f2 1e 	call	0x3de4	; 0x3de4 <MCP4291_AssertSS>
	s_mcp4921_config[DAC_num].bitfield.data = Val ;
    3e64:	e0 2e       	mov	r14, r16
    3e66:	f1 2c       	mov	r15, r1
    3e68:	c6 01       	movw	r24, r12
    3e6a:	9f 70       	andi	r25, 0x0F	; 15
    3e6c:	f7 01       	movw	r30, r14
    3e6e:	ee 0f       	add	r30, r30
    3e70:	ff 1f       	adc	r31, r31
    3e72:	21 e0       	ldi	r18, 0x01	; 1
    3e74:	30 e0       	ldi	r19, 0x00	; 0
    3e76:	2c 0f       	add	r18, r28
    3e78:	3d 1f       	adc	r19, r29
    3e7a:	e2 0f       	add	r30, r18
    3e7c:	f3 1f       	adc	r31, r19
    3e7e:	80 83       	st	Z, r24
    3e80:	9f 70       	andi	r25, 0x0F	; 15
    3e82:	81 81       	ldd	r24, Z+1	; 0x01
    3e84:	80 7f       	andi	r24, 0xF0	; 240
    3e86:	89 2b       	or	r24, r25
    3e88:	81 83       	std	Z+1, r24	; 0x01
	if (shutdown)
    3e8a:	aa 20       	and	r10, r10
    3e8c:	49 f0       	breq	.+18     	; 0x3ea0 <MCP4291_set_output+0x74>
		s_mcp4921_config[DAC_num].bitfield.not_shutdown = 0;
    3e8e:	f7 01       	movw	r30, r14
    3e90:	ee 0f       	add	r30, r30
    3e92:	ff 1f       	adc	r31, r31
    3e94:	e2 0f       	add	r30, r18
    3e96:	f3 1f       	adc	r31, r19
    3e98:	81 81       	ldd	r24, Z+1	; 0x01
    3e9a:	8f 7e       	andi	r24, 0xEF	; 239
    3e9c:	81 83       	std	Z+1, r24	; 0x01
    3e9e:	0c c0       	rjmp	.+24     	; 0x3eb8 <MCP4291_set_output+0x8c>
		else s_mcp4921_config[DAC_num].bitfield.not_shutdown = 1;
    3ea0:	f7 01       	movw	r30, r14
    3ea2:	ee 0f       	add	r30, r30
    3ea4:	ff 1f       	adc	r31, r31
    3ea6:	81 e0       	ldi	r24, 0x01	; 1
    3ea8:	90 e0       	ldi	r25, 0x00	; 0
    3eaa:	8c 0f       	add	r24, r28
    3eac:	9d 1f       	adc	r25, r29
    3eae:	e8 0f       	add	r30, r24
    3eb0:	f9 1f       	adc	r31, r25
    3eb2:	81 81       	ldd	r24, Z+1	; 0x01
    3eb4:	80 61       	ori	r24, 0x10	; 16
    3eb6:	81 83       	std	Z+1, r24	; 0x01
	if (gain_ena)	s_mcp4921_config[DAC_num].bitfield.ga = 0;
    3eb8:	bb 20       	and	r11, r11
    3eba:	69 f0       	breq	.+26     	; 0x3ed6 <MCP4291_set_output+0xaa>
    3ebc:	f7 01       	movw	r30, r14
    3ebe:	ee 0f       	add	r30, r30
    3ec0:	ff 1f       	adc	r31, r31
    3ec2:	21 e0       	ldi	r18, 0x01	; 1
    3ec4:	30 e0       	ldi	r19, 0x00	; 0
    3ec6:	2c 0f       	add	r18, r28
    3ec8:	3d 1f       	adc	r19, r29
    3eca:	e2 0f       	add	r30, r18
    3ecc:	f3 1f       	adc	r31, r19
    3ece:	81 81       	ldd	r24, Z+1	; 0x01
    3ed0:	8f 7d       	andi	r24, 0xDF	; 223
    3ed2:	81 83       	std	Z+1, r24	; 0x01
    3ed4:	0c c0       	rjmp	.+24     	; 0x3eee <MCP4291_set_output+0xc2>
	else s_mcp4921_config[DAC_num].bitfield.ga = 1;
    3ed6:	f7 01       	movw	r30, r14
    3ed8:	ee 0f       	add	r30, r30
    3eda:	ff 1f       	adc	r31, r31
    3edc:	81 e0       	ldi	r24, 0x01	; 1
    3ede:	90 e0       	ldi	r25, 0x00	; 0
    3ee0:	8c 0f       	add	r24, r28
    3ee2:	9d 1f       	adc	r25, r29
    3ee4:	e8 0f       	add	r30, r24
    3ee6:	f9 1f       	adc	r31, r25
    3ee8:	81 81       	ldd	r24, Z+1	; 0x01
    3eea:	80 62       	ori	r24, 0x20	; 32
    3eec:	81 83       	std	Z+1, r24	; 0x01
	s_mcp4921_config[DAC_num].bitfield.buf = buf_ena;
    3eee:	ee 0c       	add	r14, r14
    3ef0:	ff 1c       	adc	r15, r15
    3ef2:	e1 e0       	ldi	r30, 0x01	; 1
    3ef4:	f0 e0       	ldi	r31, 0x00	; 0
    3ef6:	ec 0f       	add	r30, r28
    3ef8:	fd 1f       	adc	r31, r29
    3efa:	ee 0e       	add	r14, r30
    3efc:	ff 1e       	adc	r15, r31
    3efe:	f7 01       	movw	r30, r14
    3f00:	81 81       	ldd	r24, Z+1	; 0x01
    3f02:	10 fb       	bst	r17, 0
    3f04:	86 f9       	bld	r24, 6
    3f06:	81 83       	std	Z+1, r24	; 0x01
	s_mcp4921_config[DAC_num].bitfield.not_write = 0;
    3f08:	81 81       	ldd	r24, Z+1	; 0x01
    3f0a:	8f 77       	andi	r24, 0x7F	; 127
    3f0c:	81 83       	std	Z+1, r24	; 0x01
	
	SPI_SendByte(s_mcp4921_config[DAC_num].bytefield.byte1);
    3f0e:	81 81       	ldd	r24, Z+1	; 0x01
    3f10:	0e 94 33 18 	call	0x3066	; 0x3066 <SPI_SendByte>

	SPI_SendByte(s_mcp4921_config[DAC_num].bytefield.byte0);
    3f14:	f7 01       	movw	r30, r14
    3f16:	80 81       	ld	r24, Z
    3f18:	0e 94 33 18 	call	0x3066	; 0x3066 <SPI_SendByte>

	MCP4291_DeassertSS(DAC_num);
    3f1c:	80 2f       	mov	r24, r16
    3f1e:	0e 94 02 1f 	call	0x3e04	; 0x3e04 <MCP4291_DeassertSS>
	MCP4291_assert_LDAC();
    3f22:	0e 94 12 1f 	call	0x3e24	; 0x3e24 <MCP4291_assert_LDAC>
	MCP4291_deassert_LDAC();
    3f26:	0e 94 14 1f 	call	0x3e28	; 0x3e28 <MCP4291_deassert_LDAC>
	return	0;
    3f2a:	80 e0       	ldi	r24, 0x00	; 0
    3f2c:	01 c0       	rjmp	.+2      	; 0x3f30 <MCP4291_set_output+0x104>
  * @retval status: 0 PASS, >0: error
  *****************************************************************************/
uint8_t	MCP4291_set_output(uint16_t	Val, uint8_t shutdown, uint8_t gain_ena, uint8_t buf_ena, uint8_t DAC_num)
{
	volatile mcp4921_config_t		s_mcp4921_config[4];
	if (DAC_num >3)	return 1;
    3f2e:	81 e0       	ldi	r24, 0x01	; 1

	MCP4291_DeassertSS(DAC_num);
	MCP4291_assert_LDAC();
	MCP4291_deassert_LDAC();
	return	0;
    3f30:	28 96       	adiw	r28, 0x08	; 8
    3f32:	0f b6       	in	r0, 0x3f	; 63
    3f34:	f8 94       	cli
    3f36:	de bf       	out	0x3e, r29	; 62
    3f38:	0f be       	out	0x3f, r0	; 63
    3f3a:	cd bf       	out	0x3d, r28	; 61
    3f3c:	df 91       	pop	r29
    3f3e:	cf 91       	pop	r28
    3f40:	1f 91       	pop	r17
    3f42:	0f 91       	pop	r16
    3f44:	ff 90       	pop	r15
    3f46:	ef 90       	pop	r14
    3f48:	df 90       	pop	r13
    3f4a:	cf 90       	pop	r12
    3f4c:	bf 90       	pop	r11
    3f4e:	af 90       	pop	r10
    3f50:	08 95       	ret

00003f52 <get_NTC_temperature_using_table>:
	1969, 2045, 2136, 2249, 2394, 2593, 2902,
	3521, 4140
};

int16_t get_NTC_temperature_using_table(uint8_t channel){
	uint16_t ADCVal  = adc_read(channel);
    3f52:	0e 94 b7 17 	call	0x2f6e	; 0x2f6e <adc_read>
	return pgm_read_word(&NTC_table[ADCVal]);
    3f56:	88 0f       	add	r24, r24
    3f58:	99 1f       	adc	r25, r25
    3f5a:	fc 01       	movw	r30, r24
    3f5c:	e6 5f       	subi	r30, 0xF6	; 246
    3f5e:	f4 4f       	sbci	r31, 0xF4	; 244
    3f60:	85 91       	lpm	r24, Z+
    3f62:	94 91       	lpm	r25, Z
};
    3f64:	08 95       	ret

00003f66 <ringled_show>:
	ringled_clear();
	ringled_show(colorMap, LED_COUNT);
}

void __attribute__((noinline)) ringled_show(const rgbw_color *colors, uint8_t pixels)
{
    3f66:	fc 01       	movw	r30, r24
	RINGLED_PORT &= ~(1 << RINGLED_DQ);
    3f68:	c7 98       	cbi	0x18, 7	; 24
	RINGLED_DDR  |= (1 << RINGLED_DQ);
    3f6a:	bf 9a       	sbi	0x17, 7	; 23
	
	cli();   // Disable interrupts temporarily because we don't want our pulse timing to be messed up.
    3f6c:	f8 94       	cli
	while (pixels--)
    3f6e:	2f ef       	ldi	r18, 0xFF	; 255
    3f70:	26 0f       	add	r18, r22
    3f72:	66 23       	and	r22, r22
    3f74:	09 f4       	brne	.+2      	; 0x3f78 <ringled_show+0x12>
    3f76:	28 c0       	rjmp	.+80     	; 0x3fc8 <led_strip_asm_end35+0x6>
	{
		uint8_t portValue = RINGLED_PORT;
    3f78:	98 b3       	in	r25, 0x18	; 24
		// Send a color to the LED strip.
		// The assembly below also increments the 'colors' pointer,
		// it will be pointing to the next color at the end of this loop.
		asm volatile (
    3f7a:	89 2f       	mov	r24, r25
    3f7c:	8f 77       	andi	r24, 0x7F	; 127
    3f7e:	90 68       	ori	r25, 0x80	; 128
    3f80:	01 90       	ld	r0, Z+
    3f82:	00 80       	ld	r0, Z
    3f84:	09 d0       	rcall	.+18     	; 0x3f98 <send_led_strip_byte35>
    3f86:	02 90       	ld	r0, -Z
    3f88:	07 d0       	rcall	.+14     	; 0x3f98 <send_led_strip_byte35>
    3f8a:	01 90       	ld	r0, Z+
    3f8c:	01 90       	ld	r0, Z+
    3f8e:	01 90       	ld	r0, Z+
    3f90:	03 d0       	rcall	.+6      	; 0x3f98 <send_led_strip_byte35>
    3f92:	01 90       	ld	r0, Z+
    3f94:	01 d0       	rcall	.+2      	; 0x3f98 <send_led_strip_byte35>
    3f96:	15 c0       	rjmp	.+42     	; 0x3fc2 <led_strip_asm_end35>

00003f98 <send_led_strip_byte35>:
    3f98:	08 d0       	rcall	.+16     	; 0x3faa <send_led_strip_bit35>
    3f9a:	07 d0       	rcall	.+14     	; 0x3faa <send_led_strip_bit35>
    3f9c:	06 d0       	rcall	.+12     	; 0x3faa <send_led_strip_bit35>
    3f9e:	05 d0       	rcall	.+10     	; 0x3faa <send_led_strip_bit35>
    3fa0:	04 d0       	rcall	.+8      	; 0x3faa <send_led_strip_bit35>
    3fa2:	03 d0       	rcall	.+6      	; 0x3faa <send_led_strip_bit35>
    3fa4:	02 d0       	rcall	.+4      	; 0x3faa <send_led_strip_bit35>
    3fa6:	01 d0       	rcall	.+2      	; 0x3faa <send_led_strip_bit35>
    3fa8:	08 95       	ret

00003faa <send_led_strip_bit35>:
    3faa:	00 1c       	adc	r0, r0
    3fac:	90 93 38 00 	sts	0x0038, r25	; 0x800038 <__TEXT_REGION_LENGTH__+0x7f0038>
    3fb0:	10 f0       	brcs	.+4      	; 0x3fb6 <send_led_strip_bit35+0xc>
    3fb2:	80 93 38 00 	sts	0x0038, r24	; 0x800038 <__TEXT_REGION_LENGTH__+0x7f0038>
    3fb6:	00 00       	nop
    3fb8:	00 00       	nop
    3fba:	10 f4       	brcc	.+4      	; 0x3fc0 <send_led_strip_bit35+0x16>
    3fbc:	80 93 38 00 	sts	0x0038, r24	; 0x800038 <__TEXT_REGION_LENGTH__+0x7f0038>
    3fc0:	08 95       	ret

00003fc2 <led_strip_asm_end35>:
{
	RINGLED_PORT &= ~(1 << RINGLED_DQ);
	RINGLED_DDR  |= (1 << RINGLED_DQ);
	
	cli();   // Disable interrupts temporarily because we don't want our pulse timing to be messed up.
	while (pixels--)
    3fc2:	21 50       	subi	r18, 0x01	; 1
    3fc4:	08 f0       	brcs	.+2      	; 0x3fc8 <led_strip_asm_end35+0x6>
    3fc6:	d8 cf       	rjmp	.-80     	; 0x3f78 <ringled_show+0x12>
		"" (&RINGLED_PORT),   // %2 is the port register (e.g. PORTH)
		"r" ((uint8_t)(portValue & ~(1 << RINGLED_DQ))),  // %3
		"r" ((uint8_t)(portValue | (1 << RINGLED_DQ)))    // %4
		);
	}
	sei();          // Re-enable interrupts now that we are done.
    3fc8:	78 94       	sei
    3fca:	08 95       	ret

00003fcc <ringled_clear>:
}


void ringled_clear(void)
{
    3fcc:	80 e0       	ldi	r24, 0x00	; 0
    3fce:	90 e0       	ldi	r25, 0x00	; 0
	for (uint8_t i = 0; i < LED_COUNT; i++)
	colorMap[i] = (rgbw_color){0, 0, 0, 0};
    3fd0:	fc 01       	movw	r30, r24
    3fd2:	ee 0f       	add	r30, r30
    3fd4:	ff 1f       	adc	r31, r31
    3fd6:	ee 0f       	add	r30, r30
    3fd8:	ff 1f       	adc	r31, r31
    3fda:	e6 57       	subi	r30, 0x76	; 118
    3fdc:	f4 4f       	sbci	r31, 0xF4	; 244
    3fde:	10 82       	st	Z, r1
    3fe0:	11 82       	std	Z+1, r1	; 0x01
    3fe2:	12 82       	std	Z+2, r1	; 0x02
    3fe4:	13 82       	std	Z+3, r1	; 0x03
    3fe6:	01 96       	adiw	r24, 0x01	; 1
}


void ringled_clear(void)
{
	for (uint8_t i = 0; i < LED_COUNT; i++)
    3fe8:	8a 30       	cpi	r24, 0x0A	; 10
    3fea:	91 05       	cpc	r25, r1
    3fec:	89 f7       	brne	.-30     	; 0x3fd0 <ringled_clear+0x4>
	colorMap[i] = (rgbw_color){0, 0, 0, 0};
}
    3fee:	08 95       	ret

00003ff0 <ringled_init>:

rgbw_color status_rgbw_color;

void ringled_init(void)
{
	ringled_clear();
    3ff0:	0e 94 e6 1f 	call	0x3fcc	; 0x3fcc <ringled_clear>
	ringled_show(colorMap, LED_COUNT);
    3ff4:	6a e0       	ldi	r22, 0x0A	; 10
    3ff6:	8a e8       	ldi	r24, 0x8A	; 138
    3ff8:	9b e0       	ldi	r25, 0x0B	; 11
    3ffa:	0e 94 b3 1f 	call	0x3f66	; 0x3f66 <ringled_show>
    3ffe:	08 95       	ret

00004000 <ringled_set_RGBW>:
	colorMap[i] = (rgbw_color){0, 0, 0, 0};
}

void ringled_set_RGBW(uint8_t red, uint8_t green, uint8_t blue, uint8_t white)
{
	status_rgbw_color = (rgbw_color){red, green, blue, white};
    4000:	e4 e5       	ldi	r30, 0x54	; 84
    4002:	fd e0       	ldi	r31, 0x0D	; 13
    4004:	80 83       	st	Z, r24
    4006:	61 83       	std	Z+1, r22	; 0x01
    4008:	42 83       	std	Z+2, r20	; 0x02
    400a:	23 83       	std	Z+3, r18	; 0x03
    400c:	ea e8       	ldi	r30, 0x8A	; 138
    400e:	fb e0       	ldi	r31, 0x0B	; 11
    4010:	a2 eb       	ldi	r26, 0xB2	; 178
    4012:	bb e0       	ldi	r27, 0x0B	; 11
	for (uint8_t i = 0; i < LED_COUNT; i++)
		colorMap[i] = (rgbw_color){red, green, blue, white};
    4014:	80 83       	st	Z, r24
    4016:	61 83       	std	Z+1, r22	; 0x01
    4018:	42 83       	std	Z+2, r20	; 0x02
    401a:	23 83       	std	Z+3, r18	; 0x03
    401c:	34 96       	adiw	r30, 0x04	; 4
}

void ringled_set_RGBW(uint8_t red, uint8_t green, uint8_t blue, uint8_t white)
{
	status_rgbw_color = (rgbw_color){red, green, blue, white};
	for (uint8_t i = 0; i < LED_COUNT; i++)
    401e:	ea 17       	cp	r30, r26
    4020:	fb 07       	cpc	r31, r27
    4022:	c1 f7       	brne	.-16     	; 0x4014 <ringled_set_RGBW+0x14>
		colorMap[i] = (rgbw_color){red, green, blue, white};
	ringled_show(colorMap, LED_COUNT);
    4024:	6a e0       	ldi	r22, 0x0A	; 10
    4026:	8a e8       	ldi	r24, 0x8A	; 138
    4028:	9b e0       	ldi	r25, 0x0B	; 11
    402a:	0e 94 b3 1f 	call	0x3f66	; 0x3f66 <ringled_show>
    402e:	08 95       	ret

00004030 <ringled_get_RGBW>:
}

rgbw_color ringled_get_RGBW(void)
{
	return status_rgbw_color;
    4030:	60 91 54 0d 	lds	r22, 0x0D54	; 0x800d54 <status_rgbw_color>
    4034:	70 91 55 0d 	lds	r23, 0x0D55	; 0x800d55 <status_rgbw_color+0x1>
    4038:	80 91 56 0d 	lds	r24, 0x0D56	; 0x800d56 <status_rgbw_color+0x2>
    403c:	90 91 57 0d 	lds	r25, 0x0D57	; 0x800d57 <status_rgbw_color+0x3>
    4040:	08 95       	ret

00004042 <TEC_init>:
#include "TEC.h"
#include <avr/io.h>
#include "IOU_board.h"
void	TEC_init(void)
{
	TEC_SHUTDOWN_TEC0_DDR |= (1<< TEC_SHUTDOWN_TEC0_PIN);
    4042:	e4 e6       	ldi	r30, 0x64	; 100
    4044:	f0 e0       	ldi	r31, 0x00	; 0
    4046:	80 81       	ld	r24, Z
    4048:	81 60       	ori	r24, 0x01	; 1
    404a:	80 83       	st	Z, r24
	TEC_SHUTDOWN_TEC1_DDR |= (1<< TEC_SHUTDOWN_TEC1_PIN);
    404c:	d7 9a       	sbi	0x1a, 7	; 26
	TEC_SHUTDOWN_TEC2_DDR |= (1<< TEC_SHUTDOWN_TEC2_PIN);
    404e:	d4 9a       	sbi	0x1a, 4	; 26
	TEC_SHUTDOWN_TEC3_DDR |= (1<< TEC_SHUTDOWN_TEC3_PIN);
    4050:	a6 9a       	sbi	0x14, 6	; 20
    4052:	08 95       	ret

00004054 <TEC_enable>:
}

uint8_t	TEC_enable(uint8_t	TEC_device)
{
	switch (TEC_device)
    4054:	81 30       	cpi	r24, 0x01	; 1
    4056:	69 f0       	breq	.+26     	; 0x4072 <TEC_enable+0x1e>
    4058:	28 f0       	brcs	.+10     	; 0x4064 <TEC_enable+0x10>
    405a:	82 30       	cpi	r24, 0x02	; 2
    405c:	69 f0       	breq	.+26     	; 0x4078 <TEC_enable+0x24>
    405e:	83 30       	cpi	r24, 0x03	; 3
    4060:	71 f0       	breq	.+28     	; 0x407e <TEC_enable+0x2a>
    4062:	10 c0       	rjmp	.+32     	; 0x4084 <TEC_enable+0x30>
	{
		case 0:
			TEC_SHUTDOWN_TEC0_PORT |= (1<< TEC_SHUTDOWN_TEC0_PIN);
    4064:	e5 e6       	ldi	r30, 0x65	; 101
    4066:	f0 e0       	ldi	r31, 0x00	; 0
    4068:	80 81       	ld	r24, Z
    406a:	81 60       	ori	r24, 0x01	; 1
    406c:	80 83       	st	Z, r24
			return 0;
    406e:	80 e0       	ldi	r24, 0x00	; 0
    4070:	08 95       	ret
		case 1:
			TEC_SHUTDOWN_TEC1_PORT |= (1<< TEC_SHUTDOWN_TEC1_PIN);
    4072:	df 9a       	sbi	0x1b, 7	; 27
			return	0;
    4074:	80 e0       	ldi	r24, 0x00	; 0
    4076:	08 95       	ret
		case 2:
			TEC_SHUTDOWN_TEC2_PORT |= (1<< TEC_SHUTDOWN_TEC2_PIN);
    4078:	dc 9a       	sbi	0x1b, 4	; 27
			return 0;
    407a:	80 e0       	ldi	r24, 0x00	; 0
    407c:	08 95       	ret
		case 3:
			TEC_SHUTDOWN_TEC3_PORT |= (1<< TEC_SHUTDOWN_TEC3_PIN);
    407e:	ae 9a       	sbi	0x15, 6	; 21
			return 0;
    4080:	80 e0       	ldi	r24, 0x00	; 0
    4082:	08 95       	ret
		default:
			return 1;
    4084:	81 e0       	ldi	r24, 0x01	; 1
	}
}
    4086:	08 95       	ret

00004088 <TEC_shutdown>:
	
uint8_t	TEC_shutdown(uint8_t	TEC_device)
{
	switch (TEC_device)
    4088:	81 30       	cpi	r24, 0x01	; 1
    408a:	69 f0       	breq	.+26     	; 0x40a6 <TEC_shutdown+0x1e>
    408c:	28 f0       	brcs	.+10     	; 0x4098 <TEC_shutdown+0x10>
    408e:	82 30       	cpi	r24, 0x02	; 2
    4090:	69 f0       	breq	.+26     	; 0x40ac <TEC_shutdown+0x24>
    4092:	83 30       	cpi	r24, 0x03	; 3
    4094:	71 f0       	breq	.+28     	; 0x40b2 <TEC_shutdown+0x2a>
    4096:	10 c0       	rjmp	.+32     	; 0x40b8 <TEC_shutdown+0x30>
	{
		case 0:
			TEC_SHUTDOWN_TEC0_PORT &= ~(1<< TEC_SHUTDOWN_TEC0_PIN);
    4098:	e5 e6       	ldi	r30, 0x65	; 101
    409a:	f0 e0       	ldi	r31, 0x00	; 0
    409c:	80 81       	ld	r24, Z
    409e:	8e 7f       	andi	r24, 0xFE	; 254
    40a0:	80 83       	st	Z, r24
			return 0;
    40a2:	80 e0       	ldi	r24, 0x00	; 0
    40a4:	08 95       	ret
		case 1:
			TEC_SHUTDOWN_TEC1_PORT &= ~(1<< TEC_SHUTDOWN_TEC1_PIN);
    40a6:	df 98       	cbi	0x1b, 7	; 27
			return	0;
    40a8:	80 e0       	ldi	r24, 0x00	; 0
    40aa:	08 95       	ret
		case 2:
			TEC_SHUTDOWN_TEC2_PORT &= ~(1<< TEC_SHUTDOWN_TEC2_PIN);
    40ac:	dc 98       	cbi	0x1b, 4	; 27
			return 0;
    40ae:	80 e0       	ldi	r24, 0x00	; 0
    40b0:	08 95       	ret
		case 3:
			TEC_SHUTDOWN_TEC3_PORT &= ~(1<< TEC_SHUTDOWN_TEC3_PIN);
    40b2:	ae 98       	cbi	0x15, 6	; 21
			return 0;
    40b4:	80 e0       	ldi	r24, 0x00	; 0
    40b6:	08 95       	ret
		default:
			return 1;
    40b8:	81 e0       	ldi	r24, 0x01	; 1
	}
    40ba:	08 95       	ret

000040bc <TPL5010_init>:
#include <avr/io.h>
#include "TPL5010.h"
#include "IOU_board.h"
void	TPL5010_init (void)
{
	TPL5010_DONE_DDR |=  (1 << TPL5010_DONE_PIN);	//done is output
    40bc:	12 9a       	sbi	0x02, 2	; 2
	TPL5010_WAKE_DDR &= ~(1 << TPL5010_WAKE_PIN);	//wake is input
    40be:	16 98       	cbi	0x02, 6	; 2
	TPL5010_WAKE_PORT |=  (1 << TPL5010_WAKE_PIN);	//pull up Wake
    40c0:	1e 9a       	sbi	0x03, 6	; 3
	TPL5010_DONE_PORT	&= ~(1 << TPL5010_DONE_PIN);	//init as 0
    40c2:	1a 98       	cbi	0x03, 2	; 3
    40c4:	08 95       	ret

000040c6 <TPL5010_done_pulse>:
	return;
};
void	TPL5010_done_pulse (void)
{
	
	TPL5010_DONE_PORT	|= (1 << TPL5010_DONE_PIN);
    40c6:	1a 9a       	sbi	0x03, 2	; 3
	TPL5010_DONE_PORT	&= ~(1 << TPL5010_DONE_PIN);
    40c8:	1a 98       	cbi	0x03, 2	; 3
    40ca:	08 95       	ret

000040cc <SCH_Initialize>:
    40cc:	10 92 59 0d 	sts	0x0D59, r1	; 0x800d59 <s_SystemTick+0x1>
    40d0:	10 92 58 0d 	sts	0x0D58, r1	; 0x800d58 <s_SystemTick>
    40d4:	10 92 4c 0b 	sts	0x0B4C, r1	; 0x800b4c <s_NumOfTaskScheduled>
    40d8:	10 92 2d 0b 	sts	0x0B2D, r1	; 0x800b2d <s_NumOfTimers>
    40dc:	8c e3       	ldi	r24, 0x3C	; 60
    40de:	ed e4       	ldi	r30, 0x4D	; 77
    40e0:	fb e0       	ldi	r31, 0x0B	; 11
    40e2:	df 01       	movw	r26, r30
    40e4:	1d 92       	st	X+, r1
    40e6:	8a 95       	dec	r24
    40e8:	e9 f7       	brne	.-6      	; 0x40e4 <SCH_Initialize+0x18>
    40ea:	8e e1       	ldi	r24, 0x1E	; 30
    40ec:	ee e2       	ldi	r30, 0x2E	; 46
    40ee:	fb e0       	ldi	r31, 0x0B	; 11
    40f0:	df 01       	movw	r26, r30
    40f2:	1d 92       	st	X+, r1
    40f4:	8a 95       	dec	r24
    40f6:	e9 f7       	brne	.-6      	; 0x40f2 <SCH_Initialize+0x26>
    40f8:	88 e0       	ldi	r24, 0x08	; 8
    40fa:	ea e5       	ldi	r30, 0x5A	; 90
    40fc:	fd e0       	ldi	r31, 0x0D	; 13
    40fe:	df 01       	movw	r26, r30
    4100:	1d 92       	st	X+, r1
    4102:	8a 95       	dec	r24
    4104:	e9 f7       	brne	.-6      	; 0x4100 <SCH_Initialize+0x34>
    4106:	0e 94 40 18 	call	0x3080	; 0x3080 <timer_timer0_init>
    410a:	08 95       	ret

0000410c <SCH_TIM_Start>:
    410c:	82 30       	cpi	r24, 0x02	; 2
    410e:	40 f4       	brcc	.+16     	; 0x4120 <SCH_TIM_Start+0x14>
    4110:	e8 2f       	mov	r30, r24
    4112:	f0 e0       	ldi	r31, 0x00	; 0
    4114:	ee 0f       	add	r30, r30
    4116:	ff 1f       	adc	r31, r31
    4118:	e6 5a       	subi	r30, 0xA6	; 166
    411a:	f2 4f       	sbci	r31, 0xF2	; 242
    411c:	51 83       	std	Z+1, r21	; 0x01
    411e:	40 83       	st	Z, r20
    4120:	08 95       	ret

00004122 <SCH_TIM_HasCompleted>:
    4122:	e8 2f       	mov	r30, r24
    4124:	f0 e0       	ldi	r31, 0x00	; 0
    4126:	ee 0f       	add	r30, r30
    4128:	ff 1f       	adc	r31, r31
    412a:	e6 5a       	subi	r30, 0xA6	; 166
    412c:	f2 4f       	sbci	r31, 0xF2	; 242
    412e:	20 81       	ld	r18, Z
    4130:	31 81       	ldd	r19, Z+1	; 0x01
    4132:	81 e0       	ldi	r24, 0x01	; 1
    4134:	23 2b       	or	r18, r19
    4136:	09 f0       	breq	.+2      	; 0x413a <SCH_TIM_HasCompleted+0x18>
    4138:	80 e0       	ldi	r24, 0x00	; 0
    413a:	08 95       	ret

0000413c <SCH_TASK_CreateTask>:
    413c:	cf 93       	push	r28
    413e:	df 93       	push	r29
    4140:	ec 01       	movw	r28, r24
    4142:	89 2b       	or	r24, r25
    4144:	39 f1       	breq	.+78     	; 0x4194 <SCH_TASK_CreateTask+0x58>
    4146:	61 15       	cp	r22, r1
    4148:	71 05       	cpc	r23, r1
    414a:	31 f1       	breq	.+76     	; 0x4198 <SCH_TASK_CreateTask+0x5c>
    414c:	90 91 4c 0b 	lds	r25, 0x0B4C	; 0x800b4c <s_NumOfTaskScheduled>
    4150:	99 30       	cpi	r25, 0x09	; 9
    4152:	20 f5       	brcc	.+72     	; 0x419c <SCH_TASK_CreateTask+0x60>
    4154:	29 2f       	mov	r18, r25
    4156:	30 e0       	ldi	r19, 0x00	; 0
    4158:	f9 01       	movw	r30, r18
    415a:	ee 0f       	add	r30, r30
    415c:	ff 1f       	adc	r31, r31
    415e:	df 01       	movw	r26, r30
    4160:	a2 0f       	add	r26, r18
    4162:	b3 1f       	adc	r27, r19
    4164:	aa 0f       	add	r26, r26
    4166:	bb 1f       	adc	r27, r27
    4168:	a3 5b       	subi	r26, 0xB3	; 179
    416a:	b4 4f       	sbci	r27, 0xF4	; 244
    416c:	15 96       	adiw	r26, 0x05	; 5
    416e:	7c 93       	st	X, r23
    4170:	6e 93       	st	-X, r22
    4172:	14 97       	sbiw	r26, 0x04	; 4
    4174:	11 96       	adiw	r26, 0x01	; 1
    4176:	1c 92       	st	X, r1
    4178:	11 97       	sbiw	r26, 0x01	; 1
    417a:	13 96       	adiw	r26, 0x03	; 3
    417c:	1c 92       	st	X, r1
    417e:	1e 92       	st	-X, r1
    4180:	12 97       	sbiw	r26, 0x02	; 2
    4182:	fd 01       	movw	r30, r26
    4184:	81 e0       	ldi	r24, 0x01	; 1
    4186:	80 83       	st	Z, r24
    4188:	98 83       	st	Y, r25
    418a:	9f 5f       	subi	r25, 0xFF	; 255
    418c:	90 93 4c 0b 	sts	0x0B4C, r25	; 0x800b4c <s_NumOfTaskScheduled>
    4190:	80 e0       	ldi	r24, 0x00	; 0
    4192:	05 c0       	rjmp	.+10     	; 0x419e <SCH_TASK_CreateTask+0x62>
    4194:	81 e0       	ldi	r24, 0x01	; 1
    4196:	03 c0       	rjmp	.+6      	; 0x419e <SCH_TASK_CreateTask+0x62>
    4198:	81 e0       	ldi	r24, 0x01	; 1
    419a:	01 c0       	rjmp	.+2      	; 0x419e <SCH_TASK_CreateTask+0x62>
    419c:	81 e0       	ldi	r24, 0x01	; 1
    419e:	df 91       	pop	r29
    41a0:	cf 91       	pop	r28
    41a2:	08 95       	ret

000041a4 <SCH_TIM_CreateTimer>:
    41a4:	cf 93       	push	r28
    41a6:	df 93       	push	r29
    41a8:	ec 01       	movw	r28, r24
    41aa:	89 2b       	or	r24, r25
    41ac:	21 f1       	breq	.+72     	; 0x41f6 <SCH_TIM_CreateTimer+0x52>
    41ae:	61 15       	cp	r22, r1
    41b0:	71 05       	cpc	r23, r1
    41b2:	19 f1       	breq	.+70     	; 0x41fa <SCH_TIM_CreateTimer+0x56>
    41b4:	90 91 2d 0b 	lds	r25, 0x0B2D	; 0x800b2d <s_NumOfTimers>
    41b8:	94 30       	cpi	r25, 0x04	; 4
    41ba:	08 f5       	brcc	.+66     	; 0x41fe <SCH_TIM_CreateTimer+0x5a>
    41bc:	29 2f       	mov	r18, r25
    41be:	30 e0       	ldi	r19, 0x00	; 0
    41c0:	f9 01       	movw	r30, r18
    41c2:	ee 0f       	add	r30, r30
    41c4:	ff 1f       	adc	r31, r31
    41c6:	df 01       	movw	r26, r30
    41c8:	a2 0f       	add	r26, r18
    41ca:	b3 1f       	adc	r27, r19
    41cc:	aa 0f       	add	r26, r26
    41ce:	bb 1f       	adc	r27, r27
    41d0:	a2 5d       	subi	r26, 0xD2	; 210
    41d2:	b4 4f       	sbci	r27, 0xF4	; 244
    41d4:	15 96       	adiw	r26, 0x05	; 5
    41d6:	7c 93       	st	X, r23
    41d8:	6e 93       	st	-X, r22
    41da:	14 97       	sbiw	r26, 0x04	; 4
    41dc:	1c 92       	st	X, r1
    41de:	11 96       	adiw	r26, 0x01	; 1
    41e0:	1c 92       	st	X, r1
    41e2:	11 97       	sbiw	r26, 0x01	; 1
    41e4:	fd 01       	movw	r30, r26
    41e6:	13 82       	std	Z+3, r1	; 0x03
    41e8:	12 82       	std	Z+2, r1	; 0x02
    41ea:	98 83       	st	Y, r25
    41ec:	9f 5f       	subi	r25, 0xFF	; 255
    41ee:	90 93 2d 0b 	sts	0x0B2D, r25	; 0x800b2d <s_NumOfTimers>
    41f2:	80 e0       	ldi	r24, 0x00	; 0
    41f4:	05 c0       	rjmp	.+10     	; 0x4200 <SCH_TIM_CreateTimer+0x5c>
    41f6:	81 e0       	ldi	r24, 0x01	; 1
    41f8:	03 c0       	rjmp	.+6      	; 0x4200 <SCH_TIM_CreateTimer+0x5c>
    41fa:	81 e0       	ldi	r24, 0x01	; 1
    41fc:	01 c0       	rjmp	.+2      	; 0x4200 <SCH_TIM_CreateTimer+0x5c>
    41fe:	81 e0       	ldi	r24, 0x01	; 1
    4200:	df 91       	pop	r29
    4202:	cf 91       	pop	r28
    4204:	08 95       	ret

00004206 <SCH_TIM_RestartTimer>:
    4206:	90 91 2d 0b 	lds	r25, 0x0B2D	; 0x800b2d <s_NumOfTimers>
    420a:	89 17       	cp	r24, r25
    420c:	a0 f4       	brcc	.+40     	; 0x4236 <SCH_TIM_RestartTimer+0x30>
    420e:	90 e0       	ldi	r25, 0x00	; 0
    4210:	fc 01       	movw	r30, r24
    4212:	ee 0f       	add	r30, r30
    4214:	ff 1f       	adc	r31, r31
    4216:	df 01       	movw	r26, r30
    4218:	a8 0f       	add	r26, r24
    421a:	b9 1f       	adc	r27, r25
    421c:	aa 0f       	add	r26, r26
    421e:	bb 1f       	adc	r27, r27
    4220:	a2 5d       	subi	r26, 0xD2	; 210
    4222:	b4 4f       	sbci	r27, 0xF4	; 244
    4224:	13 96       	adiw	r26, 0x03	; 3
    4226:	1c 92       	st	X, r1
    4228:	1e 92       	st	-X, r1
    422a:	12 97       	sbiw	r26, 0x02	; 2
    422c:	fd 01       	movw	r30, r26
    422e:	81 e0       	ldi	r24, 0x01	; 1
    4230:	80 83       	st	Z, r24
    4232:	80 e0       	ldi	r24, 0x00	; 0
    4234:	08 95       	ret
    4236:	81 e0       	ldi	r24, 0x01	; 1
    4238:	08 95       	ret

0000423a <SCH_RunSystemTickTimer>:
    423a:	1f 93       	push	r17
    423c:	cf 93       	push	r28
    423e:	df 93       	push	r29
    4240:	80 91 58 0d 	lds	r24, 0x0D58	; 0x800d58 <s_SystemTick>
    4244:	90 91 59 0d 	lds	r25, 0x0D59	; 0x800d59 <s_SystemTick+0x1>
    4248:	01 96       	adiw	r24, 0x01	; 1
    424a:	90 93 59 0d 	sts	0x0D59, r25	; 0x800d59 <s_SystemTick+0x1>
    424e:	80 93 58 0d 	sts	0x0D58, r24	; 0x800d58 <s_SystemTick>
    4252:	80 91 4c 0b 	lds	r24, 0x0B4C	; 0x800b4c <s_NumOfTaskScheduled>
    4256:	88 23       	and	r24, r24
    4258:	59 f1       	breq	.+86     	; 0x42b0 <SCH_RunSystemTickTimer+0x76>
    425a:	ed e4       	ldi	r30, 0x4D	; 77
    425c:	fb e0       	ldi	r31, 0x0B	; 11
    425e:	81 50       	subi	r24, 0x01	; 1
    4260:	90 e0       	ldi	r25, 0x00	; 0
    4262:	01 96       	adiw	r24, 0x01	; 1
    4264:	9c 01       	movw	r18, r24
    4266:	22 0f       	add	r18, r18
    4268:	33 1f       	adc	r19, r19
    426a:	82 0f       	add	r24, r18
    426c:	93 1f       	adc	r25, r19
    426e:	88 0f       	add	r24, r24
    4270:	99 1f       	adc	r25, r25
    4272:	83 5b       	subi	r24, 0xB3	; 179
    4274:	94 4f       	sbci	r25, 0xF4	; 244
    4276:	61 e0       	ldi	r22, 0x01	; 1
    4278:	a4 81       	ldd	r26, Z+4	; 0x04
    427a:	b5 81       	ldd	r27, Z+5	; 0x05
    427c:	2c 91       	ld	r18, X
    427e:	21 30       	cpi	r18, 0x01	; 1
    4280:	99 f4       	brne	.+38     	; 0x42a8 <SCH_RunSystemTickTimer+0x6e>
    4282:	20 81       	ld	r18, Z
    4284:	21 30       	cpi	r18, 0x01	; 1
    4286:	81 f4       	brne	.+32     	; 0x42a8 <SCH_RunSystemTickTimer+0x6e>
    4288:	22 81       	ldd	r18, Z+2	; 0x02
    428a:	33 81       	ldd	r19, Z+3	; 0x03
    428c:	2f 5f       	subi	r18, 0xFF	; 255
    428e:	3f 4f       	sbci	r19, 0xFF	; 255
    4290:	33 83       	std	Z+3, r19	; 0x03
    4292:	22 83       	std	Z+2, r18	; 0x02
    4294:	12 96       	adiw	r26, 0x02	; 2
    4296:	4d 91       	ld	r20, X+
    4298:	5c 91       	ld	r21, X
    429a:	13 97       	sbiw	r26, 0x03	; 3
    429c:	24 17       	cp	r18, r20
    429e:	35 07       	cpc	r19, r21
    42a0:	18 f0       	brcs	.+6      	; 0x42a8 <SCH_RunSystemTickTimer+0x6e>
    42a2:	13 82       	std	Z+3, r1	; 0x03
    42a4:	12 82       	std	Z+2, r1	; 0x02
    42a6:	61 83       	std	Z+1, r22	; 0x01
    42a8:	36 96       	adiw	r30, 0x06	; 6
    42aa:	e8 17       	cp	r30, r24
    42ac:	f9 07       	cpc	r31, r25
    42ae:	21 f7       	brne	.-56     	; 0x4278 <SCH_RunSystemTickTimer+0x3e>
    42b0:	40 91 2d 0b 	lds	r20, 0x0B2D	; 0x800b2d <s_NumOfTimers>
    42b4:	44 23       	and	r20, r20
    42b6:	61 f1       	breq	.+88     	; 0x4310 <SCH_RunSystemTickTimer+0xd6>
    42b8:	ee e2       	ldi	r30, 0x2E	; 46
    42ba:	fb e0       	ldi	r31, 0x0B	; 11
    42bc:	80 e0       	ldi	r24, 0x00	; 0
    42be:	51 e0       	ldi	r21, 0x01	; 1
    42c0:	10 e0       	ldi	r17, 0x00	; 0
    42c2:	df 01       	movw	r26, r30
    42c4:	90 81       	ld	r25, Z
    42c6:	91 30       	cpi	r25, 0x01	; 1
    42c8:	b1 f4       	brne	.+44     	; 0x42f6 <SCH_RunSystemTickTimer+0xbc>
    42ca:	22 81       	ldd	r18, Z+2	; 0x02
    42cc:	33 81       	ldd	r19, Z+3	; 0x03
    42ce:	2f 5f       	subi	r18, 0xFF	; 255
    42d0:	3f 4f       	sbci	r19, 0xFF	; 255
    42d2:	33 83       	std	Z+3, r19	; 0x03
    42d4:	22 83       	std	Z+2, r18	; 0x02
    42d6:	c4 81       	ldd	r28, Z+4	; 0x04
    42d8:	d5 81       	ldd	r29, Z+5	; 0x05
    42da:	69 81       	ldd	r22, Y+1	; 0x01
    42dc:	7a 81       	ldd	r23, Y+2	; 0x02
    42de:	26 17       	cp	r18, r22
    42e0:	37 07       	cpc	r19, r23
    42e2:	48 f0       	brcs	.+18     	; 0x42f6 <SCH_RunSystemTickTimer+0xbc>
    42e4:	51 83       	std	Z+1, r21	; 0x01
    42e6:	13 82       	std	Z+3, r1	; 0x03
    42e8:	12 82       	std	Z+2, r1	; 0x02
    42ea:	95 2f       	mov	r25, r21
    42ec:	28 81       	ld	r18, Y
    42ee:	22 30       	cpi	r18, 0x02	; 2
    42f0:	09 f0       	breq	.+2      	; 0x42f4 <SCH_RunSystemTickTimer+0xba>
    42f2:	91 2f       	mov	r25, r17
    42f4:	9c 93       	st	X, r25
    42f6:	8f 5f       	subi	r24, 0xFF	; 255
    42f8:	36 96       	adiw	r30, 0x06	; 6
    42fa:	84 13       	cpse	r24, r20
    42fc:	e2 cf       	rjmp	.-60     	; 0x42c2 <SCH_RunSystemTickTimer+0x88>
    42fe:	08 c0       	rjmp	.+16     	; 0x4310 <SCH_RunSystemTickTimer+0xd6>
    4300:	ea e5       	ldi	r30, 0x5A	; 90
    4302:	fd e0       	ldi	r31, 0x0D	; 13
    4304:	82 81       	ldd	r24, Z+2	; 0x02
    4306:	93 81       	ldd	r25, Z+3	; 0x03
    4308:	01 97       	sbiw	r24, 0x01	; 1
    430a:	93 83       	std	Z+3, r25	; 0x03
    430c:	82 83       	std	Z+2, r24	; 0x02
    430e:	13 c0       	rjmp	.+38     	; 0x4336 <SCH_RunSystemTickTimer+0xfc>
    4310:	80 91 5a 0d 	lds	r24, 0x0D5A	; 0x800d5a <s_SoftTimers>
    4314:	90 91 5b 0d 	lds	r25, 0x0D5B	; 0x800d5b <s_SoftTimers+0x1>
    4318:	89 2b       	or	r24, r25
    431a:	39 f0       	breq	.+14     	; 0x432a <SCH_RunSystemTickTimer+0xf0>
    431c:	ea e5       	ldi	r30, 0x5A	; 90
    431e:	fd e0       	ldi	r31, 0x0D	; 13
    4320:	80 81       	ld	r24, Z
    4322:	91 81       	ldd	r25, Z+1	; 0x01
    4324:	01 97       	sbiw	r24, 0x01	; 1
    4326:	91 83       	std	Z+1, r25	; 0x01
    4328:	80 83       	st	Z, r24
    432a:	80 91 5c 0d 	lds	r24, 0x0D5C	; 0x800d5c <s_SoftTimers+0x2>
    432e:	90 91 5d 0d 	lds	r25, 0x0D5D	; 0x800d5d <s_SoftTimers+0x3>
    4332:	89 2b       	or	r24, r25
    4334:	29 f7       	brne	.-54     	; 0x4300 <SCH_RunSystemTickTimer+0xc6>
    4336:	df 91       	pop	r29
    4338:	cf 91       	pop	r28
    433a:	1f 91       	pop	r17
    433c:	08 95       	ret

0000433e <SCH_StartSchedular>:
    433e:	0e 94 38 18 	call	0x3070	; 0x3070 <timer_start_timer0>
    4342:	08 95       	ret

00004344 <SCH_HandleScheduledTask>:
    4344:	cf 93       	push	r28
    4346:	80 91 4c 0b 	lds	r24, 0x0B4C	; 0x800b4c <s_NumOfTaskScheduled>
    434a:	88 23       	and	r24, r24
    434c:	b9 f1       	breq	.+110    	; 0x43bc <SCH_HandleScheduledTask+0x78>
    434e:	c0 e0       	ldi	r28, 0x00	; 0
    4350:	8c 2f       	mov	r24, r28
    4352:	90 e0       	ldi	r25, 0x00	; 0
    4354:	fc 01       	movw	r30, r24
    4356:	ee 0f       	add	r30, r30
    4358:	ff 1f       	adc	r31, r31
    435a:	e8 0f       	add	r30, r24
    435c:	f9 1f       	adc	r31, r25
    435e:	ee 0f       	add	r30, r30
    4360:	ff 1f       	adc	r31, r31
    4362:	e3 5b       	subi	r30, 0xB3	; 179
    4364:	f4 4f       	sbci	r31, 0xF4	; 244
    4366:	21 81       	ldd	r18, Z+1	; 0x01
    4368:	21 30       	cpi	r18, 0x01	; 1
    436a:	19 f5       	brne	.+70     	; 0x43b2 <SCH_HandleScheduledTask+0x6e>
    436c:	fc 01       	movw	r30, r24
    436e:	ee 0f       	add	r30, r30
    4370:	ff 1f       	adc	r31, r31
    4372:	e8 0f       	add	r30, r24
    4374:	f9 1f       	adc	r31, r25
    4376:	ee 0f       	add	r30, r30
    4378:	ff 1f       	adc	r31, r31
    437a:	e3 5b       	subi	r30, 0xB3	; 179
    437c:	f4 4f       	sbci	r31, 0xF4	; 244
    437e:	20 81       	ld	r18, Z
    4380:	21 30       	cpi	r18, 0x01	; 1
    4382:	b9 f4       	brne	.+46     	; 0x43b2 <SCH_HandleScheduledTask+0x6e>
    4384:	fc 01       	movw	r30, r24
    4386:	ee 0f       	add	r30, r30
    4388:	ff 1f       	adc	r31, r31
    438a:	df 01       	movw	r26, r30
    438c:	a8 0f       	add	r26, r24
    438e:	b9 1f       	adc	r27, r25
    4390:	aa 0f       	add	r26, r26
    4392:	bb 1f       	adc	r27, r27
    4394:	a3 5b       	subi	r26, 0xB3	; 179
    4396:	b4 4f       	sbci	r27, 0xF4	; 244
    4398:	11 96       	adiw	r26, 0x01	; 1
    439a:	1c 92       	st	X, r1
    439c:	11 97       	sbiw	r26, 0x01	; 1
    439e:	fd 01       	movw	r30, r26
    43a0:	04 80       	ldd	r0, Z+4	; 0x04
    43a2:	f5 81       	ldd	r31, Z+5	; 0x05
    43a4:	e0 2d       	mov	r30, r0
    43a6:	04 80       	ldd	r0, Z+4	; 0x04
    43a8:	f5 81       	ldd	r31, Z+5	; 0x05
    43aa:	e0 2d       	mov	r30, r0
    43ac:	30 97       	sbiw	r30, 0x00	; 0
    43ae:	09 f0       	breq	.+2      	; 0x43b2 <SCH_HandleScheduledTask+0x6e>
    43b0:	09 95       	icall
    43b2:	cf 5f       	subi	r28, 0xFF	; 255
    43b4:	80 91 4c 0b 	lds	r24, 0x0B4C	; 0x800b4c <s_NumOfTaskScheduled>
    43b8:	c8 17       	cp	r28, r24
    43ba:	50 f2       	brcs	.-108    	; 0x4350 <SCH_HandleScheduledTask+0xc>
    43bc:	80 91 2d 0b 	lds	r24, 0x0B2D	; 0x800b2d <s_NumOfTimers>
    43c0:	88 23       	and	r24, r24
    43c2:	59 f1       	breq	.+86     	; 0x441a <SCH_HandleScheduledTask+0xd6>
    43c4:	c0 e0       	ldi	r28, 0x00	; 0
    43c6:	8c 2f       	mov	r24, r28
    43c8:	90 e0       	ldi	r25, 0x00	; 0
    43ca:	fc 01       	movw	r30, r24
    43cc:	ee 0f       	add	r30, r30
    43ce:	ff 1f       	adc	r31, r31
    43d0:	e8 0f       	add	r30, r24
    43d2:	f9 1f       	adc	r31, r25
    43d4:	ee 0f       	add	r30, r30
    43d6:	ff 1f       	adc	r31, r31
    43d8:	e2 5d       	subi	r30, 0xD2	; 210
    43da:	f4 4f       	sbci	r31, 0xF4	; 244
    43dc:	21 81       	ldd	r18, Z+1	; 0x01
    43de:	21 30       	cpi	r18, 0x01	; 1
    43e0:	b9 f4       	brne	.+46     	; 0x4410 <SCH_HandleScheduledTask+0xcc>
    43e2:	fc 01       	movw	r30, r24
    43e4:	ee 0f       	add	r30, r30
    43e6:	ff 1f       	adc	r31, r31
    43e8:	df 01       	movw	r26, r30
    43ea:	a8 0f       	add	r26, r24
    43ec:	b9 1f       	adc	r27, r25
    43ee:	aa 0f       	add	r26, r26
    43f0:	bb 1f       	adc	r27, r27
    43f2:	a2 5d       	subi	r26, 0xD2	; 210
    43f4:	b4 4f       	sbci	r27, 0xF4	; 244
    43f6:	11 96       	adiw	r26, 0x01	; 1
    43f8:	1c 92       	st	X, r1
    43fa:	11 97       	sbiw	r26, 0x01	; 1
    43fc:	fd 01       	movw	r30, r26
    43fe:	04 80       	ldd	r0, Z+4	; 0x04
    4400:	f5 81       	ldd	r31, Z+5	; 0x05
    4402:	e0 2d       	mov	r30, r0
    4404:	03 80       	ldd	r0, Z+3	; 0x03
    4406:	f4 81       	ldd	r31, Z+4	; 0x04
    4408:	e0 2d       	mov	r30, r0
    440a:	30 97       	sbiw	r30, 0x00	; 0
    440c:	09 f0       	breq	.+2      	; 0x4410 <SCH_HandleScheduledTask+0xcc>
    440e:	09 95       	icall
    4410:	cf 5f       	subi	r28, 0xFF	; 255
    4412:	80 91 2d 0b 	lds	r24, 0x0B2D	; 0x800b2d <s_NumOfTimers>
    4416:	c8 17       	cp	r28, r24
    4418:	b0 f2       	brcs	.-84     	; 0x43c6 <SCH_HandleScheduledTask+0x82>
    441a:	cf 91       	pop	r28
    441c:	08 95       	ret

0000441e <__vector_15>:
    441e:	1f 92       	push	r1
    4420:	0f 92       	push	r0
    4422:	0f b6       	in	r0, 0x3f	; 63
    4424:	0f 92       	push	r0
    4426:	11 24       	eor	r1, r1
    4428:	2f 93       	push	r18
    442a:	3f 93       	push	r19
    442c:	4f 93       	push	r20
    442e:	5f 93       	push	r21
    4430:	6f 93       	push	r22
    4432:	7f 93       	push	r23
    4434:	8f 93       	push	r24
    4436:	9f 93       	push	r25
    4438:	af 93       	push	r26
    443a:	bf 93       	push	r27
    443c:	ef 93       	push	r30
    443e:	ff 93       	push	r31
    4440:	0e 94 1d 21 	call	0x423a	; 0x423a <SCH_RunSystemTickTimer>
    4444:	ff 91       	pop	r31
    4446:	ef 91       	pop	r30
    4448:	bf 91       	pop	r27
    444a:	af 91       	pop	r26
    444c:	9f 91       	pop	r25
    444e:	8f 91       	pop	r24
    4450:	7f 91       	pop	r23
    4452:	6f 91       	pop	r22
    4454:	5f 91       	pop	r21
    4456:	4f 91       	pop	r20
    4458:	3f 91       	pop	r19
    445a:	2f 91       	pop	r18
    445c:	0f 90       	pop	r0
    445e:	0f be       	out	0x3f, r0	; 63
    4460:	0f 90       	pop	r0
    4462:	1f 90       	pop	r1
    4464:	18 95       	reti

00004466 <crc16_CCITT>:
    4466:	fc 01       	movw	r30, r24
    4468:	5f ef       	ldi	r21, 0xFF	; 255
    446a:	54 0f       	add	r21, r20
    446c:	44 23       	and	r20, r20
    446e:	11 f1       	breq	.+68     	; 0x44b4 <crc16_CCITT+0x4e>
    4470:	a6 2f       	mov	r26, r22
    4472:	b7 2f       	mov	r27, r23
    4474:	2d 91       	ld	r18, X+
    4476:	2f 27       	eor	r18, r31
    4478:	32 2f       	mov	r19, r18
    447a:	32 95       	swap	r19
    447c:	3f 70       	andi	r19, 0x0F	; 15
    447e:	92 2f       	mov	r25, r18
    4480:	93 27       	eor	r25, r19
    4482:	29 2f       	mov	r18, r25
    4484:	30 e0       	ldi	r19, 0x00	; 0
    4486:	fe 2f       	mov	r31, r30
    4488:	ee 27       	eor	r30, r30
    448a:	e2 27       	eor	r30, r18
    448c:	f3 27       	eor	r31, r19
    448e:	c9 01       	movw	r24, r18
    4490:	98 2f       	mov	r25, r24
    4492:	88 27       	eor	r24, r24
    4494:	92 95       	swap	r25
    4496:	90 7f       	andi	r25, 0xF0	; 240
    4498:	e8 27       	eor	r30, r24
    449a:	f9 27       	eor	r31, r25
    449c:	22 0f       	add	r18, r18
    449e:	33 1f       	adc	r19, r19
    44a0:	22 95       	swap	r18
    44a2:	32 95       	swap	r19
    44a4:	30 7f       	andi	r19, 0xF0	; 240
    44a6:	32 27       	eor	r19, r18
    44a8:	20 7f       	andi	r18, 0xF0	; 240
    44aa:	32 27       	eor	r19, r18
    44ac:	e2 27       	eor	r30, r18
    44ae:	f3 27       	eor	r31, r19
    44b0:	51 50       	subi	r21, 0x01	; 1
    44b2:	00 f7       	brcc	.-64     	; 0x4474 <crc16_CCITT+0xe>
    44b4:	cf 01       	movw	r24, r30
    44b6:	08 95       	ret

000044b8 <fsp_init>:
}

void fsp_gen_nack_pkt(uint8_t dst_adr, fsp_packet_t *fsp)
{
	fsp_gen_pkt((void*)0, (void*)0, 0, dst_adr, FSP_PKT_TYPE_NACK, fsp);
}
    44b8:	80 93 5e 0d 	sts	0x0D5E, r24	; 0x800d5e <fsp_my_adr>
    44bc:	10 92 89 0b 	sts	0x0B89, r1	; 0x800b89 <fsp_decode_pos>
    44c0:	08 95       	ret

000044c2 <fsp_gen_pkt>:
    44c2:	ef 92       	push	r14
    44c4:	ff 92       	push	r15
    44c6:	0f 93       	push	r16
    44c8:	cf 93       	push	r28
    44ca:	df 93       	push	r29
    44cc:	e7 01       	movw	r28, r14
    44ce:	3a ec       	ldi	r19, 0xCA	; 202
    44d0:	38 83       	st	Y, r19
    44d2:	30 91 5e 0d 	lds	r19, 0x0D5E	; 0x800d5e <fsp_my_adr>
    44d6:	39 83       	std	Y+1, r19	; 0x01
    44d8:	2a 83       	std	Y+2, r18	; 0x02
    44da:	4b 83       	std	Y+3, r20	; 0x03
    44dc:	0c 83       	std	Y+4, r16	; 0x04
    44de:	2f ee       	ldi	r18, 0xEF	; 239
    44e0:	2a ab       	std	Y+50, r18	; 0x32
    44e2:	00 97       	sbiw	r24, 0x00	; 0
    44e4:	41 f0       	breq	.+16     	; 0x44f6 <fsp_gen_pkt+0x34>
    44e6:	21 e0       	ldi	r18, 0x01	; 1
    44e8:	24 0f       	add	r18, r20
    44ea:	2b 83       	std	Y+3, r18	; 0x03
    44ec:	fc 01       	movw	r30, r24
    44ee:	80 81       	ld	r24, Z
    44f0:	8d 83       	std	Y+5, r24	; 0x05
    44f2:	81 e0       	ldi	r24, 0x01	; 1
    44f4:	01 c0       	rjmp	.+2      	; 0x44f8 <fsp_gen_pkt+0x36>
    44f6:	80 e0       	ldi	r24, 0x00	; 0
    44f8:	44 23       	and	r20, r20
    44fa:	61 f0       	breq	.+24     	; 0x4514 <fsp_gen_pkt+0x52>
    44fc:	e6 2f       	mov	r30, r22
    44fe:	f7 2f       	mov	r31, r23
    4500:	48 0f       	add	r20, r24
    4502:	91 91       	ld	r25, Z+
    4504:	de 01       	movw	r26, r28
    4506:	a8 0f       	add	r26, r24
    4508:	b1 1d       	adc	r27, r1
    450a:	15 96       	adiw	r26, 0x05	; 5
    450c:	9c 93       	st	X, r25
    450e:	8f 5f       	subi	r24, 0xFF	; 255
    4510:	48 13       	cpse	r20, r24
    4512:	f7 cf       	rjmp	.-18     	; 0x4502 <fsp_gen_pkt+0x40>
    4514:	4b 81       	ldd	r20, Y+3	; 0x03
    4516:	4c 5f       	subi	r20, 0xFC	; 252
    4518:	be 01       	movw	r22, r28
    451a:	6f 5f       	subi	r22, 0xFF	; 255
    451c:	7f 4f       	sbci	r23, 0xFF	; 255
    451e:	80 e0       	ldi	r24, 0x00	; 0
    4520:	90 e0       	ldi	r25, 0x00	; 0
    4522:	0e 94 33 22 	call	0x4466	; 0x4466 <crc16_CCITT>
    4526:	99 ab       	std	Y+49, r25	; 0x31
    4528:	88 ab       	std	Y+48, r24	; 0x30
    452a:	df 91       	pop	r29
    452c:	cf 91       	pop	r28
    452e:	0f 91       	pop	r16
    4530:	ff 90       	pop	r15
    4532:	ef 90       	pop	r14
    4534:	08 95       	ret

00004536 <fsp_gen_cmd_w_data_pkt>:
    4536:	ef 92       	push	r14
    4538:	ff 92       	push	r15
    453a:	0f 93       	push	r16
    453c:	cf 93       	push	r28
    453e:	df 93       	push	r29
    4540:	1f 92       	push	r1
    4542:	cd b7       	in	r28, 0x3d	; 61
    4544:	de b7       	in	r29, 0x3e	; 62
    4546:	89 83       	std	Y+1, r24	; 0x01
    4548:	01 30       	cpi	r16, 0x01	; 1
    454a:	31 f4       	brne	.+12     	; 0x4558 <fsp_gen_cmd_w_data_pkt+0x22>
    454c:	08 e0       	ldi	r16, 0x08	; 8
    454e:	ce 01       	movw	r24, r28
    4550:	01 96       	adiw	r24, 0x01	; 1
    4552:	0e 94 61 22 	call	0x44c2	; 0x44c2 <fsp_gen_pkt>
    4556:	05 c0       	rjmp	.+10     	; 0x4562 <fsp_gen_cmd_w_data_pkt+0x2c>
    4558:	07 e0       	ldi	r16, 0x07	; 7
    455a:	ce 01       	movw	r24, r28
    455c:	01 96       	adiw	r24, 0x01	; 1
    455e:	0e 94 61 22 	call	0x44c2	; 0x44c2 <fsp_gen_pkt>
    4562:	0f 90       	pop	r0
    4564:	df 91       	pop	r29
    4566:	cf 91       	pop	r28
    4568:	0f 91       	pop	r16
    456a:	ff 90       	pop	r15
    456c:	ef 90       	pop	r14
    456e:	08 95       	ret

00004570 <fsp_encode>:
	fsp->crc16 = crc16_CCITT(FSP_CRC16_INITIAL_VALUE, &fsp->src_adr, fsp->length + 4);

}

void fsp_encode(fsp_packet_t *fsp, uint8_t *pkt, uint8_t *pkt_len)
{
    4570:	af 92       	push	r10
    4572:	bf 92       	push	r11
    4574:	df 92       	push	r13
    4576:	ef 92       	push	r14
    4578:	ff 92       	push	r15
    457a:	0f 93       	push	r16
    457c:	1f 93       	push	r17
    457e:	cf 93       	push	r28
    4580:	df 93       	push	r29
    4582:	fc 01       	movw	r30, r24
    4584:	db 01       	movw	r26, r22
	uint8_t i = 0;
	uint8_t crc_msb = (uint8_t)(fsp->crc16 >> 8);
    4586:	d0 a8       	ldd	r13, Z+48	; 0x30
    4588:	e1 a8       	ldd	r14, Z+49	; 0x31
    458a:	7e 2d       	mov	r23, r14
	uint8_t crc_lsb = (uint8_t)(fsp->crc16 & 0xFF);
    458c:	6d 2d       	mov	r22, r13
	pkt[i++] = fsp->sod;
    458e:	80 81       	ld	r24, Z
    4590:	8c 93       	st	X, r24
	pkt[i++] = fsp->src_adr;
    4592:	81 81       	ldd	r24, Z+1	; 0x01
    4594:	11 96       	adiw	r26, 0x01	; 1
    4596:	8c 93       	st	X, r24
    4598:	11 97       	sbiw	r26, 0x01	; 1
	pkt[i++] = fsp->dst_adr;
    459a:	82 81       	ldd	r24, Z+2	; 0x02
    459c:	12 96       	adiw	r26, 0x02	; 2
    459e:	8c 93       	st	X, r24
    45a0:	12 97       	sbiw	r26, 0x02	; 2
	pkt[i++] = fsp->length;
    45a2:	83 81       	ldd	r24, Z+3	; 0x03
    45a4:	13 96       	adiw	r26, 0x03	; 3
    45a6:	8c 93       	st	X, r24
    45a8:	13 97       	sbiw	r26, 0x03	; 3
	pkt[i++] = fsp->type;
    45aa:	84 81       	ldd	r24, Z+4	; 0x04
    45ac:	14 96       	adiw	r26, 0x04	; 4
    45ae:	8c 93       	st	X, r24
    45b0:	14 97       	sbiw	r26, 0x04	; 4
	
	uint8_t j = 0;
	for(j=0; j<fsp->length; j++)
    45b2:	83 81       	ldd	r24, Z+3	; 0x03
    45b4:	88 23       	and	r24, r24
    45b6:	09 f4       	brne	.+2      	; 0x45ba <fsp_encode+0x4a>
    45b8:	44 c0       	rjmp	.+136    	; 0x4642 <fsp_encode+0xd2>
    45ba:	20 e0       	ldi	r18, 0x00	; 0
    45bc:	95 e0       	ldi	r25, 0x05	; 5
			pkt[i++] = FSP_PKT_TSOD;
			} else if (fsp->payload[j] == FSP_PKT_EOF) {
			pkt[i++] = FSP_PKT_ESC;
			pkt[i++] = FSP_PKT_TEOF;
			} else if (fsp->payload[j] == FSP_PKT_ESC) {
			pkt[i++] = FSP_PKT_ESC;
    45be:	8d eb       	ldi	r24, 0xBD	; 189
			pkt[i++] = FSP_PKT_TESC;
    45c0:	0f 2e       	mov	r0, r31
    45c2:	fb ed       	ldi	r31, 0xDB	; 219
    45c4:	ff 2e       	mov	r15, r31
    45c6:	f0 2d       	mov	r31, r0
		if (fsp->payload[j] == FSP_PKT_SOD) {
			pkt[i++] = FSP_PKT_ESC;
			pkt[i++] = FSP_PKT_TSOD;
			} else if (fsp->payload[j] == FSP_PKT_EOF) {
			pkt[i++] = FSP_PKT_ESC;
			pkt[i++] = FSP_PKT_TEOF;
    45c8:	1e ed       	ldi	r17, 0xDE	; 222
	uint8_t j = 0;
	for(j=0; j<fsp->length; j++)
	{
		if (fsp->payload[j] == FSP_PKT_SOD) {
			pkt[i++] = FSP_PKT_ESC;
			pkt[i++] = FSP_PKT_TSOD;
    45ca:	3c ed       	ldi	r19, 0xDC	; 220
	pkt[i++] = fsp->type;
	
	uint8_t j = 0;
	for(j=0; j<fsp->length; j++)
	{
		if (fsp->payload[j] == FSP_PKT_SOD) {
    45cc:	ef 01       	movw	r28, r30
    45ce:	c2 0f       	add	r28, r18
    45d0:	d1 1d       	adc	r29, r1
    45d2:	0d 81       	ldd	r16, Y+5	; 0x05
    45d4:	0a 3c       	cpi	r16, 0xCA	; 202
    45d6:	69 f4       	brne	.+26     	; 0x45f2 <fsp_encode+0x82>
			pkt[i++] = FSP_PKT_ESC;
    45d8:	ed 01       	movw	r28, r26
    45da:	c9 0f       	add	r28, r25
    45dc:	d1 1d       	adc	r29, r1
    45de:	88 83       	st	Y, r24
			pkt[i++] = FSP_PKT_TSOD;
    45e0:	c1 e0       	ldi	r28, 0x01	; 1
    45e2:	c9 0f       	add	r28, r25
    45e4:	5d 01       	movw	r10, r26
    45e6:	ac 0e       	add	r10, r28
    45e8:	b1 1c       	adc	r11, r1
    45ea:	e5 01       	movw	r28, r10
    45ec:	9e 5f       	subi	r25, 0xFE	; 254
    45ee:	38 83       	st	Y, r19
    45f0:	23 c0       	rjmp	.+70     	; 0x4638 <fsp_encode+0xc8>
			} else if (fsp->payload[j] == FSP_PKT_EOF) {
    45f2:	0f 3e       	cpi	r16, 0xEF	; 239
    45f4:	69 f4       	brne	.+26     	; 0x4610 <fsp_encode+0xa0>
			pkt[i++] = FSP_PKT_ESC;
    45f6:	ed 01       	movw	r28, r26
    45f8:	c9 0f       	add	r28, r25
    45fa:	d1 1d       	adc	r29, r1
    45fc:	88 83       	st	Y, r24
			pkt[i++] = FSP_PKT_TEOF;
    45fe:	c1 e0       	ldi	r28, 0x01	; 1
    4600:	c9 0f       	add	r28, r25
    4602:	5d 01       	movw	r10, r26
    4604:	ac 0e       	add	r10, r28
    4606:	b1 1c       	adc	r11, r1
    4608:	e5 01       	movw	r28, r10
    460a:	9e 5f       	subi	r25, 0xFE	; 254
    460c:	18 83       	st	Y, r17
    460e:	14 c0       	rjmp	.+40     	; 0x4638 <fsp_encode+0xc8>
			} else if (fsp->payload[j] == FSP_PKT_ESC) {
    4610:	0d 3b       	cpi	r16, 0xBD	; 189
    4612:	69 f4       	brne	.+26     	; 0x462e <fsp_encode+0xbe>
			pkt[i++] = FSP_PKT_ESC;
    4614:	ed 01       	movw	r28, r26
    4616:	c9 0f       	add	r28, r25
    4618:	d1 1d       	adc	r29, r1
    461a:	88 83       	st	Y, r24
			pkt[i++] = FSP_PKT_TESC;
    461c:	c1 e0       	ldi	r28, 0x01	; 1
    461e:	c9 0f       	add	r28, r25
    4620:	5d 01       	movw	r10, r26
    4622:	ac 0e       	add	r10, r28
    4624:	b1 1c       	adc	r11, r1
    4626:	e5 01       	movw	r28, r10
    4628:	9e 5f       	subi	r25, 0xFE	; 254
    462a:	f8 82       	st	Y, r15
    462c:	05 c0       	rjmp	.+10     	; 0x4638 <fsp_encode+0xc8>
		} else
		pkt[i++] = fsp->payload[j];
    462e:	ed 01       	movw	r28, r26
    4630:	c9 0f       	add	r28, r25
    4632:	d1 1d       	adc	r29, r1
    4634:	08 83       	st	Y, r16
    4636:	9f 5f       	subi	r25, 0xFF	; 255
	pkt[i++] = fsp->dst_adr;
	pkt[i++] = fsp->length;
	pkt[i++] = fsp->type;
	
	uint8_t j = 0;
	for(j=0; j<fsp->length; j++)
    4638:	2f 5f       	subi	r18, 0xFF	; 255
    463a:	c3 81       	ldd	r28, Z+3	; 0x03
    463c:	2c 17       	cp	r18, r28
    463e:	30 f2       	brcs	.-116    	; 0x45cc <fsp_encode+0x5c>
    4640:	01 c0       	rjmp	.+2      	; 0x4644 <fsp_encode+0xd4>
	uint8_t crc_lsb = (uint8_t)(fsp->crc16 & 0xFF);
	pkt[i++] = fsp->sod;
	pkt[i++] = fsp->src_adr;
	pkt[i++] = fsp->dst_adr;
	pkt[i++] = fsp->length;
	pkt[i++] = fsp->type;
    4642:	95 e0       	ldi	r25, 0x05	; 5
			pkt[i++] = FSP_PKT_TESC;
		} else
		pkt[i++] = fsp->payload[j];
	}

	if (crc_msb == FSP_PKT_SOD) {
    4644:	7a 3c       	cpi	r23, 0xCA	; 202
    4646:	71 f4       	brne	.+28     	; 0x4664 <fsp_encode+0xf4>
		pkt[i++] = FSP_PKT_ESC;
    4648:	fd 01       	movw	r30, r26
    464a:	e9 0f       	add	r30, r25
    464c:	f1 1d       	adc	r31, r1
    464e:	8d eb       	ldi	r24, 0xBD	; 189
    4650:	80 83       	st	Z, r24
		pkt[i++] = FSP_PKT_TSOD;
    4652:	22 e0       	ldi	r18, 0x02	; 2
    4654:	29 0f       	add	r18, r25
    4656:	9f 5f       	subi	r25, 0xFF	; 255
    4658:	fd 01       	movw	r30, r26
    465a:	e9 0f       	add	r30, r25
    465c:	f1 1d       	adc	r31, r1
    465e:	8c ed       	ldi	r24, 0xDC	; 220
    4660:	80 83       	st	Z, r24
    4662:	26 c0       	rjmp	.+76     	; 0x46b0 <fsp_encode+0x140>
		} else if (crc_msb == FSP_PKT_EOF) {
    4664:	7f 3e       	cpi	r23, 0xEF	; 239
    4666:	71 f4       	brne	.+28     	; 0x4684 <fsp_encode+0x114>
		pkt[i++] = FSP_PKT_ESC;
    4668:	fd 01       	movw	r30, r26
    466a:	e9 0f       	add	r30, r25
    466c:	f1 1d       	adc	r31, r1
    466e:	8d eb       	ldi	r24, 0xBD	; 189
    4670:	80 83       	st	Z, r24
		pkt[i++] = FSP_PKT_TEOF;
    4672:	22 e0       	ldi	r18, 0x02	; 2
    4674:	29 0f       	add	r18, r25
    4676:	9f 5f       	subi	r25, 0xFF	; 255
    4678:	fd 01       	movw	r30, r26
    467a:	e9 0f       	add	r30, r25
    467c:	f1 1d       	adc	r31, r1
    467e:	8e ed       	ldi	r24, 0xDE	; 222
    4680:	80 83       	st	Z, r24
    4682:	16 c0       	rjmp	.+44     	; 0x46b0 <fsp_encode+0x140>
		} else if (crc_msb == FSP_PKT_ESC) {
    4684:	7d 3b       	cpi	r23, 0xBD	; 189
    4686:	71 f4       	brne	.+28     	; 0x46a4 <fsp_encode+0x134>
		pkt[i++] = FSP_PKT_ESC;
    4688:	fd 01       	movw	r30, r26
    468a:	e9 0f       	add	r30, r25
    468c:	f1 1d       	adc	r31, r1
    468e:	8d eb       	ldi	r24, 0xBD	; 189
    4690:	80 83       	st	Z, r24
		pkt[i++] = FSP_PKT_TESC;
    4692:	22 e0       	ldi	r18, 0x02	; 2
    4694:	29 0f       	add	r18, r25
    4696:	9f 5f       	subi	r25, 0xFF	; 255
    4698:	fd 01       	movw	r30, r26
    469a:	e9 0f       	add	r30, r25
    469c:	f1 1d       	adc	r31, r1
    469e:	8b ed       	ldi	r24, 0xDB	; 219
    46a0:	80 83       	st	Z, r24
    46a2:	06 c0       	rjmp	.+12     	; 0x46b0 <fsp_encode+0x140>
	} else
	pkt[i++] = crc_msb;
    46a4:	21 e0       	ldi	r18, 0x01	; 1
    46a6:	29 0f       	add	r18, r25
    46a8:	fd 01       	movw	r30, r26
    46aa:	e9 0f       	add	r30, r25
    46ac:	f1 1d       	adc	r31, r1
    46ae:	e0 82       	st	Z, r14

	if (crc_lsb == FSP_PKT_SOD) {
    46b0:	6a 3c       	cpi	r22, 0xCA	; 202
    46b2:	71 f4       	brne	.+28     	; 0x46d0 <fsp_encode+0x160>
		pkt[i++] = FSP_PKT_ESC;
    46b4:	fd 01       	movw	r30, r26
    46b6:	e2 0f       	add	r30, r18
    46b8:	f1 1d       	adc	r31, r1
    46ba:	8d eb       	ldi	r24, 0xBD	; 189
    46bc:	80 83       	st	Z, r24
		pkt[i++] = FSP_PKT_TSOD;
    46be:	82 e0       	ldi	r24, 0x02	; 2
    46c0:	82 0f       	add	r24, r18
    46c2:	2f 5f       	subi	r18, 0xFF	; 255
    46c4:	fd 01       	movw	r30, r26
    46c6:	e2 0f       	add	r30, r18
    46c8:	f1 1d       	adc	r31, r1
    46ca:	9c ed       	ldi	r25, 0xDC	; 220
    46cc:	90 83       	st	Z, r25
    46ce:	26 c0       	rjmp	.+76     	; 0x471c <fsp_encode+0x1ac>
		} else if (crc_lsb == FSP_PKT_EOF) {
    46d0:	6f 3e       	cpi	r22, 0xEF	; 239
    46d2:	71 f4       	brne	.+28     	; 0x46f0 <fsp_encode+0x180>
		pkt[i++] = FSP_PKT_ESC;
    46d4:	fd 01       	movw	r30, r26
    46d6:	e2 0f       	add	r30, r18
    46d8:	f1 1d       	adc	r31, r1
    46da:	8d eb       	ldi	r24, 0xBD	; 189
    46dc:	80 83       	st	Z, r24
		pkt[i++] = FSP_PKT_TEOF;
    46de:	82 e0       	ldi	r24, 0x02	; 2
    46e0:	82 0f       	add	r24, r18
    46e2:	2f 5f       	subi	r18, 0xFF	; 255
    46e4:	fd 01       	movw	r30, r26
    46e6:	e2 0f       	add	r30, r18
    46e8:	f1 1d       	adc	r31, r1
    46ea:	9e ed       	ldi	r25, 0xDE	; 222
    46ec:	90 83       	st	Z, r25
    46ee:	16 c0       	rjmp	.+44     	; 0x471c <fsp_encode+0x1ac>
		} else if (crc_lsb == FSP_PKT_ESC) {
    46f0:	6d 3b       	cpi	r22, 0xBD	; 189
    46f2:	71 f4       	brne	.+28     	; 0x4710 <fsp_encode+0x1a0>
		pkt[i++] = FSP_PKT_ESC;
    46f4:	fd 01       	movw	r30, r26
    46f6:	e2 0f       	add	r30, r18
    46f8:	f1 1d       	adc	r31, r1
    46fa:	8d eb       	ldi	r24, 0xBD	; 189
    46fc:	80 83       	st	Z, r24
		pkt[i++] = FSP_PKT_TESC;
    46fe:	82 e0       	ldi	r24, 0x02	; 2
    4700:	82 0f       	add	r24, r18
    4702:	2f 5f       	subi	r18, 0xFF	; 255
    4704:	fd 01       	movw	r30, r26
    4706:	e2 0f       	add	r30, r18
    4708:	f1 1d       	adc	r31, r1
    470a:	9b ed       	ldi	r25, 0xDB	; 219
    470c:	90 83       	st	Z, r25
    470e:	06 c0       	rjmp	.+12     	; 0x471c <fsp_encode+0x1ac>
	} else
	pkt[i++] = crc_lsb;
    4710:	81 e0       	ldi	r24, 0x01	; 1
    4712:	82 0f       	add	r24, r18
    4714:	fd 01       	movw	r30, r26
    4716:	e2 0f       	add	r30, r18
    4718:	f1 1d       	adc	r31, r1
    471a:	d0 82       	st	Z, r13
	
	pkt[i++] = FSP_PKT_EOF;
    471c:	a8 0f       	add	r26, r24
    471e:	b1 1d       	adc	r27, r1
    4720:	9f ee       	ldi	r25, 0xEF	; 239
    4722:	9c 93       	st	X, r25
	*pkt_len = i;
    4724:	8f 5f       	subi	r24, 0xFF	; 255
    4726:	fa 01       	movw	r30, r20
    4728:	80 83       	st	Z, r24
}
    472a:	df 91       	pop	r29
    472c:	cf 91       	pop	r28
    472e:	1f 91       	pop	r17
    4730:	0f 91       	pop	r16
    4732:	ff 90       	pop	r15
    4734:	ef 90       	pop	r14
    4736:	df 90       	pop	r13
    4738:	bf 90       	pop	r11
    473a:	af 90       	pop	r10
    473c:	08 95       	ret

0000473e <fsp_decode>:

uint8_t fsp_decode(uint8_t byte, fsp_packet_t *fsp)
{
    473e:	cf 93       	push	r28
    4740:	df 93       	push	r29
    4742:	98 2f       	mov	r25, r24
    switch(fsp_decode_pos)
    4744:	80 91 89 0b 	lds	r24, 0x0B89	; 0x800b89 <fsp_decode_pos>
    4748:	82 30       	cpi	r24, 0x02	; 2
    474a:	01 f1       	breq	.+64     	; 0x478c <fsp_decode+0x4e>
    474c:	28 f4       	brcc	.+10     	; 0x4758 <fsp_decode+0x1a>
    474e:	88 23       	and	r24, r24
    4750:	41 f0       	breq	.+16     	; 0x4762 <fsp_decode+0x24>
    4752:	81 30       	cpi	r24, 0x01	; 1
    4754:	a1 f0       	breq	.+40     	; 0x477e <fsp_decode+0x40>
    4756:	3d c0       	rjmp	.+122    	; 0x47d2 <fsp_decode+0x94>
    4758:	83 30       	cpi	r24, 0x03	; 3
    475a:	39 f1       	breq	.+78     	; 0x47aa <fsp_decode+0x6c>
    475c:	84 30       	cpi	r24, 0x04	; 4
    475e:	91 f1       	breq	.+100    	; 0x47c4 <fsp_decode+0x86>
    4760:	38 c0       	rjmp	.+112    	; 0x47d2 <fsp_decode+0x94>
    {
	    case FSP_PKT_POS_SOD:
	    if (byte == FSP_PKT_SOD)
    4762:	9a 3c       	cpi	r25, 0xCA	; 202
    4764:	41 f4       	brne	.+16     	; 0x4776 <fsp_decode+0x38>
	    {
		    fsp->sod = byte;
    4766:	fb 01       	movw	r30, r22
    4768:	90 83       	st	Z, r25
		    fsp_decode_pos++;
    476a:	90 91 89 0b 	lds	r25, 0x0B89	; 0x800b89 <fsp_decode_pos>
    476e:	9f 5f       	subi	r25, 0xFF	; 255
    4770:	90 93 89 0b 	sts	0x0B89, r25	; 0x800b89 <fsp_decode_pos>
		    return FSP_PKT_NOT_READY;
    4774:	6c c0       	rjmp	.+216    	; 0x484e <fsp_decode+0x110>
	    }
	    else
	    {
		    fsp_decode_pos = FSP_PKT_POS_SOD;
    4776:	10 92 89 0b 	sts	0x0B89, r1	; 0x800b89 <fsp_decode_pos>
		    return FSP_PKT_INVALID;
    477a:	82 e0       	ldi	r24, 0x02	; 2
    477c:	68 c0       	rjmp	.+208    	; 0x484e <fsp_decode+0x110>
	    }
	    case FSP_PKT_POS_SRC_ADR:
	    fsp->src_adr = byte;
    477e:	fb 01       	movw	r30, r22
    4780:	91 83       	std	Z+1, r25	; 0x01
	    fsp_decode_pos++;
    4782:	82 e0       	ldi	r24, 0x02	; 2
    4784:	80 93 89 0b 	sts	0x0B89, r24	; 0x800b89 <fsp_decode_pos>
	    return FSP_PKT_NOT_READY;
    4788:	80 e0       	ldi	r24, 0x00	; 0
    478a:	61 c0       	rjmp	.+194    	; 0x484e <fsp_decode+0x110>
	    case FSP_PKT_POS_DST_ADR:
	    fsp->dst_adr = byte;
    478c:	fb 01       	movw	r30, r22
    478e:	92 83       	std	Z+2, r25	; 0x02

	    if (byte == fsp_my_adr)
    4790:	80 91 5e 0d 	lds	r24, 0x0D5E	; 0x800d5e <fsp_my_adr>
    4794:	98 13       	cpse	r25, r24
    4796:	05 c0       	rjmp	.+10     	; 0x47a2 <fsp_decode+0x64>
	    {
		    fsp_decode_pos++;
    4798:	83 e0       	ldi	r24, 0x03	; 3
    479a:	80 93 89 0b 	sts	0x0B89, r24	; 0x800b89 <fsp_decode_pos>
		    return FSP_PKT_NOT_READY;
    479e:	80 e0       	ldi	r24, 0x00	; 0
    47a0:	56 c0       	rjmp	.+172    	; 0x484e <fsp_decode+0x110>
	    }
	    else
	    {
		    fsp_decode_pos = FSP_PKT_POS_SOD;
    47a2:	10 92 89 0b 	sts	0x0B89, r1	; 0x800b89 <fsp_decode_pos>
		    return FSP_PKT_WRONG_ADR;
    47a6:	83 e0       	ldi	r24, 0x03	; 3
    47a8:	52 c0       	rjmp	.+164    	; 0x484e <fsp_decode+0x110>
	    }
	    case FSP_PKT_POS_LEN:
	    if (byte > FSP_PAYLOAD_MAX_LENGTH)
    47aa:	9c 32       	cpi	r25, 0x2C	; 44
    47ac:	20 f0       	brcs	.+8      	; 0x47b6 <fsp_decode+0x78>
	    {
		    fsp_decode_pos = FSP_PKT_POS_SOD;
    47ae:	10 92 89 0b 	sts	0x0B89, r1	; 0x800b89 <fsp_decode_pos>
		    return FSP_PKT_INVALID;
    47b2:	82 e0       	ldi	r24, 0x02	; 2
    47b4:	4c c0       	rjmp	.+152    	; 0x484e <fsp_decode+0x110>
	    }
	    else
	    {
		    fsp->length = byte;
    47b6:	fb 01       	movw	r30, r22
    47b8:	93 83       	std	Z+3, r25	; 0x03
		    fsp_decode_pos++;
    47ba:	84 e0       	ldi	r24, 0x04	; 4
    47bc:	80 93 89 0b 	sts	0x0B89, r24	; 0x800b89 <fsp_decode_pos>
		    return FSP_PKT_NOT_READY;
    47c0:	80 e0       	ldi	r24, 0x00	; 0
    47c2:	45 c0       	rjmp	.+138    	; 0x484e <fsp_decode+0x110>
	    }
	    case FSP_PKT_POS_TYPE:
	    fsp->type = byte;
    47c4:	fb 01       	movw	r30, r22
    47c6:	94 83       	std	Z+4, r25	; 0x04
	    fsp_decode_pos++;
    47c8:	85 e0       	ldi	r24, 0x05	; 5
    47ca:	80 93 89 0b 	sts	0x0B89, r24	; 0x800b89 <fsp_decode_pos>
	    return FSP_PKT_NOT_READY;
    47ce:	80 e0       	ldi	r24, 0x00	; 0
    47d0:	3e c0       	rjmp	.+124    	; 0x484e <fsp_decode+0x110>
	    default:
	    if (fsp_decode_pos < (FSP_PKT_POS_TYPE + fsp->length + 1))          // Payload
    47d2:	28 2f       	mov	r18, r24
    47d4:	30 e0       	ldi	r19, 0x00	; 0
    47d6:	fb 01       	movw	r30, r22
    47d8:	43 81       	ldd	r20, Z+3	; 0x03
    47da:	e4 2f       	mov	r30, r20
    47dc:	f0 e0       	ldi	r31, 0x00	; 0
    47de:	df 01       	movw	r26, r30
    47e0:	15 96       	adiw	r26, 0x05	; 5
    47e2:	2a 17       	cp	r18, r26
    47e4:	3b 07       	cpc	r19, r27
    47e6:	4c f4       	brge	.+18     	; 0x47fa <fsp_decode+0xbc>
	    {
		    fsp->payload[fsp_decode_pos - FSP_PKT_POS_TYPE - 1] = byte;
    47e8:	fb 01       	movw	r30, r22
    47ea:	e2 0f       	add	r30, r18
    47ec:	f3 1f       	adc	r31, r19
    47ee:	90 83       	st	Z, r25
		    fsp_decode_pos++;
    47f0:	8f 5f       	subi	r24, 0xFF	; 255
    47f2:	80 93 89 0b 	sts	0x0B89, r24	; 0x800b89 <fsp_decode_pos>
		    return FSP_PKT_NOT_READY;
    47f6:	80 e0       	ldi	r24, 0x00	; 0
    47f8:	2a c0       	rjmp	.+84     	; 0x484e <fsp_decode+0x110>
	    }
	    else if (fsp_decode_pos == (FSP_PKT_POS_TYPE + fsp->length + 1))    // CRC16 MSB
    47fa:	2a 17       	cp	r18, r26
    47fc:	3b 07       	cpc	r19, r27
    47fe:	41 f4       	brne	.+16     	; 0x4810 <fsp_decode+0xd2>
	    {
		    fsp->crc16 = (uint16_t)(byte << 8);
    4800:	fb 01       	movw	r30, r22
    4802:	10 aa       	std	Z+48, r1	; 0x30
    4804:	91 ab       	std	Z+49, r25	; 0x31
		    fsp_decode_pos++;
    4806:	8f 5f       	subi	r24, 0xFF	; 255
    4808:	80 93 89 0b 	sts	0x0B89, r24	; 0x800b89 <fsp_decode_pos>
		    return FSP_PKT_NOT_READY;
    480c:	80 e0       	ldi	r24, 0x00	; 0
    480e:	1f c0       	rjmp	.+62     	; 0x484e <fsp_decode+0x110>
	    }
	    else if (fsp_decode_pos == (FSP_PKT_POS_TYPE + fsp->length + 2))    // CRC16 LSB
    4810:	36 96       	adiw	r30, 0x06	; 6
    4812:	2e 17       	cp	r18, r30
    4814:	3f 07       	cpc	r19, r31
    4816:	c1 f4       	brne	.+48     	; 0x4848 <fsp_decode+0x10a>
    4818:	fb 01       	movw	r30, r22
	    {
		    fsp->crc16 |= (uint16_t)(byte);
    481a:	c0 a9       	ldd	r28, Z+48	; 0x30
    481c:	d1 a9       	ldd	r29, Z+49	; 0x31
    481e:	c9 2b       	or	r28, r25
    4820:	d1 ab       	std	Z+49, r29	; 0x31
    4822:	c0 ab       	std	Z+48, r28	; 0x30

		    if (fsp->crc16 == crc16_CCITT(FSP_CRC16_INITIAL_VALUE, &fsp->src_adr, fsp->length + 4))
    4824:	4c 5f       	subi	r20, 0xFC	; 252
    4826:	6f 5f       	subi	r22, 0xFF	; 255
    4828:	7f 4f       	sbci	r23, 0xFF	; 255
    482a:	80 e0       	ldi	r24, 0x00	; 0
    482c:	90 e0       	ldi	r25, 0x00	; 0
    482e:	0e 94 33 22 	call	0x4466	; 0x4466 <crc16_CCITT>
    4832:	c8 17       	cp	r28, r24
    4834:	d9 07       	cpc	r29, r25
    4836:	21 f4       	brne	.+8      	; 0x4840 <fsp_decode+0x102>
		    {
			    fsp_decode_pos = FSP_PKT_POS_SOD;
    4838:	10 92 89 0b 	sts	0x0B89, r1	; 0x800b89 <fsp_decode_pos>
			    return FSP_PKT_READY;
    483c:	81 e0       	ldi	r24, 0x01	; 1
    483e:	07 c0       	rjmp	.+14     	; 0x484e <fsp_decode+0x110>
		    }
		    else
		    {
			    fsp_decode_pos = FSP_PKT_POS_SOD;
    4840:	10 92 89 0b 	sts	0x0B89, r1	; 0x800b89 <fsp_decode_pos>
			    return FSP_PKT_INVALID;
    4844:	82 e0       	ldi	r24, 0x02	; 2
    4846:	03 c0       	rjmp	.+6      	; 0x484e <fsp_decode+0x110>
		    }
	    }
	    else
	    {
		    fsp_decode_pos = FSP_PKT_POS_SOD;
    4848:	10 92 89 0b 	sts	0x0B89, r1	; 0x800b89 <fsp_decode_pos>
		    return FSP_PKT_ERROR;
    484c:	84 e0       	ldi	r24, 0x04	; 4
	    }
    }
}
    484e:	df 91       	pop	r29
    4850:	cf 91       	pop	r28
    4852:	08 95       	ret

00004854 <__fixsfsi>:
    4854:	0e 94 31 24 	call	0x4862	; 0x4862 <__fixunssfsi>
    4858:	68 94       	set
    485a:	b1 11       	cpse	r27, r1
    485c:	0c 94 e8 24 	jmp	0x49d0	; 0x49d0 <__fp_szero>
    4860:	08 95       	ret

00004862 <__fixunssfsi>:
    4862:	0e 94 cd 24 	call	0x499a	; 0x499a <__fp_splitA>
    4866:	88 f0       	brcs	.+34     	; 0x488a <__fixunssfsi+0x28>
    4868:	9f 57       	subi	r25, 0x7F	; 127
    486a:	98 f0       	brcs	.+38     	; 0x4892 <__fixunssfsi+0x30>
    486c:	b9 2f       	mov	r27, r25
    486e:	99 27       	eor	r25, r25
    4870:	b7 51       	subi	r27, 0x17	; 23
    4872:	b0 f0       	brcs	.+44     	; 0x48a0 <__fixunssfsi+0x3e>
    4874:	e1 f0       	breq	.+56     	; 0x48ae <__fixunssfsi+0x4c>
    4876:	66 0f       	add	r22, r22
    4878:	77 1f       	adc	r23, r23
    487a:	88 1f       	adc	r24, r24
    487c:	99 1f       	adc	r25, r25
    487e:	1a f0       	brmi	.+6      	; 0x4886 <__fixunssfsi+0x24>
    4880:	ba 95       	dec	r27
    4882:	c9 f7       	brne	.-14     	; 0x4876 <__fixunssfsi+0x14>
    4884:	14 c0       	rjmp	.+40     	; 0x48ae <__fixunssfsi+0x4c>
    4886:	b1 30       	cpi	r27, 0x01	; 1
    4888:	91 f0       	breq	.+36     	; 0x48ae <__fixunssfsi+0x4c>
    488a:	0e 94 e7 24 	call	0x49ce	; 0x49ce <__fp_zero>
    488e:	b1 e0       	ldi	r27, 0x01	; 1
    4890:	08 95       	ret
    4892:	0c 94 e7 24 	jmp	0x49ce	; 0x49ce <__fp_zero>
    4896:	67 2f       	mov	r22, r23
    4898:	78 2f       	mov	r23, r24
    489a:	88 27       	eor	r24, r24
    489c:	b8 5f       	subi	r27, 0xF8	; 248
    489e:	39 f0       	breq	.+14     	; 0x48ae <__fixunssfsi+0x4c>
    48a0:	b9 3f       	cpi	r27, 0xF9	; 249
    48a2:	cc f3       	brlt	.-14     	; 0x4896 <__fixunssfsi+0x34>
    48a4:	86 95       	lsr	r24
    48a6:	77 95       	ror	r23
    48a8:	67 95       	ror	r22
    48aa:	b3 95       	inc	r27
    48ac:	d9 f7       	brne	.-10     	; 0x48a4 <__fixunssfsi+0x42>
    48ae:	3e f4       	brtc	.+14     	; 0x48be <__fixunssfsi+0x5c>
    48b0:	90 95       	com	r25
    48b2:	80 95       	com	r24
    48b4:	70 95       	com	r23
    48b6:	61 95       	neg	r22
    48b8:	7f 4f       	sbci	r23, 0xFF	; 255
    48ba:	8f 4f       	sbci	r24, 0xFF	; 255
    48bc:	9f 4f       	sbci	r25, 0xFF	; 255
    48be:	08 95       	ret

000048c0 <__floatunsisf>:
    48c0:	e8 94       	clt
    48c2:	09 c0       	rjmp	.+18     	; 0x48d6 <__floatsisf+0x12>

000048c4 <__floatsisf>:
    48c4:	97 fb       	bst	r25, 7
    48c6:	3e f4       	brtc	.+14     	; 0x48d6 <__floatsisf+0x12>
    48c8:	90 95       	com	r25
    48ca:	80 95       	com	r24
    48cc:	70 95       	com	r23
    48ce:	61 95       	neg	r22
    48d0:	7f 4f       	sbci	r23, 0xFF	; 255
    48d2:	8f 4f       	sbci	r24, 0xFF	; 255
    48d4:	9f 4f       	sbci	r25, 0xFF	; 255
    48d6:	99 23       	and	r25, r25
    48d8:	a9 f0       	breq	.+42     	; 0x4904 <__floatsisf+0x40>
    48da:	f9 2f       	mov	r31, r25
    48dc:	96 e9       	ldi	r25, 0x96	; 150
    48de:	bb 27       	eor	r27, r27
    48e0:	93 95       	inc	r25
    48e2:	f6 95       	lsr	r31
    48e4:	87 95       	ror	r24
    48e6:	77 95       	ror	r23
    48e8:	67 95       	ror	r22
    48ea:	b7 95       	ror	r27
    48ec:	f1 11       	cpse	r31, r1
    48ee:	f8 cf       	rjmp	.-16     	; 0x48e0 <__floatsisf+0x1c>
    48f0:	fa f4       	brpl	.+62     	; 0x4930 <__floatsisf+0x6c>
    48f2:	bb 0f       	add	r27, r27
    48f4:	11 f4       	brne	.+4      	; 0x48fa <__floatsisf+0x36>
    48f6:	60 ff       	sbrs	r22, 0
    48f8:	1b c0       	rjmp	.+54     	; 0x4930 <__floatsisf+0x6c>
    48fa:	6f 5f       	subi	r22, 0xFF	; 255
    48fc:	7f 4f       	sbci	r23, 0xFF	; 255
    48fe:	8f 4f       	sbci	r24, 0xFF	; 255
    4900:	9f 4f       	sbci	r25, 0xFF	; 255
    4902:	16 c0       	rjmp	.+44     	; 0x4930 <__floatsisf+0x6c>
    4904:	88 23       	and	r24, r24
    4906:	11 f0       	breq	.+4      	; 0x490c <__floatsisf+0x48>
    4908:	96 e9       	ldi	r25, 0x96	; 150
    490a:	11 c0       	rjmp	.+34     	; 0x492e <__floatsisf+0x6a>
    490c:	77 23       	and	r23, r23
    490e:	21 f0       	breq	.+8      	; 0x4918 <__floatsisf+0x54>
    4910:	9e e8       	ldi	r25, 0x8E	; 142
    4912:	87 2f       	mov	r24, r23
    4914:	76 2f       	mov	r23, r22
    4916:	05 c0       	rjmp	.+10     	; 0x4922 <__floatsisf+0x5e>
    4918:	66 23       	and	r22, r22
    491a:	71 f0       	breq	.+28     	; 0x4938 <__floatsisf+0x74>
    491c:	96 e8       	ldi	r25, 0x86	; 134
    491e:	86 2f       	mov	r24, r22
    4920:	70 e0       	ldi	r23, 0x00	; 0
    4922:	60 e0       	ldi	r22, 0x00	; 0
    4924:	2a f0       	brmi	.+10     	; 0x4930 <__floatsisf+0x6c>
    4926:	9a 95       	dec	r25
    4928:	66 0f       	add	r22, r22
    492a:	77 1f       	adc	r23, r23
    492c:	88 1f       	adc	r24, r24
    492e:	da f7       	brpl	.-10     	; 0x4926 <__floatsisf+0x62>
    4930:	88 0f       	add	r24, r24
    4932:	96 95       	lsr	r25
    4934:	87 95       	ror	r24
    4936:	97 f9       	bld	r25, 7
    4938:	08 95       	ret

0000493a <__fp_inf>:
    493a:	97 f9       	bld	r25, 7
    493c:	9f 67       	ori	r25, 0x7F	; 127
    493e:	80 e8       	ldi	r24, 0x80	; 128
    4940:	70 e0       	ldi	r23, 0x00	; 0
    4942:	60 e0       	ldi	r22, 0x00	; 0
    4944:	08 95       	ret

00004946 <__fp_nan>:
    4946:	9f ef       	ldi	r25, 0xFF	; 255
    4948:	80 ec       	ldi	r24, 0xC0	; 192
    494a:	08 95       	ret

0000494c <__fp_pscA>:
    494c:	00 24       	eor	r0, r0
    494e:	0a 94       	dec	r0
    4950:	16 16       	cp	r1, r22
    4952:	17 06       	cpc	r1, r23
    4954:	18 06       	cpc	r1, r24
    4956:	09 06       	cpc	r0, r25
    4958:	08 95       	ret

0000495a <__fp_pscB>:
    495a:	00 24       	eor	r0, r0
    495c:	0a 94       	dec	r0
    495e:	12 16       	cp	r1, r18
    4960:	13 06       	cpc	r1, r19
    4962:	14 06       	cpc	r1, r20
    4964:	05 06       	cpc	r0, r21
    4966:	08 95       	ret

00004968 <__fp_round>:
    4968:	09 2e       	mov	r0, r25
    496a:	03 94       	inc	r0
    496c:	00 0c       	add	r0, r0
    496e:	11 f4       	brne	.+4      	; 0x4974 <__fp_round+0xc>
    4970:	88 23       	and	r24, r24
    4972:	52 f0       	brmi	.+20     	; 0x4988 <__fp_round+0x20>
    4974:	bb 0f       	add	r27, r27
    4976:	40 f4       	brcc	.+16     	; 0x4988 <__fp_round+0x20>
    4978:	bf 2b       	or	r27, r31
    497a:	11 f4       	brne	.+4      	; 0x4980 <__fp_round+0x18>
    497c:	60 ff       	sbrs	r22, 0
    497e:	04 c0       	rjmp	.+8      	; 0x4988 <__fp_round+0x20>
    4980:	6f 5f       	subi	r22, 0xFF	; 255
    4982:	7f 4f       	sbci	r23, 0xFF	; 255
    4984:	8f 4f       	sbci	r24, 0xFF	; 255
    4986:	9f 4f       	sbci	r25, 0xFF	; 255
    4988:	08 95       	ret

0000498a <__fp_split3>:
    498a:	57 fd       	sbrc	r21, 7
    498c:	90 58       	subi	r25, 0x80	; 128
    498e:	44 0f       	add	r20, r20
    4990:	55 1f       	adc	r21, r21
    4992:	59 f0       	breq	.+22     	; 0x49aa <__fp_splitA+0x10>
    4994:	5f 3f       	cpi	r21, 0xFF	; 255
    4996:	71 f0       	breq	.+28     	; 0x49b4 <__fp_splitA+0x1a>
    4998:	47 95       	ror	r20

0000499a <__fp_splitA>:
    499a:	88 0f       	add	r24, r24
    499c:	97 fb       	bst	r25, 7
    499e:	99 1f       	adc	r25, r25
    49a0:	61 f0       	breq	.+24     	; 0x49ba <__fp_splitA+0x20>
    49a2:	9f 3f       	cpi	r25, 0xFF	; 255
    49a4:	79 f0       	breq	.+30     	; 0x49c4 <__fp_splitA+0x2a>
    49a6:	87 95       	ror	r24
    49a8:	08 95       	ret
    49aa:	12 16       	cp	r1, r18
    49ac:	13 06       	cpc	r1, r19
    49ae:	14 06       	cpc	r1, r20
    49b0:	55 1f       	adc	r21, r21
    49b2:	f2 cf       	rjmp	.-28     	; 0x4998 <__fp_split3+0xe>
    49b4:	46 95       	lsr	r20
    49b6:	f1 df       	rcall	.-30     	; 0x499a <__fp_splitA>
    49b8:	08 c0       	rjmp	.+16     	; 0x49ca <__fp_splitA+0x30>
    49ba:	16 16       	cp	r1, r22
    49bc:	17 06       	cpc	r1, r23
    49be:	18 06       	cpc	r1, r24
    49c0:	99 1f       	adc	r25, r25
    49c2:	f1 cf       	rjmp	.-30     	; 0x49a6 <__fp_splitA+0xc>
    49c4:	86 95       	lsr	r24
    49c6:	71 05       	cpc	r23, r1
    49c8:	61 05       	cpc	r22, r1
    49ca:	08 94       	sec
    49cc:	08 95       	ret

000049ce <__fp_zero>:
    49ce:	e8 94       	clt

000049d0 <__fp_szero>:
    49d0:	bb 27       	eor	r27, r27
    49d2:	66 27       	eor	r22, r22
    49d4:	77 27       	eor	r23, r23
    49d6:	cb 01       	movw	r24, r22
    49d8:	97 f9       	bld	r25, 7
    49da:	08 95       	ret

000049dc <__mulsf3>:
    49dc:	0e 94 01 25 	call	0x4a02	; 0x4a02 <__mulsf3x>
    49e0:	0c 94 b4 24 	jmp	0x4968	; 0x4968 <__fp_round>
    49e4:	0e 94 a6 24 	call	0x494c	; 0x494c <__fp_pscA>
    49e8:	38 f0       	brcs	.+14     	; 0x49f8 <__mulsf3+0x1c>
    49ea:	0e 94 ad 24 	call	0x495a	; 0x495a <__fp_pscB>
    49ee:	20 f0       	brcs	.+8      	; 0x49f8 <__mulsf3+0x1c>
    49f0:	95 23       	and	r25, r21
    49f2:	11 f0       	breq	.+4      	; 0x49f8 <__mulsf3+0x1c>
    49f4:	0c 94 9d 24 	jmp	0x493a	; 0x493a <__fp_inf>
    49f8:	0c 94 a3 24 	jmp	0x4946	; 0x4946 <__fp_nan>
    49fc:	11 24       	eor	r1, r1
    49fe:	0c 94 e8 24 	jmp	0x49d0	; 0x49d0 <__fp_szero>

00004a02 <__mulsf3x>:
    4a02:	0e 94 c5 24 	call	0x498a	; 0x498a <__fp_split3>
    4a06:	70 f3       	brcs	.-36     	; 0x49e4 <__mulsf3+0x8>

00004a08 <__mulsf3_pse>:
    4a08:	95 9f       	mul	r25, r21
    4a0a:	c1 f3       	breq	.-16     	; 0x49fc <__mulsf3+0x20>
    4a0c:	95 0f       	add	r25, r21
    4a0e:	50 e0       	ldi	r21, 0x00	; 0
    4a10:	55 1f       	adc	r21, r21
    4a12:	62 9f       	mul	r22, r18
    4a14:	f0 01       	movw	r30, r0
    4a16:	72 9f       	mul	r23, r18
    4a18:	bb 27       	eor	r27, r27
    4a1a:	f0 0d       	add	r31, r0
    4a1c:	b1 1d       	adc	r27, r1
    4a1e:	63 9f       	mul	r22, r19
    4a20:	aa 27       	eor	r26, r26
    4a22:	f0 0d       	add	r31, r0
    4a24:	b1 1d       	adc	r27, r1
    4a26:	aa 1f       	adc	r26, r26
    4a28:	64 9f       	mul	r22, r20
    4a2a:	66 27       	eor	r22, r22
    4a2c:	b0 0d       	add	r27, r0
    4a2e:	a1 1d       	adc	r26, r1
    4a30:	66 1f       	adc	r22, r22
    4a32:	82 9f       	mul	r24, r18
    4a34:	22 27       	eor	r18, r18
    4a36:	b0 0d       	add	r27, r0
    4a38:	a1 1d       	adc	r26, r1
    4a3a:	62 1f       	adc	r22, r18
    4a3c:	73 9f       	mul	r23, r19
    4a3e:	b0 0d       	add	r27, r0
    4a40:	a1 1d       	adc	r26, r1
    4a42:	62 1f       	adc	r22, r18
    4a44:	83 9f       	mul	r24, r19
    4a46:	a0 0d       	add	r26, r0
    4a48:	61 1d       	adc	r22, r1
    4a4a:	22 1f       	adc	r18, r18
    4a4c:	74 9f       	mul	r23, r20
    4a4e:	33 27       	eor	r19, r19
    4a50:	a0 0d       	add	r26, r0
    4a52:	61 1d       	adc	r22, r1
    4a54:	23 1f       	adc	r18, r19
    4a56:	84 9f       	mul	r24, r20
    4a58:	60 0d       	add	r22, r0
    4a5a:	21 1d       	adc	r18, r1
    4a5c:	82 2f       	mov	r24, r18
    4a5e:	76 2f       	mov	r23, r22
    4a60:	6a 2f       	mov	r22, r26
    4a62:	11 24       	eor	r1, r1
    4a64:	9f 57       	subi	r25, 0x7F	; 127
    4a66:	50 40       	sbci	r21, 0x00	; 0
    4a68:	9a f0       	brmi	.+38     	; 0x4a90 <__mulsf3_pse+0x88>
    4a6a:	f1 f0       	breq	.+60     	; 0x4aa8 <__mulsf3_pse+0xa0>
    4a6c:	88 23       	and	r24, r24
    4a6e:	4a f0       	brmi	.+18     	; 0x4a82 <__mulsf3_pse+0x7a>
    4a70:	ee 0f       	add	r30, r30
    4a72:	ff 1f       	adc	r31, r31
    4a74:	bb 1f       	adc	r27, r27
    4a76:	66 1f       	adc	r22, r22
    4a78:	77 1f       	adc	r23, r23
    4a7a:	88 1f       	adc	r24, r24
    4a7c:	91 50       	subi	r25, 0x01	; 1
    4a7e:	50 40       	sbci	r21, 0x00	; 0
    4a80:	a9 f7       	brne	.-22     	; 0x4a6c <__mulsf3_pse+0x64>
    4a82:	9e 3f       	cpi	r25, 0xFE	; 254
    4a84:	51 05       	cpc	r21, r1
    4a86:	80 f0       	brcs	.+32     	; 0x4aa8 <__mulsf3_pse+0xa0>
    4a88:	0c 94 9d 24 	jmp	0x493a	; 0x493a <__fp_inf>
    4a8c:	0c 94 e8 24 	jmp	0x49d0	; 0x49d0 <__fp_szero>
    4a90:	5f 3f       	cpi	r21, 0xFF	; 255
    4a92:	e4 f3       	brlt	.-8      	; 0x4a8c <__mulsf3_pse+0x84>
    4a94:	98 3e       	cpi	r25, 0xE8	; 232
    4a96:	d4 f3       	brlt	.-12     	; 0x4a8c <__mulsf3_pse+0x84>
    4a98:	86 95       	lsr	r24
    4a9a:	77 95       	ror	r23
    4a9c:	67 95       	ror	r22
    4a9e:	b7 95       	ror	r27
    4aa0:	f7 95       	ror	r31
    4aa2:	e7 95       	ror	r30
    4aa4:	9f 5f       	subi	r25, 0xFF	; 255
    4aa6:	c1 f7       	brne	.-16     	; 0x4a98 <__mulsf3_pse+0x90>
    4aa8:	fe 2b       	or	r31, r30
    4aaa:	88 0f       	add	r24, r24
    4aac:	91 1d       	adc	r25, r1
    4aae:	96 95       	lsr	r25
    4ab0:	87 95       	ror	r24
    4ab2:	97 f9       	bld	r25, 7
    4ab4:	08 95       	ret

00004ab6 <vfprintf>:
    4ab6:	a0 e1       	ldi	r26, 0x10	; 16
    4ab8:	b0 e0       	ldi	r27, 0x00	; 0
    4aba:	e1 e6       	ldi	r30, 0x61	; 97
    4abc:	f5 e2       	ldi	r31, 0x25	; 37
    4abe:	0c 94 1b 29 	jmp	0x5236	; 0x5236 <__prologue_saves__>
    4ac2:	7c 01       	movw	r14, r24
    4ac4:	1b 01       	movw	r2, r22
    4ac6:	6a 01       	movw	r12, r20
    4ac8:	fc 01       	movw	r30, r24
    4aca:	17 82       	std	Z+7, r1	; 0x07
    4acc:	16 82       	std	Z+6, r1	; 0x06
    4ace:	83 81       	ldd	r24, Z+3	; 0x03
    4ad0:	81 ff       	sbrs	r24, 1
    4ad2:	44 c3       	rjmp	.+1672   	; 0x515c <vfprintf+0x6a6>
    4ad4:	9e 01       	movw	r18, r28
    4ad6:	2f 5f       	subi	r18, 0xFF	; 255
    4ad8:	3f 4f       	sbci	r19, 0xFF	; 255
    4ada:	39 01       	movw	r6, r18
    4adc:	f7 01       	movw	r30, r14
    4ade:	93 81       	ldd	r25, Z+3	; 0x03
    4ae0:	f1 01       	movw	r30, r2
    4ae2:	93 fd       	sbrc	r25, 3
    4ae4:	85 91       	lpm	r24, Z+
    4ae6:	93 ff       	sbrs	r25, 3
    4ae8:	81 91       	ld	r24, Z+
    4aea:	1f 01       	movw	r2, r30
    4aec:	88 23       	and	r24, r24
    4aee:	09 f4       	brne	.+2      	; 0x4af2 <vfprintf+0x3c>
    4af0:	31 c3       	rjmp	.+1634   	; 0x5154 <vfprintf+0x69e>
    4af2:	85 32       	cpi	r24, 0x25	; 37
    4af4:	39 f4       	brne	.+14     	; 0x4b04 <vfprintf+0x4e>
    4af6:	93 fd       	sbrc	r25, 3
    4af8:	85 91       	lpm	r24, Z+
    4afa:	93 ff       	sbrs	r25, 3
    4afc:	81 91       	ld	r24, Z+
    4afe:	1f 01       	movw	r2, r30
    4b00:	85 32       	cpi	r24, 0x25	; 37
    4b02:	39 f4       	brne	.+14     	; 0x4b12 <vfprintf+0x5c>
    4b04:	b7 01       	movw	r22, r14
    4b06:	90 e0       	ldi	r25, 0x00	; 0
    4b08:	0e 94 7e 2a 	call	0x54fc	; 0x54fc <fputc>
    4b0c:	56 01       	movw	r10, r12
    4b0e:	65 01       	movw	r12, r10
    4b10:	e5 cf       	rjmp	.-54     	; 0x4adc <vfprintf+0x26>
    4b12:	10 e0       	ldi	r17, 0x00	; 0
    4b14:	51 2c       	mov	r5, r1
    4b16:	91 2c       	mov	r9, r1
    4b18:	ff e1       	ldi	r31, 0x1F	; 31
    4b1a:	f9 15       	cp	r31, r9
    4b1c:	d8 f0       	brcs	.+54     	; 0x4b54 <vfprintf+0x9e>
    4b1e:	8b 32       	cpi	r24, 0x2B	; 43
    4b20:	79 f0       	breq	.+30     	; 0x4b40 <vfprintf+0x8a>
    4b22:	38 f4       	brcc	.+14     	; 0x4b32 <vfprintf+0x7c>
    4b24:	80 32       	cpi	r24, 0x20	; 32
    4b26:	79 f0       	breq	.+30     	; 0x4b46 <vfprintf+0x90>
    4b28:	83 32       	cpi	r24, 0x23	; 35
    4b2a:	a1 f4       	brne	.+40     	; 0x4b54 <vfprintf+0x9e>
    4b2c:	f9 2d       	mov	r31, r9
    4b2e:	f0 61       	ori	r31, 0x10	; 16
    4b30:	2e c0       	rjmp	.+92     	; 0x4b8e <vfprintf+0xd8>
    4b32:	8d 32       	cpi	r24, 0x2D	; 45
    4b34:	61 f0       	breq	.+24     	; 0x4b4e <vfprintf+0x98>
    4b36:	80 33       	cpi	r24, 0x30	; 48
    4b38:	69 f4       	brne	.+26     	; 0x4b54 <vfprintf+0x9e>
    4b3a:	29 2d       	mov	r18, r9
    4b3c:	21 60       	ori	r18, 0x01	; 1
    4b3e:	2d c0       	rjmp	.+90     	; 0x4b9a <vfprintf+0xe4>
    4b40:	39 2d       	mov	r19, r9
    4b42:	32 60       	ori	r19, 0x02	; 2
    4b44:	93 2e       	mov	r9, r19
    4b46:	89 2d       	mov	r24, r9
    4b48:	84 60       	ori	r24, 0x04	; 4
    4b4a:	98 2e       	mov	r9, r24
    4b4c:	2a c0       	rjmp	.+84     	; 0x4ba2 <vfprintf+0xec>
    4b4e:	e9 2d       	mov	r30, r9
    4b50:	e8 60       	ori	r30, 0x08	; 8
    4b52:	15 c0       	rjmp	.+42     	; 0x4b7e <vfprintf+0xc8>
    4b54:	97 fc       	sbrc	r9, 7
    4b56:	2d c0       	rjmp	.+90     	; 0x4bb2 <vfprintf+0xfc>
    4b58:	20 ed       	ldi	r18, 0xD0	; 208
    4b5a:	28 0f       	add	r18, r24
    4b5c:	2a 30       	cpi	r18, 0x0A	; 10
    4b5e:	88 f4       	brcc	.+34     	; 0x4b82 <vfprintf+0xcc>
    4b60:	96 fe       	sbrs	r9, 6
    4b62:	06 c0       	rjmp	.+12     	; 0x4b70 <vfprintf+0xba>
    4b64:	3a e0       	ldi	r19, 0x0A	; 10
    4b66:	13 9f       	mul	r17, r19
    4b68:	20 0d       	add	r18, r0
    4b6a:	11 24       	eor	r1, r1
    4b6c:	12 2f       	mov	r17, r18
    4b6e:	19 c0       	rjmp	.+50     	; 0x4ba2 <vfprintf+0xec>
    4b70:	8a e0       	ldi	r24, 0x0A	; 10
    4b72:	58 9e       	mul	r5, r24
    4b74:	20 0d       	add	r18, r0
    4b76:	11 24       	eor	r1, r1
    4b78:	52 2e       	mov	r5, r18
    4b7a:	e9 2d       	mov	r30, r9
    4b7c:	e0 62       	ori	r30, 0x20	; 32
    4b7e:	9e 2e       	mov	r9, r30
    4b80:	10 c0       	rjmp	.+32     	; 0x4ba2 <vfprintf+0xec>
    4b82:	8e 32       	cpi	r24, 0x2E	; 46
    4b84:	31 f4       	brne	.+12     	; 0x4b92 <vfprintf+0xdc>
    4b86:	96 fc       	sbrc	r9, 6
    4b88:	e5 c2       	rjmp	.+1482   	; 0x5154 <vfprintf+0x69e>
    4b8a:	f9 2d       	mov	r31, r9
    4b8c:	f0 64       	ori	r31, 0x40	; 64
    4b8e:	9f 2e       	mov	r9, r31
    4b90:	08 c0       	rjmp	.+16     	; 0x4ba2 <vfprintf+0xec>
    4b92:	8c 36       	cpi	r24, 0x6C	; 108
    4b94:	21 f4       	brne	.+8      	; 0x4b9e <vfprintf+0xe8>
    4b96:	29 2d       	mov	r18, r9
    4b98:	20 68       	ori	r18, 0x80	; 128
    4b9a:	92 2e       	mov	r9, r18
    4b9c:	02 c0       	rjmp	.+4      	; 0x4ba2 <vfprintf+0xec>
    4b9e:	88 36       	cpi	r24, 0x68	; 104
    4ba0:	41 f4       	brne	.+16     	; 0x4bb2 <vfprintf+0xfc>
    4ba2:	f1 01       	movw	r30, r2
    4ba4:	93 fd       	sbrc	r25, 3
    4ba6:	85 91       	lpm	r24, Z+
    4ba8:	93 ff       	sbrs	r25, 3
    4baa:	81 91       	ld	r24, Z+
    4bac:	1f 01       	movw	r2, r30
    4bae:	81 11       	cpse	r24, r1
    4bb0:	b3 cf       	rjmp	.-154    	; 0x4b18 <vfprintf+0x62>
    4bb2:	9b eb       	ldi	r25, 0xBB	; 187
    4bb4:	98 0f       	add	r25, r24
    4bb6:	93 30       	cpi	r25, 0x03	; 3
    4bb8:	20 f4       	brcc	.+8      	; 0x4bc2 <vfprintf+0x10c>
    4bba:	99 2d       	mov	r25, r9
    4bbc:	90 61       	ori	r25, 0x10	; 16
    4bbe:	80 5e       	subi	r24, 0xE0	; 224
    4bc0:	07 c0       	rjmp	.+14     	; 0x4bd0 <vfprintf+0x11a>
    4bc2:	9b e9       	ldi	r25, 0x9B	; 155
    4bc4:	98 0f       	add	r25, r24
    4bc6:	93 30       	cpi	r25, 0x03	; 3
    4bc8:	08 f0       	brcs	.+2      	; 0x4bcc <vfprintf+0x116>
    4bca:	66 c1       	rjmp	.+716    	; 0x4e98 <vfprintf+0x3e2>
    4bcc:	99 2d       	mov	r25, r9
    4bce:	9f 7e       	andi	r25, 0xEF	; 239
    4bd0:	96 ff       	sbrs	r25, 6
    4bd2:	16 e0       	ldi	r17, 0x06	; 6
    4bd4:	9f 73       	andi	r25, 0x3F	; 63
    4bd6:	99 2e       	mov	r9, r25
    4bd8:	85 36       	cpi	r24, 0x65	; 101
    4bda:	19 f4       	brne	.+6      	; 0x4be2 <vfprintf+0x12c>
    4bdc:	90 64       	ori	r25, 0x40	; 64
    4bde:	99 2e       	mov	r9, r25
    4be0:	08 c0       	rjmp	.+16     	; 0x4bf2 <vfprintf+0x13c>
    4be2:	86 36       	cpi	r24, 0x66	; 102
    4be4:	21 f4       	brne	.+8      	; 0x4bee <vfprintf+0x138>
    4be6:	39 2f       	mov	r19, r25
    4be8:	30 68       	ori	r19, 0x80	; 128
    4bea:	93 2e       	mov	r9, r19
    4bec:	02 c0       	rjmp	.+4      	; 0x4bf2 <vfprintf+0x13c>
    4bee:	11 11       	cpse	r17, r1
    4bf0:	11 50       	subi	r17, 0x01	; 1
    4bf2:	97 fe       	sbrs	r9, 7
    4bf4:	07 c0       	rjmp	.+14     	; 0x4c04 <vfprintf+0x14e>
    4bf6:	1c 33       	cpi	r17, 0x3C	; 60
    4bf8:	50 f4       	brcc	.+20     	; 0x4c0e <vfprintf+0x158>
    4bfa:	44 24       	eor	r4, r4
    4bfc:	43 94       	inc	r4
    4bfe:	41 0e       	add	r4, r17
    4c00:	27 e0       	ldi	r18, 0x07	; 7
    4c02:	0b c0       	rjmp	.+22     	; 0x4c1a <vfprintf+0x164>
    4c04:	18 30       	cpi	r17, 0x08	; 8
    4c06:	38 f0       	brcs	.+14     	; 0x4c16 <vfprintf+0x160>
    4c08:	27 e0       	ldi	r18, 0x07	; 7
    4c0a:	17 e0       	ldi	r17, 0x07	; 7
    4c0c:	05 c0       	rjmp	.+10     	; 0x4c18 <vfprintf+0x162>
    4c0e:	27 e0       	ldi	r18, 0x07	; 7
    4c10:	9c e3       	ldi	r25, 0x3C	; 60
    4c12:	49 2e       	mov	r4, r25
    4c14:	02 c0       	rjmp	.+4      	; 0x4c1a <vfprintf+0x164>
    4c16:	21 2f       	mov	r18, r17
    4c18:	41 2c       	mov	r4, r1
    4c1a:	56 01       	movw	r10, r12
    4c1c:	84 e0       	ldi	r24, 0x04	; 4
    4c1e:	a8 0e       	add	r10, r24
    4c20:	b1 1c       	adc	r11, r1
    4c22:	f6 01       	movw	r30, r12
    4c24:	60 81       	ld	r22, Z
    4c26:	71 81       	ldd	r23, Z+1	; 0x01
    4c28:	82 81       	ldd	r24, Z+2	; 0x02
    4c2a:	93 81       	ldd	r25, Z+3	; 0x03
    4c2c:	04 2d       	mov	r16, r4
    4c2e:	a3 01       	movw	r20, r6
    4c30:	0e 94 7f 29 	call	0x52fe	; 0x52fe <__ftoa_engine>
    4c34:	6c 01       	movw	r12, r24
    4c36:	f9 81       	ldd	r31, Y+1	; 0x01
    4c38:	fc 87       	std	Y+12, r31	; 0x0c
    4c3a:	f0 ff       	sbrs	r31, 0
    4c3c:	02 c0       	rjmp	.+4      	; 0x4c42 <vfprintf+0x18c>
    4c3e:	f3 ff       	sbrs	r31, 3
    4c40:	06 c0       	rjmp	.+12     	; 0x4c4e <vfprintf+0x198>
    4c42:	91 fc       	sbrc	r9, 1
    4c44:	06 c0       	rjmp	.+12     	; 0x4c52 <vfprintf+0x19c>
    4c46:	92 fe       	sbrs	r9, 2
    4c48:	06 c0       	rjmp	.+12     	; 0x4c56 <vfprintf+0x1a0>
    4c4a:	00 e2       	ldi	r16, 0x20	; 32
    4c4c:	05 c0       	rjmp	.+10     	; 0x4c58 <vfprintf+0x1a2>
    4c4e:	0d e2       	ldi	r16, 0x2D	; 45
    4c50:	03 c0       	rjmp	.+6      	; 0x4c58 <vfprintf+0x1a2>
    4c52:	0b e2       	ldi	r16, 0x2B	; 43
    4c54:	01 c0       	rjmp	.+2      	; 0x4c58 <vfprintf+0x1a2>
    4c56:	00 e0       	ldi	r16, 0x00	; 0
    4c58:	8c 85       	ldd	r24, Y+12	; 0x0c
    4c5a:	8c 70       	andi	r24, 0x0C	; 12
    4c5c:	19 f0       	breq	.+6      	; 0x4c64 <vfprintf+0x1ae>
    4c5e:	01 11       	cpse	r16, r1
    4c60:	5a c2       	rjmp	.+1204   	; 0x5116 <vfprintf+0x660>
    4c62:	9b c2       	rjmp	.+1334   	; 0x519a <vfprintf+0x6e4>
    4c64:	97 fe       	sbrs	r9, 7
    4c66:	10 c0       	rjmp	.+32     	; 0x4c88 <vfprintf+0x1d2>
    4c68:	4c 0c       	add	r4, r12
    4c6a:	fc 85       	ldd	r31, Y+12	; 0x0c
    4c6c:	f4 ff       	sbrs	r31, 4
    4c6e:	04 c0       	rjmp	.+8      	; 0x4c78 <vfprintf+0x1c2>
    4c70:	8a 81       	ldd	r24, Y+2	; 0x02
    4c72:	81 33       	cpi	r24, 0x31	; 49
    4c74:	09 f4       	brne	.+2      	; 0x4c78 <vfprintf+0x1c2>
    4c76:	4a 94       	dec	r4
    4c78:	14 14       	cp	r1, r4
    4c7a:	74 f5       	brge	.+92     	; 0x4cd8 <vfprintf+0x222>
    4c7c:	28 e0       	ldi	r18, 0x08	; 8
    4c7e:	24 15       	cp	r18, r4
    4c80:	78 f5       	brcc	.+94     	; 0x4ce0 <vfprintf+0x22a>
    4c82:	88 e0       	ldi	r24, 0x08	; 8
    4c84:	48 2e       	mov	r4, r24
    4c86:	2c c0       	rjmp	.+88     	; 0x4ce0 <vfprintf+0x22a>
    4c88:	96 fc       	sbrc	r9, 6
    4c8a:	2a c0       	rjmp	.+84     	; 0x4ce0 <vfprintf+0x22a>
    4c8c:	81 2f       	mov	r24, r17
    4c8e:	90 e0       	ldi	r25, 0x00	; 0
    4c90:	8c 15       	cp	r24, r12
    4c92:	9d 05       	cpc	r25, r13
    4c94:	9c f0       	brlt	.+38     	; 0x4cbc <vfprintf+0x206>
    4c96:	3c ef       	ldi	r19, 0xFC	; 252
    4c98:	c3 16       	cp	r12, r19
    4c9a:	3f ef       	ldi	r19, 0xFF	; 255
    4c9c:	d3 06       	cpc	r13, r19
    4c9e:	74 f0       	brlt	.+28     	; 0x4cbc <vfprintf+0x206>
    4ca0:	89 2d       	mov	r24, r9
    4ca2:	80 68       	ori	r24, 0x80	; 128
    4ca4:	98 2e       	mov	r9, r24
    4ca6:	0a c0       	rjmp	.+20     	; 0x4cbc <vfprintf+0x206>
    4ca8:	e2 e0       	ldi	r30, 0x02	; 2
    4caa:	f0 e0       	ldi	r31, 0x00	; 0
    4cac:	ec 0f       	add	r30, r28
    4cae:	fd 1f       	adc	r31, r29
    4cb0:	e1 0f       	add	r30, r17
    4cb2:	f1 1d       	adc	r31, r1
    4cb4:	80 81       	ld	r24, Z
    4cb6:	80 33       	cpi	r24, 0x30	; 48
    4cb8:	19 f4       	brne	.+6      	; 0x4cc0 <vfprintf+0x20a>
    4cba:	11 50       	subi	r17, 0x01	; 1
    4cbc:	11 11       	cpse	r17, r1
    4cbe:	f4 cf       	rjmp	.-24     	; 0x4ca8 <vfprintf+0x1f2>
    4cc0:	97 fe       	sbrs	r9, 7
    4cc2:	0e c0       	rjmp	.+28     	; 0x4ce0 <vfprintf+0x22a>
    4cc4:	44 24       	eor	r4, r4
    4cc6:	43 94       	inc	r4
    4cc8:	41 0e       	add	r4, r17
    4cca:	81 2f       	mov	r24, r17
    4ccc:	90 e0       	ldi	r25, 0x00	; 0
    4cce:	c8 16       	cp	r12, r24
    4cd0:	d9 06       	cpc	r13, r25
    4cd2:	2c f4       	brge	.+10     	; 0x4cde <vfprintf+0x228>
    4cd4:	1c 19       	sub	r17, r12
    4cd6:	04 c0       	rjmp	.+8      	; 0x4ce0 <vfprintf+0x22a>
    4cd8:	44 24       	eor	r4, r4
    4cda:	43 94       	inc	r4
    4cdc:	01 c0       	rjmp	.+2      	; 0x4ce0 <vfprintf+0x22a>
    4cde:	10 e0       	ldi	r17, 0x00	; 0
    4ce0:	97 fe       	sbrs	r9, 7
    4ce2:	06 c0       	rjmp	.+12     	; 0x4cf0 <vfprintf+0x23a>
    4ce4:	1c 14       	cp	r1, r12
    4ce6:	1d 04       	cpc	r1, r13
    4ce8:	34 f4       	brge	.+12     	; 0x4cf6 <vfprintf+0x240>
    4cea:	c6 01       	movw	r24, r12
    4cec:	01 96       	adiw	r24, 0x01	; 1
    4cee:	05 c0       	rjmp	.+10     	; 0x4cfa <vfprintf+0x244>
    4cf0:	85 e0       	ldi	r24, 0x05	; 5
    4cf2:	90 e0       	ldi	r25, 0x00	; 0
    4cf4:	02 c0       	rjmp	.+4      	; 0x4cfa <vfprintf+0x244>
    4cf6:	81 e0       	ldi	r24, 0x01	; 1
    4cf8:	90 e0       	ldi	r25, 0x00	; 0
    4cfa:	01 11       	cpse	r16, r1
    4cfc:	01 96       	adiw	r24, 0x01	; 1
    4cfe:	11 23       	and	r17, r17
    4d00:	31 f0       	breq	.+12     	; 0x4d0e <vfprintf+0x258>
    4d02:	21 2f       	mov	r18, r17
    4d04:	30 e0       	ldi	r19, 0x00	; 0
    4d06:	2f 5f       	subi	r18, 0xFF	; 255
    4d08:	3f 4f       	sbci	r19, 0xFF	; 255
    4d0a:	82 0f       	add	r24, r18
    4d0c:	93 1f       	adc	r25, r19
    4d0e:	25 2d       	mov	r18, r5
    4d10:	30 e0       	ldi	r19, 0x00	; 0
    4d12:	82 17       	cp	r24, r18
    4d14:	93 07       	cpc	r25, r19
    4d16:	14 f4       	brge	.+4      	; 0x4d1c <vfprintf+0x266>
    4d18:	58 1a       	sub	r5, r24
    4d1a:	01 c0       	rjmp	.+2      	; 0x4d1e <vfprintf+0x268>
    4d1c:	51 2c       	mov	r5, r1
    4d1e:	89 2d       	mov	r24, r9
    4d20:	89 70       	andi	r24, 0x09	; 9
    4d22:	49 f4       	brne	.+18     	; 0x4d36 <vfprintf+0x280>
    4d24:	55 20       	and	r5, r5
    4d26:	39 f0       	breq	.+14     	; 0x4d36 <vfprintf+0x280>
    4d28:	b7 01       	movw	r22, r14
    4d2a:	80 e2       	ldi	r24, 0x20	; 32
    4d2c:	90 e0       	ldi	r25, 0x00	; 0
    4d2e:	0e 94 7e 2a 	call	0x54fc	; 0x54fc <fputc>
    4d32:	5a 94       	dec	r5
    4d34:	f7 cf       	rjmp	.-18     	; 0x4d24 <vfprintf+0x26e>
    4d36:	00 23       	and	r16, r16
    4d38:	29 f0       	breq	.+10     	; 0x4d44 <vfprintf+0x28e>
    4d3a:	b7 01       	movw	r22, r14
    4d3c:	80 2f       	mov	r24, r16
    4d3e:	90 e0       	ldi	r25, 0x00	; 0
    4d40:	0e 94 7e 2a 	call	0x54fc	; 0x54fc <fputc>
    4d44:	93 fc       	sbrc	r9, 3
    4d46:	09 c0       	rjmp	.+18     	; 0x4d5a <vfprintf+0x2a4>
    4d48:	55 20       	and	r5, r5
    4d4a:	39 f0       	breq	.+14     	; 0x4d5a <vfprintf+0x2a4>
    4d4c:	b7 01       	movw	r22, r14
    4d4e:	80 e3       	ldi	r24, 0x30	; 48
    4d50:	90 e0       	ldi	r25, 0x00	; 0
    4d52:	0e 94 7e 2a 	call	0x54fc	; 0x54fc <fputc>
    4d56:	5a 94       	dec	r5
    4d58:	f7 cf       	rjmp	.-18     	; 0x4d48 <vfprintf+0x292>
    4d5a:	97 fe       	sbrs	r9, 7
    4d5c:	4c c0       	rjmp	.+152    	; 0x4df6 <vfprintf+0x340>
    4d5e:	46 01       	movw	r8, r12
    4d60:	d7 fe       	sbrs	r13, 7
    4d62:	02 c0       	rjmp	.+4      	; 0x4d68 <vfprintf+0x2b2>
    4d64:	81 2c       	mov	r8, r1
    4d66:	91 2c       	mov	r9, r1
    4d68:	c6 01       	movw	r24, r12
    4d6a:	88 19       	sub	r24, r8
    4d6c:	99 09       	sbc	r25, r9
    4d6e:	f3 01       	movw	r30, r6
    4d70:	e8 0f       	add	r30, r24
    4d72:	f9 1f       	adc	r31, r25
    4d74:	fe 87       	std	Y+14, r31	; 0x0e
    4d76:	ed 87       	std	Y+13, r30	; 0x0d
    4d78:	96 01       	movw	r18, r12
    4d7a:	24 19       	sub	r18, r4
    4d7c:	31 09       	sbc	r19, r1
    4d7e:	38 8b       	std	Y+16, r19	; 0x10
    4d80:	2f 87       	std	Y+15, r18	; 0x0f
    4d82:	01 2f       	mov	r16, r17
    4d84:	10 e0       	ldi	r17, 0x00	; 0
    4d86:	11 95       	neg	r17
    4d88:	01 95       	neg	r16
    4d8a:	11 09       	sbc	r17, r1
    4d8c:	3f ef       	ldi	r19, 0xFF	; 255
    4d8e:	83 16       	cp	r8, r19
    4d90:	93 06       	cpc	r9, r19
    4d92:	29 f4       	brne	.+10     	; 0x4d9e <vfprintf+0x2e8>
    4d94:	b7 01       	movw	r22, r14
    4d96:	8e e2       	ldi	r24, 0x2E	; 46
    4d98:	90 e0       	ldi	r25, 0x00	; 0
    4d9a:	0e 94 7e 2a 	call	0x54fc	; 0x54fc <fputc>
    4d9e:	c8 14       	cp	r12, r8
    4da0:	d9 04       	cpc	r13, r9
    4da2:	4c f0       	brlt	.+18     	; 0x4db6 <vfprintf+0x300>
    4da4:	8f 85       	ldd	r24, Y+15	; 0x0f
    4da6:	98 89       	ldd	r25, Y+16	; 0x10
    4da8:	88 15       	cp	r24, r8
    4daa:	99 05       	cpc	r25, r9
    4dac:	24 f4       	brge	.+8      	; 0x4db6 <vfprintf+0x300>
    4dae:	ed 85       	ldd	r30, Y+13	; 0x0d
    4db0:	fe 85       	ldd	r31, Y+14	; 0x0e
    4db2:	81 81       	ldd	r24, Z+1	; 0x01
    4db4:	01 c0       	rjmp	.+2      	; 0x4db8 <vfprintf+0x302>
    4db6:	80 e3       	ldi	r24, 0x30	; 48
    4db8:	f1 e0       	ldi	r31, 0x01	; 1
    4dba:	8f 1a       	sub	r8, r31
    4dbc:	91 08       	sbc	r9, r1
    4dbe:	2d 85       	ldd	r18, Y+13	; 0x0d
    4dc0:	3e 85       	ldd	r19, Y+14	; 0x0e
    4dc2:	2f 5f       	subi	r18, 0xFF	; 255
    4dc4:	3f 4f       	sbci	r19, 0xFF	; 255
    4dc6:	3e 87       	std	Y+14, r19	; 0x0e
    4dc8:	2d 87       	std	Y+13, r18	; 0x0d
    4dca:	80 16       	cp	r8, r16
    4dcc:	91 06       	cpc	r9, r17
    4dce:	2c f0       	brlt	.+10     	; 0x4dda <vfprintf+0x324>
    4dd0:	b7 01       	movw	r22, r14
    4dd2:	90 e0       	ldi	r25, 0x00	; 0
    4dd4:	0e 94 7e 2a 	call	0x54fc	; 0x54fc <fputc>
    4dd8:	d9 cf       	rjmp	.-78     	; 0x4d8c <vfprintf+0x2d6>
    4dda:	c8 14       	cp	r12, r8
    4ddc:	d9 04       	cpc	r13, r9
    4dde:	41 f4       	brne	.+16     	; 0x4df0 <vfprintf+0x33a>
    4de0:	9a 81       	ldd	r25, Y+2	; 0x02
    4de2:	96 33       	cpi	r25, 0x36	; 54
    4de4:	20 f4       	brcc	.+8      	; 0x4dee <vfprintf+0x338>
    4de6:	95 33       	cpi	r25, 0x35	; 53
    4de8:	19 f4       	brne	.+6      	; 0x4df0 <vfprintf+0x33a>
    4dea:	3c 85       	ldd	r19, Y+12	; 0x0c
    4dec:	34 ff       	sbrs	r19, 4
    4dee:	81 e3       	ldi	r24, 0x31	; 49
    4df0:	b7 01       	movw	r22, r14
    4df2:	90 e0       	ldi	r25, 0x00	; 0
    4df4:	4e c0       	rjmp	.+156    	; 0x4e92 <vfprintf+0x3dc>
    4df6:	8a 81       	ldd	r24, Y+2	; 0x02
    4df8:	81 33       	cpi	r24, 0x31	; 49
    4dfa:	19 f0       	breq	.+6      	; 0x4e02 <vfprintf+0x34c>
    4dfc:	9c 85       	ldd	r25, Y+12	; 0x0c
    4dfe:	9f 7e       	andi	r25, 0xEF	; 239
    4e00:	9c 87       	std	Y+12, r25	; 0x0c
    4e02:	b7 01       	movw	r22, r14
    4e04:	90 e0       	ldi	r25, 0x00	; 0
    4e06:	0e 94 7e 2a 	call	0x54fc	; 0x54fc <fputc>
    4e0a:	11 11       	cpse	r17, r1
    4e0c:	05 c0       	rjmp	.+10     	; 0x4e18 <vfprintf+0x362>
    4e0e:	94 fc       	sbrc	r9, 4
    4e10:	18 c0       	rjmp	.+48     	; 0x4e42 <vfprintf+0x38c>
    4e12:	85 e6       	ldi	r24, 0x65	; 101
    4e14:	90 e0       	ldi	r25, 0x00	; 0
    4e16:	17 c0       	rjmp	.+46     	; 0x4e46 <vfprintf+0x390>
    4e18:	b7 01       	movw	r22, r14
    4e1a:	8e e2       	ldi	r24, 0x2E	; 46
    4e1c:	90 e0       	ldi	r25, 0x00	; 0
    4e1e:	0e 94 7e 2a 	call	0x54fc	; 0x54fc <fputc>
    4e22:	1e 5f       	subi	r17, 0xFE	; 254
    4e24:	82 e0       	ldi	r24, 0x02	; 2
    4e26:	01 e0       	ldi	r16, 0x01	; 1
    4e28:	08 0f       	add	r16, r24
    4e2a:	f3 01       	movw	r30, r6
    4e2c:	e8 0f       	add	r30, r24
    4e2e:	f1 1d       	adc	r31, r1
    4e30:	80 81       	ld	r24, Z
    4e32:	b7 01       	movw	r22, r14
    4e34:	90 e0       	ldi	r25, 0x00	; 0
    4e36:	0e 94 7e 2a 	call	0x54fc	; 0x54fc <fputc>
    4e3a:	80 2f       	mov	r24, r16
    4e3c:	01 13       	cpse	r16, r17
    4e3e:	f3 cf       	rjmp	.-26     	; 0x4e26 <vfprintf+0x370>
    4e40:	e6 cf       	rjmp	.-52     	; 0x4e0e <vfprintf+0x358>
    4e42:	85 e4       	ldi	r24, 0x45	; 69
    4e44:	90 e0       	ldi	r25, 0x00	; 0
    4e46:	b7 01       	movw	r22, r14
    4e48:	0e 94 7e 2a 	call	0x54fc	; 0x54fc <fputc>
    4e4c:	d7 fc       	sbrc	r13, 7
    4e4e:	06 c0       	rjmp	.+12     	; 0x4e5c <vfprintf+0x3a6>
    4e50:	c1 14       	cp	r12, r1
    4e52:	d1 04       	cpc	r13, r1
    4e54:	41 f4       	brne	.+16     	; 0x4e66 <vfprintf+0x3b0>
    4e56:	ec 85       	ldd	r30, Y+12	; 0x0c
    4e58:	e4 ff       	sbrs	r30, 4
    4e5a:	05 c0       	rjmp	.+10     	; 0x4e66 <vfprintf+0x3b0>
    4e5c:	d1 94       	neg	r13
    4e5e:	c1 94       	neg	r12
    4e60:	d1 08       	sbc	r13, r1
    4e62:	8d e2       	ldi	r24, 0x2D	; 45
    4e64:	01 c0       	rjmp	.+2      	; 0x4e68 <vfprintf+0x3b2>
    4e66:	8b e2       	ldi	r24, 0x2B	; 43
    4e68:	b7 01       	movw	r22, r14
    4e6a:	90 e0       	ldi	r25, 0x00	; 0
    4e6c:	0e 94 7e 2a 	call	0x54fc	; 0x54fc <fputc>
    4e70:	80 e3       	ldi	r24, 0x30	; 48
    4e72:	2a e0       	ldi	r18, 0x0A	; 10
    4e74:	c2 16       	cp	r12, r18
    4e76:	d1 04       	cpc	r13, r1
    4e78:	2c f0       	brlt	.+10     	; 0x4e84 <vfprintf+0x3ce>
    4e7a:	8f 5f       	subi	r24, 0xFF	; 255
    4e7c:	fa e0       	ldi	r31, 0x0A	; 10
    4e7e:	cf 1a       	sub	r12, r31
    4e80:	d1 08       	sbc	r13, r1
    4e82:	f7 cf       	rjmp	.-18     	; 0x4e72 <vfprintf+0x3bc>
    4e84:	b7 01       	movw	r22, r14
    4e86:	90 e0       	ldi	r25, 0x00	; 0
    4e88:	0e 94 7e 2a 	call	0x54fc	; 0x54fc <fputc>
    4e8c:	b7 01       	movw	r22, r14
    4e8e:	c6 01       	movw	r24, r12
    4e90:	c0 96       	adiw	r24, 0x30	; 48
    4e92:	0e 94 7e 2a 	call	0x54fc	; 0x54fc <fputc>
    4e96:	54 c1       	rjmp	.+680    	; 0x5140 <vfprintf+0x68a>
    4e98:	83 36       	cpi	r24, 0x63	; 99
    4e9a:	31 f0       	breq	.+12     	; 0x4ea8 <vfprintf+0x3f2>
    4e9c:	83 37       	cpi	r24, 0x73	; 115
    4e9e:	79 f0       	breq	.+30     	; 0x4ebe <vfprintf+0x408>
    4ea0:	83 35       	cpi	r24, 0x53	; 83
    4ea2:	09 f0       	breq	.+2      	; 0x4ea6 <vfprintf+0x3f0>
    4ea4:	56 c0       	rjmp	.+172    	; 0x4f52 <vfprintf+0x49c>
    4ea6:	20 c0       	rjmp	.+64     	; 0x4ee8 <vfprintf+0x432>
    4ea8:	56 01       	movw	r10, r12
    4eaa:	32 e0       	ldi	r19, 0x02	; 2
    4eac:	a3 0e       	add	r10, r19
    4eae:	b1 1c       	adc	r11, r1
    4eb0:	f6 01       	movw	r30, r12
    4eb2:	80 81       	ld	r24, Z
    4eb4:	89 83       	std	Y+1, r24	; 0x01
    4eb6:	01 e0       	ldi	r16, 0x01	; 1
    4eb8:	10 e0       	ldi	r17, 0x00	; 0
    4eba:	63 01       	movw	r12, r6
    4ebc:	12 c0       	rjmp	.+36     	; 0x4ee2 <vfprintf+0x42c>
    4ebe:	56 01       	movw	r10, r12
    4ec0:	f2 e0       	ldi	r31, 0x02	; 2
    4ec2:	af 0e       	add	r10, r31
    4ec4:	b1 1c       	adc	r11, r1
    4ec6:	f6 01       	movw	r30, r12
    4ec8:	c0 80       	ld	r12, Z
    4eca:	d1 80       	ldd	r13, Z+1	; 0x01
    4ecc:	96 fe       	sbrs	r9, 6
    4ece:	03 c0       	rjmp	.+6      	; 0x4ed6 <vfprintf+0x420>
    4ed0:	61 2f       	mov	r22, r17
    4ed2:	70 e0       	ldi	r23, 0x00	; 0
    4ed4:	02 c0       	rjmp	.+4      	; 0x4eda <vfprintf+0x424>
    4ed6:	6f ef       	ldi	r22, 0xFF	; 255
    4ed8:	7f ef       	ldi	r23, 0xFF	; 255
    4eda:	c6 01       	movw	r24, r12
    4edc:	0e 94 6b 2a 	call	0x54d6	; 0x54d6 <strnlen>
    4ee0:	8c 01       	movw	r16, r24
    4ee2:	f9 2d       	mov	r31, r9
    4ee4:	ff 77       	andi	r31, 0x7F	; 127
    4ee6:	14 c0       	rjmp	.+40     	; 0x4f10 <vfprintf+0x45a>
    4ee8:	56 01       	movw	r10, r12
    4eea:	22 e0       	ldi	r18, 0x02	; 2
    4eec:	a2 0e       	add	r10, r18
    4eee:	b1 1c       	adc	r11, r1
    4ef0:	f6 01       	movw	r30, r12
    4ef2:	c0 80       	ld	r12, Z
    4ef4:	d1 80       	ldd	r13, Z+1	; 0x01
    4ef6:	96 fe       	sbrs	r9, 6
    4ef8:	03 c0       	rjmp	.+6      	; 0x4f00 <vfprintf+0x44a>
    4efa:	61 2f       	mov	r22, r17
    4efc:	70 e0       	ldi	r23, 0x00	; 0
    4efe:	02 c0       	rjmp	.+4      	; 0x4f04 <vfprintf+0x44e>
    4f00:	6f ef       	ldi	r22, 0xFF	; 255
    4f02:	7f ef       	ldi	r23, 0xFF	; 255
    4f04:	c6 01       	movw	r24, r12
    4f06:	0e 94 57 2a 	call	0x54ae	; 0x54ae <strnlen_P>
    4f0a:	8c 01       	movw	r16, r24
    4f0c:	f9 2d       	mov	r31, r9
    4f0e:	f0 68       	ori	r31, 0x80	; 128
    4f10:	9f 2e       	mov	r9, r31
    4f12:	f3 fd       	sbrc	r31, 3
    4f14:	1a c0       	rjmp	.+52     	; 0x4f4a <vfprintf+0x494>
    4f16:	85 2d       	mov	r24, r5
    4f18:	90 e0       	ldi	r25, 0x00	; 0
    4f1a:	08 17       	cp	r16, r24
    4f1c:	19 07       	cpc	r17, r25
    4f1e:	a8 f4       	brcc	.+42     	; 0x4f4a <vfprintf+0x494>
    4f20:	b7 01       	movw	r22, r14
    4f22:	80 e2       	ldi	r24, 0x20	; 32
    4f24:	90 e0       	ldi	r25, 0x00	; 0
    4f26:	0e 94 7e 2a 	call	0x54fc	; 0x54fc <fputc>
    4f2a:	5a 94       	dec	r5
    4f2c:	f4 cf       	rjmp	.-24     	; 0x4f16 <vfprintf+0x460>
    4f2e:	f6 01       	movw	r30, r12
    4f30:	97 fc       	sbrc	r9, 7
    4f32:	85 91       	lpm	r24, Z+
    4f34:	97 fe       	sbrs	r9, 7
    4f36:	81 91       	ld	r24, Z+
    4f38:	6f 01       	movw	r12, r30
    4f3a:	b7 01       	movw	r22, r14
    4f3c:	90 e0       	ldi	r25, 0x00	; 0
    4f3e:	0e 94 7e 2a 	call	0x54fc	; 0x54fc <fputc>
    4f42:	51 10       	cpse	r5, r1
    4f44:	5a 94       	dec	r5
    4f46:	01 50       	subi	r16, 0x01	; 1
    4f48:	11 09       	sbc	r17, r1
    4f4a:	01 15       	cp	r16, r1
    4f4c:	11 05       	cpc	r17, r1
    4f4e:	79 f7       	brne	.-34     	; 0x4f2e <vfprintf+0x478>
    4f50:	f7 c0       	rjmp	.+494    	; 0x5140 <vfprintf+0x68a>
    4f52:	84 36       	cpi	r24, 0x64	; 100
    4f54:	11 f0       	breq	.+4      	; 0x4f5a <vfprintf+0x4a4>
    4f56:	89 36       	cpi	r24, 0x69	; 105
    4f58:	61 f5       	brne	.+88     	; 0x4fb2 <vfprintf+0x4fc>
    4f5a:	56 01       	movw	r10, r12
    4f5c:	97 fe       	sbrs	r9, 7
    4f5e:	09 c0       	rjmp	.+18     	; 0x4f72 <vfprintf+0x4bc>
    4f60:	24 e0       	ldi	r18, 0x04	; 4
    4f62:	a2 0e       	add	r10, r18
    4f64:	b1 1c       	adc	r11, r1
    4f66:	f6 01       	movw	r30, r12
    4f68:	60 81       	ld	r22, Z
    4f6a:	71 81       	ldd	r23, Z+1	; 0x01
    4f6c:	82 81       	ldd	r24, Z+2	; 0x02
    4f6e:	93 81       	ldd	r25, Z+3	; 0x03
    4f70:	0a c0       	rjmp	.+20     	; 0x4f86 <vfprintf+0x4d0>
    4f72:	f2 e0       	ldi	r31, 0x02	; 2
    4f74:	af 0e       	add	r10, r31
    4f76:	b1 1c       	adc	r11, r1
    4f78:	f6 01       	movw	r30, r12
    4f7a:	60 81       	ld	r22, Z
    4f7c:	71 81       	ldd	r23, Z+1	; 0x01
    4f7e:	07 2e       	mov	r0, r23
    4f80:	00 0c       	add	r0, r0
    4f82:	88 0b       	sbc	r24, r24
    4f84:	99 0b       	sbc	r25, r25
    4f86:	f9 2d       	mov	r31, r9
    4f88:	ff 76       	andi	r31, 0x6F	; 111
    4f8a:	9f 2e       	mov	r9, r31
    4f8c:	97 ff       	sbrs	r25, 7
    4f8e:	09 c0       	rjmp	.+18     	; 0x4fa2 <vfprintf+0x4ec>
    4f90:	90 95       	com	r25
    4f92:	80 95       	com	r24
    4f94:	70 95       	com	r23
    4f96:	61 95       	neg	r22
    4f98:	7f 4f       	sbci	r23, 0xFF	; 255
    4f9a:	8f 4f       	sbci	r24, 0xFF	; 255
    4f9c:	9f 4f       	sbci	r25, 0xFF	; 255
    4f9e:	f0 68       	ori	r31, 0x80	; 128
    4fa0:	9f 2e       	mov	r9, r31
    4fa2:	2a e0       	ldi	r18, 0x0A	; 10
    4fa4:	30 e0       	ldi	r19, 0x00	; 0
    4fa6:	a3 01       	movw	r20, r6
    4fa8:	0e 94 dc 2a 	call	0x55b8	; 0x55b8 <__ultoa_invert>
    4fac:	c8 2e       	mov	r12, r24
    4fae:	c6 18       	sub	r12, r6
    4fb0:	3f c0       	rjmp	.+126    	; 0x5030 <vfprintf+0x57a>
    4fb2:	09 2d       	mov	r16, r9
    4fb4:	85 37       	cpi	r24, 0x75	; 117
    4fb6:	21 f4       	brne	.+8      	; 0x4fc0 <vfprintf+0x50a>
    4fb8:	0f 7e       	andi	r16, 0xEF	; 239
    4fba:	2a e0       	ldi	r18, 0x0A	; 10
    4fbc:	30 e0       	ldi	r19, 0x00	; 0
    4fbe:	1d c0       	rjmp	.+58     	; 0x4ffa <vfprintf+0x544>
    4fc0:	09 7f       	andi	r16, 0xF9	; 249
    4fc2:	8f 36       	cpi	r24, 0x6F	; 111
    4fc4:	91 f0       	breq	.+36     	; 0x4fea <vfprintf+0x534>
    4fc6:	18 f4       	brcc	.+6      	; 0x4fce <vfprintf+0x518>
    4fc8:	88 35       	cpi	r24, 0x58	; 88
    4fca:	59 f0       	breq	.+22     	; 0x4fe2 <vfprintf+0x52c>
    4fcc:	c3 c0       	rjmp	.+390    	; 0x5154 <vfprintf+0x69e>
    4fce:	80 37       	cpi	r24, 0x70	; 112
    4fd0:	19 f0       	breq	.+6      	; 0x4fd8 <vfprintf+0x522>
    4fd2:	88 37       	cpi	r24, 0x78	; 120
    4fd4:	11 f0       	breq	.+4      	; 0x4fda <vfprintf+0x524>
    4fd6:	be c0       	rjmp	.+380    	; 0x5154 <vfprintf+0x69e>
    4fd8:	00 61       	ori	r16, 0x10	; 16
    4fda:	04 ff       	sbrs	r16, 4
    4fdc:	09 c0       	rjmp	.+18     	; 0x4ff0 <vfprintf+0x53a>
    4fde:	04 60       	ori	r16, 0x04	; 4
    4fe0:	07 c0       	rjmp	.+14     	; 0x4ff0 <vfprintf+0x53a>
    4fe2:	94 fe       	sbrs	r9, 4
    4fe4:	08 c0       	rjmp	.+16     	; 0x4ff6 <vfprintf+0x540>
    4fe6:	06 60       	ori	r16, 0x06	; 6
    4fe8:	06 c0       	rjmp	.+12     	; 0x4ff6 <vfprintf+0x540>
    4fea:	28 e0       	ldi	r18, 0x08	; 8
    4fec:	30 e0       	ldi	r19, 0x00	; 0
    4fee:	05 c0       	rjmp	.+10     	; 0x4ffa <vfprintf+0x544>
    4ff0:	20 e1       	ldi	r18, 0x10	; 16
    4ff2:	30 e0       	ldi	r19, 0x00	; 0
    4ff4:	02 c0       	rjmp	.+4      	; 0x4ffa <vfprintf+0x544>
    4ff6:	20 e1       	ldi	r18, 0x10	; 16
    4ff8:	32 e0       	ldi	r19, 0x02	; 2
    4ffa:	56 01       	movw	r10, r12
    4ffc:	07 ff       	sbrs	r16, 7
    4ffe:	09 c0       	rjmp	.+18     	; 0x5012 <vfprintf+0x55c>
    5000:	84 e0       	ldi	r24, 0x04	; 4
    5002:	a8 0e       	add	r10, r24
    5004:	b1 1c       	adc	r11, r1
    5006:	f6 01       	movw	r30, r12
    5008:	60 81       	ld	r22, Z
    500a:	71 81       	ldd	r23, Z+1	; 0x01
    500c:	82 81       	ldd	r24, Z+2	; 0x02
    500e:	93 81       	ldd	r25, Z+3	; 0x03
    5010:	08 c0       	rjmp	.+16     	; 0x5022 <vfprintf+0x56c>
    5012:	f2 e0       	ldi	r31, 0x02	; 2
    5014:	af 0e       	add	r10, r31
    5016:	b1 1c       	adc	r11, r1
    5018:	f6 01       	movw	r30, r12
    501a:	60 81       	ld	r22, Z
    501c:	71 81       	ldd	r23, Z+1	; 0x01
    501e:	80 e0       	ldi	r24, 0x00	; 0
    5020:	90 e0       	ldi	r25, 0x00	; 0
    5022:	a3 01       	movw	r20, r6
    5024:	0e 94 dc 2a 	call	0x55b8	; 0x55b8 <__ultoa_invert>
    5028:	c8 2e       	mov	r12, r24
    502a:	c6 18       	sub	r12, r6
    502c:	0f 77       	andi	r16, 0x7F	; 127
    502e:	90 2e       	mov	r9, r16
    5030:	96 fe       	sbrs	r9, 6
    5032:	0b c0       	rjmp	.+22     	; 0x504a <vfprintf+0x594>
    5034:	09 2d       	mov	r16, r9
    5036:	0e 7f       	andi	r16, 0xFE	; 254
    5038:	c1 16       	cp	r12, r17
    503a:	50 f4       	brcc	.+20     	; 0x5050 <vfprintf+0x59a>
    503c:	94 fe       	sbrs	r9, 4
    503e:	0a c0       	rjmp	.+20     	; 0x5054 <vfprintf+0x59e>
    5040:	92 fc       	sbrc	r9, 2
    5042:	08 c0       	rjmp	.+16     	; 0x5054 <vfprintf+0x59e>
    5044:	09 2d       	mov	r16, r9
    5046:	0e 7e       	andi	r16, 0xEE	; 238
    5048:	05 c0       	rjmp	.+10     	; 0x5054 <vfprintf+0x59e>
    504a:	dc 2c       	mov	r13, r12
    504c:	09 2d       	mov	r16, r9
    504e:	03 c0       	rjmp	.+6      	; 0x5056 <vfprintf+0x5a0>
    5050:	dc 2c       	mov	r13, r12
    5052:	01 c0       	rjmp	.+2      	; 0x5056 <vfprintf+0x5a0>
    5054:	d1 2e       	mov	r13, r17
    5056:	04 ff       	sbrs	r16, 4
    5058:	0d c0       	rjmp	.+26     	; 0x5074 <vfprintf+0x5be>
    505a:	fe 01       	movw	r30, r28
    505c:	ec 0d       	add	r30, r12
    505e:	f1 1d       	adc	r31, r1
    5060:	80 81       	ld	r24, Z
    5062:	80 33       	cpi	r24, 0x30	; 48
    5064:	11 f4       	brne	.+4      	; 0x506a <vfprintf+0x5b4>
    5066:	09 7e       	andi	r16, 0xE9	; 233
    5068:	09 c0       	rjmp	.+18     	; 0x507c <vfprintf+0x5c6>
    506a:	02 ff       	sbrs	r16, 2
    506c:	06 c0       	rjmp	.+12     	; 0x507a <vfprintf+0x5c4>
    506e:	d3 94       	inc	r13
    5070:	d3 94       	inc	r13
    5072:	04 c0       	rjmp	.+8      	; 0x507c <vfprintf+0x5c6>
    5074:	80 2f       	mov	r24, r16
    5076:	86 78       	andi	r24, 0x86	; 134
    5078:	09 f0       	breq	.+2      	; 0x507c <vfprintf+0x5c6>
    507a:	d3 94       	inc	r13
    507c:	03 fd       	sbrc	r16, 3
    507e:	11 c0       	rjmp	.+34     	; 0x50a2 <vfprintf+0x5ec>
    5080:	00 ff       	sbrs	r16, 0
    5082:	06 c0       	rjmp	.+12     	; 0x5090 <vfprintf+0x5da>
    5084:	1c 2d       	mov	r17, r12
    5086:	d5 14       	cp	r13, r5
    5088:	80 f4       	brcc	.+32     	; 0x50aa <vfprintf+0x5f4>
    508a:	15 0d       	add	r17, r5
    508c:	1d 19       	sub	r17, r13
    508e:	0d c0       	rjmp	.+26     	; 0x50aa <vfprintf+0x5f4>
    5090:	d5 14       	cp	r13, r5
    5092:	58 f4       	brcc	.+22     	; 0x50aa <vfprintf+0x5f4>
    5094:	b7 01       	movw	r22, r14
    5096:	80 e2       	ldi	r24, 0x20	; 32
    5098:	90 e0       	ldi	r25, 0x00	; 0
    509a:	0e 94 7e 2a 	call	0x54fc	; 0x54fc <fputc>
    509e:	d3 94       	inc	r13
    50a0:	f7 cf       	rjmp	.-18     	; 0x5090 <vfprintf+0x5da>
    50a2:	d5 14       	cp	r13, r5
    50a4:	10 f4       	brcc	.+4      	; 0x50aa <vfprintf+0x5f4>
    50a6:	5d 18       	sub	r5, r13
    50a8:	01 c0       	rjmp	.+2      	; 0x50ac <vfprintf+0x5f6>
    50aa:	51 2c       	mov	r5, r1
    50ac:	04 ff       	sbrs	r16, 4
    50ae:	10 c0       	rjmp	.+32     	; 0x50d0 <vfprintf+0x61a>
    50b0:	b7 01       	movw	r22, r14
    50b2:	80 e3       	ldi	r24, 0x30	; 48
    50b4:	90 e0       	ldi	r25, 0x00	; 0
    50b6:	0e 94 7e 2a 	call	0x54fc	; 0x54fc <fputc>
    50ba:	02 ff       	sbrs	r16, 2
    50bc:	17 c0       	rjmp	.+46     	; 0x50ec <vfprintf+0x636>
    50be:	01 fd       	sbrc	r16, 1
    50c0:	03 c0       	rjmp	.+6      	; 0x50c8 <vfprintf+0x612>
    50c2:	88 e7       	ldi	r24, 0x78	; 120
    50c4:	90 e0       	ldi	r25, 0x00	; 0
    50c6:	02 c0       	rjmp	.+4      	; 0x50cc <vfprintf+0x616>
    50c8:	88 e5       	ldi	r24, 0x58	; 88
    50ca:	90 e0       	ldi	r25, 0x00	; 0
    50cc:	b7 01       	movw	r22, r14
    50ce:	0c c0       	rjmp	.+24     	; 0x50e8 <vfprintf+0x632>
    50d0:	80 2f       	mov	r24, r16
    50d2:	86 78       	andi	r24, 0x86	; 134
    50d4:	59 f0       	breq	.+22     	; 0x50ec <vfprintf+0x636>
    50d6:	01 ff       	sbrs	r16, 1
    50d8:	02 c0       	rjmp	.+4      	; 0x50de <vfprintf+0x628>
    50da:	8b e2       	ldi	r24, 0x2B	; 43
    50dc:	01 c0       	rjmp	.+2      	; 0x50e0 <vfprintf+0x62a>
    50de:	80 e2       	ldi	r24, 0x20	; 32
    50e0:	07 fd       	sbrc	r16, 7
    50e2:	8d e2       	ldi	r24, 0x2D	; 45
    50e4:	b7 01       	movw	r22, r14
    50e6:	90 e0       	ldi	r25, 0x00	; 0
    50e8:	0e 94 7e 2a 	call	0x54fc	; 0x54fc <fputc>
    50ec:	c1 16       	cp	r12, r17
    50ee:	38 f4       	brcc	.+14     	; 0x50fe <vfprintf+0x648>
    50f0:	b7 01       	movw	r22, r14
    50f2:	80 e3       	ldi	r24, 0x30	; 48
    50f4:	90 e0       	ldi	r25, 0x00	; 0
    50f6:	0e 94 7e 2a 	call	0x54fc	; 0x54fc <fputc>
    50fa:	11 50       	subi	r17, 0x01	; 1
    50fc:	f7 cf       	rjmp	.-18     	; 0x50ec <vfprintf+0x636>
    50fe:	ca 94       	dec	r12
    5100:	f3 01       	movw	r30, r6
    5102:	ec 0d       	add	r30, r12
    5104:	f1 1d       	adc	r31, r1
    5106:	80 81       	ld	r24, Z
    5108:	b7 01       	movw	r22, r14
    510a:	90 e0       	ldi	r25, 0x00	; 0
    510c:	0e 94 7e 2a 	call	0x54fc	; 0x54fc <fputc>
    5110:	c1 10       	cpse	r12, r1
    5112:	f5 cf       	rjmp	.-22     	; 0x50fe <vfprintf+0x648>
    5114:	15 c0       	rjmp	.+42     	; 0x5140 <vfprintf+0x68a>
    5116:	f4 e0       	ldi	r31, 0x04	; 4
    5118:	f5 15       	cp	r31, r5
    511a:	60 f5       	brcc	.+88     	; 0x5174 <vfprintf+0x6be>
    511c:	84 e0       	ldi	r24, 0x04	; 4
    511e:	58 1a       	sub	r5, r24
    5120:	93 fe       	sbrs	r9, 3
    5122:	1f c0       	rjmp	.+62     	; 0x5162 <vfprintf+0x6ac>
    5124:	01 11       	cpse	r16, r1
    5126:	27 c0       	rjmp	.+78     	; 0x5176 <vfprintf+0x6c0>
    5128:	2c 85       	ldd	r18, Y+12	; 0x0c
    512a:	23 ff       	sbrs	r18, 3
    512c:	2a c0       	rjmp	.+84     	; 0x5182 <vfprintf+0x6cc>
    512e:	0c ee       	ldi	r16, 0xEC	; 236
    5130:	12 e0       	ldi	r17, 0x02	; 2
    5132:	39 2d       	mov	r19, r9
    5134:	30 71       	andi	r19, 0x10	; 16
    5136:	93 2e       	mov	r9, r19
    5138:	f8 01       	movw	r30, r16
    513a:	84 91       	lpm	r24, Z
    513c:	81 11       	cpse	r24, r1
    513e:	24 c0       	rjmp	.+72     	; 0x5188 <vfprintf+0x6d2>
    5140:	55 20       	and	r5, r5
    5142:	09 f4       	brne	.+2      	; 0x5146 <vfprintf+0x690>
    5144:	e4 cc       	rjmp	.-1592   	; 0x4b0e <vfprintf+0x58>
    5146:	b7 01       	movw	r22, r14
    5148:	80 e2       	ldi	r24, 0x20	; 32
    514a:	90 e0       	ldi	r25, 0x00	; 0
    514c:	0e 94 7e 2a 	call	0x54fc	; 0x54fc <fputc>
    5150:	5a 94       	dec	r5
    5152:	f6 cf       	rjmp	.-20     	; 0x5140 <vfprintf+0x68a>
    5154:	f7 01       	movw	r30, r14
    5156:	86 81       	ldd	r24, Z+6	; 0x06
    5158:	97 81       	ldd	r25, Z+7	; 0x07
    515a:	26 c0       	rjmp	.+76     	; 0x51a8 <vfprintf+0x6f2>
    515c:	8f ef       	ldi	r24, 0xFF	; 255
    515e:	9f ef       	ldi	r25, 0xFF	; 255
    5160:	23 c0       	rjmp	.+70     	; 0x51a8 <vfprintf+0x6f2>
    5162:	b7 01       	movw	r22, r14
    5164:	80 e2       	ldi	r24, 0x20	; 32
    5166:	90 e0       	ldi	r25, 0x00	; 0
    5168:	0e 94 7e 2a 	call	0x54fc	; 0x54fc <fputc>
    516c:	5a 94       	dec	r5
    516e:	51 10       	cpse	r5, r1
    5170:	f8 cf       	rjmp	.-16     	; 0x5162 <vfprintf+0x6ac>
    5172:	d8 cf       	rjmp	.-80     	; 0x5124 <vfprintf+0x66e>
    5174:	51 2c       	mov	r5, r1
    5176:	b7 01       	movw	r22, r14
    5178:	80 2f       	mov	r24, r16
    517a:	90 e0       	ldi	r25, 0x00	; 0
    517c:	0e 94 7e 2a 	call	0x54fc	; 0x54fc <fputc>
    5180:	d3 cf       	rjmp	.-90     	; 0x5128 <vfprintf+0x672>
    5182:	00 ef       	ldi	r16, 0xF0	; 240
    5184:	12 e0       	ldi	r17, 0x02	; 2
    5186:	d5 cf       	rjmp	.-86     	; 0x5132 <vfprintf+0x67c>
    5188:	91 10       	cpse	r9, r1
    518a:	80 52       	subi	r24, 0x20	; 32
    518c:	b7 01       	movw	r22, r14
    518e:	90 e0       	ldi	r25, 0x00	; 0
    5190:	0e 94 7e 2a 	call	0x54fc	; 0x54fc <fputc>
    5194:	0f 5f       	subi	r16, 0xFF	; 255
    5196:	1f 4f       	sbci	r17, 0xFF	; 255
    5198:	cf cf       	rjmp	.-98     	; 0x5138 <vfprintf+0x682>
    519a:	23 e0       	ldi	r18, 0x03	; 3
    519c:	25 15       	cp	r18, r5
    519e:	10 f4       	brcc	.+4      	; 0x51a4 <vfprintf+0x6ee>
    51a0:	83 e0       	ldi	r24, 0x03	; 3
    51a2:	bd cf       	rjmp	.-134    	; 0x511e <vfprintf+0x668>
    51a4:	51 2c       	mov	r5, r1
    51a6:	c0 cf       	rjmp	.-128    	; 0x5128 <vfprintf+0x672>
    51a8:	60 96       	adiw	r28, 0x10	; 16
    51aa:	e2 e1       	ldi	r30, 0x12	; 18
    51ac:	0c 94 37 29 	jmp	0x526e	; 0x526e <__epilogue_restores__>

000051b0 <__mulsi3>:
    51b0:	db 01       	movw	r26, r22
    51b2:	8f 93       	push	r24
    51b4:	9f 93       	push	r25
    51b6:	0e 94 10 29 	call	0x5220	; 0x5220 <__muluhisi3>
    51ba:	bf 91       	pop	r27
    51bc:	af 91       	pop	r26
    51be:	a2 9f       	mul	r26, r18
    51c0:	80 0d       	add	r24, r0
    51c2:	91 1d       	adc	r25, r1
    51c4:	a3 9f       	mul	r26, r19
    51c6:	90 0d       	add	r25, r0
    51c8:	b2 9f       	mul	r27, r18
    51ca:	90 0d       	add	r25, r0
    51cc:	11 24       	eor	r1, r1
    51ce:	08 95       	ret

000051d0 <__udivmodsi4>:
    51d0:	a1 e2       	ldi	r26, 0x21	; 33
    51d2:	1a 2e       	mov	r1, r26
    51d4:	aa 1b       	sub	r26, r26
    51d6:	bb 1b       	sub	r27, r27
    51d8:	fd 01       	movw	r30, r26
    51da:	0d c0       	rjmp	.+26     	; 0x51f6 <__udivmodsi4_ep>

000051dc <__udivmodsi4_loop>:
    51dc:	aa 1f       	adc	r26, r26
    51de:	bb 1f       	adc	r27, r27
    51e0:	ee 1f       	adc	r30, r30
    51e2:	ff 1f       	adc	r31, r31
    51e4:	a2 17       	cp	r26, r18
    51e6:	b3 07       	cpc	r27, r19
    51e8:	e4 07       	cpc	r30, r20
    51ea:	f5 07       	cpc	r31, r21
    51ec:	20 f0       	brcs	.+8      	; 0x51f6 <__udivmodsi4_ep>
    51ee:	a2 1b       	sub	r26, r18
    51f0:	b3 0b       	sbc	r27, r19
    51f2:	e4 0b       	sbc	r30, r20
    51f4:	f5 0b       	sbc	r31, r21

000051f6 <__udivmodsi4_ep>:
    51f6:	66 1f       	adc	r22, r22
    51f8:	77 1f       	adc	r23, r23
    51fa:	88 1f       	adc	r24, r24
    51fc:	99 1f       	adc	r25, r25
    51fe:	1a 94       	dec	r1
    5200:	69 f7       	brne	.-38     	; 0x51dc <__udivmodsi4_loop>
    5202:	60 95       	com	r22
    5204:	70 95       	com	r23
    5206:	80 95       	com	r24
    5208:	90 95       	com	r25
    520a:	9b 01       	movw	r18, r22
    520c:	ac 01       	movw	r20, r24
    520e:	bd 01       	movw	r22, r26
    5210:	cf 01       	movw	r24, r30
    5212:	08 95       	ret

00005214 <__tablejump2__>:
    5214:	ee 0f       	add	r30, r30
    5216:	ff 1f       	adc	r31, r31
    5218:	05 90       	lpm	r0, Z+
    521a:	f4 91       	lpm	r31, Z
    521c:	e0 2d       	mov	r30, r0
    521e:	09 94       	ijmp

00005220 <__muluhisi3>:
    5220:	0e 94 52 29 	call	0x52a4	; 0x52a4 <__umulhisi3>
    5224:	a5 9f       	mul	r26, r21
    5226:	90 0d       	add	r25, r0
    5228:	b4 9f       	mul	r27, r20
    522a:	90 0d       	add	r25, r0
    522c:	a4 9f       	mul	r26, r20
    522e:	80 0d       	add	r24, r0
    5230:	91 1d       	adc	r25, r1
    5232:	11 24       	eor	r1, r1
    5234:	08 95       	ret

00005236 <__prologue_saves__>:
    5236:	2f 92       	push	r2
    5238:	3f 92       	push	r3
    523a:	4f 92       	push	r4
    523c:	5f 92       	push	r5
    523e:	6f 92       	push	r6
    5240:	7f 92       	push	r7
    5242:	8f 92       	push	r8
    5244:	9f 92       	push	r9
    5246:	af 92       	push	r10
    5248:	bf 92       	push	r11
    524a:	cf 92       	push	r12
    524c:	df 92       	push	r13
    524e:	ef 92       	push	r14
    5250:	ff 92       	push	r15
    5252:	0f 93       	push	r16
    5254:	1f 93       	push	r17
    5256:	cf 93       	push	r28
    5258:	df 93       	push	r29
    525a:	cd b7       	in	r28, 0x3d	; 61
    525c:	de b7       	in	r29, 0x3e	; 62
    525e:	ca 1b       	sub	r28, r26
    5260:	db 0b       	sbc	r29, r27
    5262:	0f b6       	in	r0, 0x3f	; 63
    5264:	f8 94       	cli
    5266:	de bf       	out	0x3e, r29	; 62
    5268:	0f be       	out	0x3f, r0	; 63
    526a:	cd bf       	out	0x3d, r28	; 61
    526c:	09 94       	ijmp

0000526e <__epilogue_restores__>:
    526e:	2a 88       	ldd	r2, Y+18	; 0x12
    5270:	39 88       	ldd	r3, Y+17	; 0x11
    5272:	48 88       	ldd	r4, Y+16	; 0x10
    5274:	5f 84       	ldd	r5, Y+15	; 0x0f
    5276:	6e 84       	ldd	r6, Y+14	; 0x0e
    5278:	7d 84       	ldd	r7, Y+13	; 0x0d
    527a:	8c 84       	ldd	r8, Y+12	; 0x0c
    527c:	9b 84       	ldd	r9, Y+11	; 0x0b
    527e:	aa 84       	ldd	r10, Y+10	; 0x0a
    5280:	b9 84       	ldd	r11, Y+9	; 0x09
    5282:	c8 84       	ldd	r12, Y+8	; 0x08
    5284:	df 80       	ldd	r13, Y+7	; 0x07
    5286:	ee 80       	ldd	r14, Y+6	; 0x06
    5288:	fd 80       	ldd	r15, Y+5	; 0x05
    528a:	0c 81       	ldd	r16, Y+4	; 0x04
    528c:	1b 81       	ldd	r17, Y+3	; 0x03
    528e:	aa 81       	ldd	r26, Y+2	; 0x02
    5290:	b9 81       	ldd	r27, Y+1	; 0x01
    5292:	ce 0f       	add	r28, r30
    5294:	d1 1d       	adc	r29, r1
    5296:	0f b6       	in	r0, 0x3f	; 63
    5298:	f8 94       	cli
    529a:	de bf       	out	0x3e, r29	; 62
    529c:	0f be       	out	0x3f, r0	; 63
    529e:	cd bf       	out	0x3d, r28	; 61
    52a0:	ed 01       	movw	r28, r26
    52a2:	08 95       	ret

000052a4 <__umulhisi3>:
    52a4:	a2 9f       	mul	r26, r18
    52a6:	b0 01       	movw	r22, r0
    52a8:	b3 9f       	mul	r27, r19
    52aa:	c0 01       	movw	r24, r0
    52ac:	a3 9f       	mul	r26, r19
    52ae:	70 0d       	add	r23, r0
    52b0:	81 1d       	adc	r24, r1
    52b2:	11 24       	eor	r1, r1
    52b4:	91 1d       	adc	r25, r1
    52b6:	b2 9f       	mul	r27, r18
    52b8:	70 0d       	add	r23, r0
    52ba:	81 1d       	adc	r24, r1
    52bc:	11 24       	eor	r1, r1
    52be:	91 1d       	adc	r25, r1
    52c0:	08 95       	ret

000052c2 <atoi>:
    52c2:	fc 01       	movw	r30, r24
    52c4:	88 27       	eor	r24, r24
    52c6:	99 27       	eor	r25, r25
    52c8:	e8 94       	clt
    52ca:	21 91       	ld	r18, Z+
    52cc:	20 32       	cpi	r18, 0x20	; 32
    52ce:	e9 f3       	breq	.-6      	; 0x52ca <atoi+0x8>
    52d0:	29 30       	cpi	r18, 0x09	; 9
    52d2:	10 f0       	brcs	.+4      	; 0x52d8 <atoi+0x16>
    52d4:	2e 30       	cpi	r18, 0x0E	; 14
    52d6:	c8 f3       	brcs	.-14     	; 0x52ca <atoi+0x8>
    52d8:	2b 32       	cpi	r18, 0x2B	; 43
    52da:	41 f0       	breq	.+16     	; 0x52ec <atoi+0x2a>
    52dc:	2d 32       	cpi	r18, 0x2D	; 45
    52de:	39 f4       	brne	.+14     	; 0x52ee <atoi+0x2c>
    52e0:	68 94       	set
    52e2:	04 c0       	rjmp	.+8      	; 0x52ec <atoi+0x2a>
    52e4:	0e 94 76 2a 	call	0x54ec	; 0x54ec <__mulhi_const_10>
    52e8:	82 0f       	add	r24, r18
    52ea:	91 1d       	adc	r25, r1
    52ec:	21 91       	ld	r18, Z+
    52ee:	20 53       	subi	r18, 0x30	; 48
    52f0:	2a 30       	cpi	r18, 0x0A	; 10
    52f2:	c0 f3       	brcs	.-16     	; 0x52e4 <atoi+0x22>
    52f4:	1e f4       	brtc	.+6      	; 0x52fc <atoi+0x3a>
    52f6:	90 95       	com	r25
    52f8:	81 95       	neg	r24
    52fa:	9f 4f       	sbci	r25, 0xFF	; 255
    52fc:	08 95       	ret

000052fe <__ftoa_engine>:
    52fe:	28 30       	cpi	r18, 0x08	; 8
    5300:	08 f0       	brcs	.+2      	; 0x5304 <__ftoa_engine+0x6>
    5302:	27 e0       	ldi	r18, 0x07	; 7
    5304:	33 27       	eor	r19, r19
    5306:	da 01       	movw	r26, r20
    5308:	99 0f       	add	r25, r25
    530a:	31 1d       	adc	r19, r1
    530c:	87 fd       	sbrc	r24, 7
    530e:	91 60       	ori	r25, 0x01	; 1
    5310:	00 96       	adiw	r24, 0x00	; 0
    5312:	61 05       	cpc	r22, r1
    5314:	71 05       	cpc	r23, r1
    5316:	39 f4       	brne	.+14     	; 0x5326 <__ftoa_engine+0x28>
    5318:	32 60       	ori	r19, 0x02	; 2
    531a:	2e 5f       	subi	r18, 0xFE	; 254
    531c:	3d 93       	st	X+, r19
    531e:	30 e3       	ldi	r19, 0x30	; 48
    5320:	2a 95       	dec	r18
    5322:	e1 f7       	brne	.-8      	; 0x531c <__ftoa_engine+0x1e>
    5324:	08 95       	ret
    5326:	9f 3f       	cpi	r25, 0xFF	; 255
    5328:	30 f0       	brcs	.+12     	; 0x5336 <__ftoa_engine+0x38>
    532a:	80 38       	cpi	r24, 0x80	; 128
    532c:	71 05       	cpc	r23, r1
    532e:	61 05       	cpc	r22, r1
    5330:	09 f0       	breq	.+2      	; 0x5334 <__ftoa_engine+0x36>
    5332:	3c 5f       	subi	r19, 0xFC	; 252
    5334:	3c 5f       	subi	r19, 0xFC	; 252
    5336:	3d 93       	st	X+, r19
    5338:	91 30       	cpi	r25, 0x01	; 1
    533a:	08 f0       	brcs	.+2      	; 0x533e <__ftoa_engine+0x40>
    533c:	80 68       	ori	r24, 0x80	; 128
    533e:	91 1d       	adc	r25, r1
    5340:	df 93       	push	r29
    5342:	cf 93       	push	r28
    5344:	1f 93       	push	r17
    5346:	0f 93       	push	r16
    5348:	ff 92       	push	r15
    534a:	ef 92       	push	r14
    534c:	19 2f       	mov	r17, r25
    534e:	98 7f       	andi	r25, 0xF8	; 248
    5350:	96 95       	lsr	r25
    5352:	e9 2f       	mov	r30, r25
    5354:	96 95       	lsr	r25
    5356:	96 95       	lsr	r25
    5358:	e9 0f       	add	r30, r25
    535a:	ff 27       	eor	r31, r31
    535c:	e2 5b       	subi	r30, 0xB2	; 178
    535e:	fc 4f       	sbci	r31, 0xFC	; 252
    5360:	99 27       	eor	r25, r25
    5362:	33 27       	eor	r19, r19
    5364:	ee 24       	eor	r14, r14
    5366:	ff 24       	eor	r15, r15
    5368:	a7 01       	movw	r20, r14
    536a:	e7 01       	movw	r28, r14
    536c:	05 90       	lpm	r0, Z+
    536e:	08 94       	sec
    5370:	07 94       	ror	r0
    5372:	28 f4       	brcc	.+10     	; 0x537e <__ftoa_engine+0x80>
    5374:	36 0f       	add	r19, r22
    5376:	e7 1e       	adc	r14, r23
    5378:	f8 1e       	adc	r15, r24
    537a:	49 1f       	adc	r20, r25
    537c:	51 1d       	adc	r21, r1
    537e:	66 0f       	add	r22, r22
    5380:	77 1f       	adc	r23, r23
    5382:	88 1f       	adc	r24, r24
    5384:	99 1f       	adc	r25, r25
    5386:	06 94       	lsr	r0
    5388:	a1 f7       	brne	.-24     	; 0x5372 <__ftoa_engine+0x74>
    538a:	05 90       	lpm	r0, Z+
    538c:	07 94       	ror	r0
    538e:	28 f4       	brcc	.+10     	; 0x539a <__ftoa_engine+0x9c>
    5390:	e7 0e       	add	r14, r23
    5392:	f8 1e       	adc	r15, r24
    5394:	49 1f       	adc	r20, r25
    5396:	56 1f       	adc	r21, r22
    5398:	c1 1d       	adc	r28, r1
    539a:	77 0f       	add	r23, r23
    539c:	88 1f       	adc	r24, r24
    539e:	99 1f       	adc	r25, r25
    53a0:	66 1f       	adc	r22, r22
    53a2:	06 94       	lsr	r0
    53a4:	a1 f7       	brne	.-24     	; 0x538e <__ftoa_engine+0x90>
    53a6:	05 90       	lpm	r0, Z+
    53a8:	07 94       	ror	r0
    53aa:	28 f4       	brcc	.+10     	; 0x53b6 <__ftoa_engine+0xb8>
    53ac:	f8 0e       	add	r15, r24
    53ae:	49 1f       	adc	r20, r25
    53b0:	56 1f       	adc	r21, r22
    53b2:	c7 1f       	adc	r28, r23
    53b4:	d1 1d       	adc	r29, r1
    53b6:	88 0f       	add	r24, r24
    53b8:	99 1f       	adc	r25, r25
    53ba:	66 1f       	adc	r22, r22
    53bc:	77 1f       	adc	r23, r23
    53be:	06 94       	lsr	r0
    53c0:	a1 f7       	brne	.-24     	; 0x53aa <__ftoa_engine+0xac>
    53c2:	05 90       	lpm	r0, Z+
    53c4:	07 94       	ror	r0
    53c6:	20 f4       	brcc	.+8      	; 0x53d0 <__ftoa_engine+0xd2>
    53c8:	49 0f       	add	r20, r25
    53ca:	56 1f       	adc	r21, r22
    53cc:	c7 1f       	adc	r28, r23
    53ce:	d8 1f       	adc	r29, r24
    53d0:	99 0f       	add	r25, r25
    53d2:	66 1f       	adc	r22, r22
    53d4:	77 1f       	adc	r23, r23
    53d6:	88 1f       	adc	r24, r24
    53d8:	06 94       	lsr	r0
    53da:	a9 f7       	brne	.-22     	; 0x53c6 <__ftoa_engine+0xc8>
    53dc:	84 91       	lpm	r24, Z
    53de:	10 95       	com	r17
    53e0:	17 70       	andi	r17, 0x07	; 7
    53e2:	41 f0       	breq	.+16     	; 0x53f4 <__ftoa_engine+0xf6>
    53e4:	d6 95       	lsr	r29
    53e6:	c7 95       	ror	r28
    53e8:	57 95       	ror	r21
    53ea:	47 95       	ror	r20
    53ec:	f7 94       	ror	r15
    53ee:	e7 94       	ror	r14
    53f0:	1a 95       	dec	r17
    53f2:	c1 f7       	brne	.-16     	; 0x53e4 <__ftoa_engine+0xe6>
    53f4:	e4 ef       	ldi	r30, 0xF4	; 244
    53f6:	f2 e0       	ldi	r31, 0x02	; 2
    53f8:	68 94       	set
    53fa:	15 90       	lpm	r1, Z+
    53fc:	15 91       	lpm	r17, Z+
    53fe:	35 91       	lpm	r19, Z+
    5400:	65 91       	lpm	r22, Z+
    5402:	95 91       	lpm	r25, Z+
    5404:	05 90       	lpm	r0, Z+
    5406:	7f e2       	ldi	r23, 0x2F	; 47
    5408:	73 95       	inc	r23
    540a:	e1 18       	sub	r14, r1
    540c:	f1 0a       	sbc	r15, r17
    540e:	43 0b       	sbc	r20, r19
    5410:	56 0b       	sbc	r21, r22
    5412:	c9 0b       	sbc	r28, r25
    5414:	d0 09       	sbc	r29, r0
    5416:	c0 f7       	brcc	.-16     	; 0x5408 <__ftoa_engine+0x10a>
    5418:	e1 0c       	add	r14, r1
    541a:	f1 1e       	adc	r15, r17
    541c:	43 1f       	adc	r20, r19
    541e:	56 1f       	adc	r21, r22
    5420:	c9 1f       	adc	r28, r25
    5422:	d0 1d       	adc	r29, r0
    5424:	7e f4       	brtc	.+30     	; 0x5444 <__ftoa_engine+0x146>
    5426:	70 33       	cpi	r23, 0x30	; 48
    5428:	11 f4       	brne	.+4      	; 0x542e <__ftoa_engine+0x130>
    542a:	8a 95       	dec	r24
    542c:	e6 cf       	rjmp	.-52     	; 0x53fa <__ftoa_engine+0xfc>
    542e:	e8 94       	clt
    5430:	01 50       	subi	r16, 0x01	; 1
    5432:	30 f0       	brcs	.+12     	; 0x5440 <__ftoa_engine+0x142>
    5434:	08 0f       	add	r16, r24
    5436:	0a f4       	brpl	.+2      	; 0x543a <__ftoa_engine+0x13c>
    5438:	00 27       	eor	r16, r16
    543a:	02 17       	cp	r16, r18
    543c:	08 f4       	brcc	.+2      	; 0x5440 <__ftoa_engine+0x142>
    543e:	20 2f       	mov	r18, r16
    5440:	23 95       	inc	r18
    5442:	02 2f       	mov	r16, r18
    5444:	7a 33       	cpi	r23, 0x3A	; 58
    5446:	28 f0       	brcs	.+10     	; 0x5452 <__ftoa_engine+0x154>
    5448:	79 e3       	ldi	r23, 0x39	; 57
    544a:	7d 93       	st	X+, r23
    544c:	2a 95       	dec	r18
    544e:	e9 f7       	brne	.-6      	; 0x544a <__ftoa_engine+0x14c>
    5450:	10 c0       	rjmp	.+32     	; 0x5472 <__ftoa_engine+0x174>
    5452:	7d 93       	st	X+, r23
    5454:	2a 95       	dec	r18
    5456:	89 f6       	brne	.-94     	; 0x53fa <__ftoa_engine+0xfc>
    5458:	06 94       	lsr	r0
    545a:	97 95       	ror	r25
    545c:	67 95       	ror	r22
    545e:	37 95       	ror	r19
    5460:	17 95       	ror	r17
    5462:	17 94       	ror	r1
    5464:	e1 18       	sub	r14, r1
    5466:	f1 0a       	sbc	r15, r17
    5468:	43 0b       	sbc	r20, r19
    546a:	56 0b       	sbc	r21, r22
    546c:	c9 0b       	sbc	r28, r25
    546e:	d0 09       	sbc	r29, r0
    5470:	98 f0       	brcs	.+38     	; 0x5498 <__ftoa_engine+0x19a>
    5472:	23 95       	inc	r18
    5474:	7e 91       	ld	r23, -X
    5476:	73 95       	inc	r23
    5478:	7a 33       	cpi	r23, 0x3A	; 58
    547a:	08 f0       	brcs	.+2      	; 0x547e <__ftoa_engine+0x180>
    547c:	70 e3       	ldi	r23, 0x30	; 48
    547e:	7c 93       	st	X, r23
    5480:	20 13       	cpse	r18, r16
    5482:	b8 f7       	brcc	.-18     	; 0x5472 <__ftoa_engine+0x174>
    5484:	7e 91       	ld	r23, -X
    5486:	70 61       	ori	r23, 0x10	; 16
    5488:	7d 93       	st	X+, r23
    548a:	30 f0       	brcs	.+12     	; 0x5498 <__ftoa_engine+0x19a>
    548c:	83 95       	inc	r24
    548e:	71 e3       	ldi	r23, 0x31	; 49
    5490:	7d 93       	st	X+, r23
    5492:	70 e3       	ldi	r23, 0x30	; 48
    5494:	2a 95       	dec	r18
    5496:	e1 f7       	brne	.-8      	; 0x5490 <__ftoa_engine+0x192>
    5498:	11 24       	eor	r1, r1
    549a:	ef 90       	pop	r14
    549c:	ff 90       	pop	r15
    549e:	0f 91       	pop	r16
    54a0:	1f 91       	pop	r17
    54a2:	cf 91       	pop	r28
    54a4:	df 91       	pop	r29
    54a6:	99 27       	eor	r25, r25
    54a8:	87 fd       	sbrc	r24, 7
    54aa:	90 95       	com	r25
    54ac:	08 95       	ret

000054ae <strnlen_P>:
    54ae:	fc 01       	movw	r30, r24
    54b0:	05 90       	lpm	r0, Z+
    54b2:	61 50       	subi	r22, 0x01	; 1
    54b4:	70 40       	sbci	r23, 0x00	; 0
    54b6:	01 10       	cpse	r0, r1
    54b8:	d8 f7       	brcc	.-10     	; 0x54b0 <strnlen_P+0x2>
    54ba:	80 95       	com	r24
    54bc:	90 95       	com	r25
    54be:	8e 0f       	add	r24, r30
    54c0:	9f 1f       	adc	r25, r31
    54c2:	08 95       	ret

000054c4 <strcmp>:
    54c4:	fb 01       	movw	r30, r22
    54c6:	dc 01       	movw	r26, r24
    54c8:	8d 91       	ld	r24, X+
    54ca:	01 90       	ld	r0, Z+
    54cc:	80 19       	sub	r24, r0
    54ce:	01 10       	cpse	r0, r1
    54d0:	d9 f3       	breq	.-10     	; 0x54c8 <strcmp+0x4>
    54d2:	99 0b       	sbc	r25, r25
    54d4:	08 95       	ret

000054d6 <strnlen>:
    54d6:	fc 01       	movw	r30, r24
    54d8:	61 50       	subi	r22, 0x01	; 1
    54da:	70 40       	sbci	r23, 0x00	; 0
    54dc:	01 90       	ld	r0, Z+
    54de:	01 10       	cpse	r0, r1
    54e0:	d8 f7       	brcc	.-10     	; 0x54d8 <strnlen+0x2>
    54e2:	80 95       	com	r24
    54e4:	90 95       	com	r25
    54e6:	8e 0f       	add	r24, r30
    54e8:	9f 1f       	adc	r25, r31
    54ea:	08 95       	ret

000054ec <__mulhi_const_10>:
    54ec:	7a e0       	ldi	r23, 0x0A	; 10
    54ee:	97 9f       	mul	r25, r23
    54f0:	90 2d       	mov	r25, r0
    54f2:	87 9f       	mul	r24, r23
    54f4:	80 2d       	mov	r24, r0
    54f6:	91 0d       	add	r25, r1
    54f8:	11 24       	eor	r1, r1
    54fa:	08 95       	ret

000054fc <fputc>:
    54fc:	0f 93       	push	r16
    54fe:	1f 93       	push	r17
    5500:	cf 93       	push	r28
    5502:	df 93       	push	r29
    5504:	fb 01       	movw	r30, r22
    5506:	23 81       	ldd	r18, Z+3	; 0x03
    5508:	21 fd       	sbrc	r18, 1
    550a:	03 c0       	rjmp	.+6      	; 0x5512 <fputc+0x16>
    550c:	8f ef       	ldi	r24, 0xFF	; 255
    550e:	9f ef       	ldi	r25, 0xFF	; 255
    5510:	2c c0       	rjmp	.+88     	; 0x556a <fputc+0x6e>
    5512:	22 ff       	sbrs	r18, 2
    5514:	16 c0       	rjmp	.+44     	; 0x5542 <fputc+0x46>
    5516:	46 81       	ldd	r20, Z+6	; 0x06
    5518:	57 81       	ldd	r21, Z+7	; 0x07
    551a:	24 81       	ldd	r18, Z+4	; 0x04
    551c:	35 81       	ldd	r19, Z+5	; 0x05
    551e:	42 17       	cp	r20, r18
    5520:	53 07       	cpc	r21, r19
    5522:	44 f4       	brge	.+16     	; 0x5534 <fputc+0x38>
    5524:	a0 81       	ld	r26, Z
    5526:	b1 81       	ldd	r27, Z+1	; 0x01
    5528:	9d 01       	movw	r18, r26
    552a:	2f 5f       	subi	r18, 0xFF	; 255
    552c:	3f 4f       	sbci	r19, 0xFF	; 255
    552e:	31 83       	std	Z+1, r19	; 0x01
    5530:	20 83       	st	Z, r18
    5532:	8c 93       	st	X, r24
    5534:	26 81       	ldd	r18, Z+6	; 0x06
    5536:	37 81       	ldd	r19, Z+7	; 0x07
    5538:	2f 5f       	subi	r18, 0xFF	; 255
    553a:	3f 4f       	sbci	r19, 0xFF	; 255
    553c:	37 83       	std	Z+7, r19	; 0x07
    553e:	26 83       	std	Z+6, r18	; 0x06
    5540:	14 c0       	rjmp	.+40     	; 0x556a <fputc+0x6e>
    5542:	8b 01       	movw	r16, r22
    5544:	ec 01       	movw	r28, r24
    5546:	fb 01       	movw	r30, r22
    5548:	00 84       	ldd	r0, Z+8	; 0x08
    554a:	f1 85       	ldd	r31, Z+9	; 0x09
    554c:	e0 2d       	mov	r30, r0
    554e:	09 95       	icall
    5550:	89 2b       	or	r24, r25
    5552:	e1 f6       	brne	.-72     	; 0x550c <fputc+0x10>
    5554:	d8 01       	movw	r26, r16
    5556:	16 96       	adiw	r26, 0x06	; 6
    5558:	8d 91       	ld	r24, X+
    555a:	9c 91       	ld	r25, X
    555c:	17 97       	sbiw	r26, 0x07	; 7
    555e:	01 96       	adiw	r24, 0x01	; 1
    5560:	17 96       	adiw	r26, 0x07	; 7
    5562:	9c 93       	st	X, r25
    5564:	8e 93       	st	-X, r24
    5566:	16 97       	sbiw	r26, 0x06	; 6
    5568:	ce 01       	movw	r24, r28
    556a:	df 91       	pop	r29
    556c:	cf 91       	pop	r28
    556e:	1f 91       	pop	r17
    5570:	0f 91       	pop	r16
    5572:	08 95       	ret

00005574 <sprintf>:
    5574:	ae e0       	ldi	r26, 0x0E	; 14
    5576:	b0 e0       	ldi	r27, 0x00	; 0
    5578:	e0 ec       	ldi	r30, 0xC0	; 192
    557a:	fa e2       	ldi	r31, 0x2A	; 42
    557c:	0c 94 29 29 	jmp	0x5252	; 0x5252 <__prologue_saves__+0x1c>
    5580:	0d 89       	ldd	r16, Y+21	; 0x15
    5582:	1e 89       	ldd	r17, Y+22	; 0x16
    5584:	86 e0       	ldi	r24, 0x06	; 6
    5586:	8c 83       	std	Y+4, r24	; 0x04
    5588:	1a 83       	std	Y+2, r17	; 0x02
    558a:	09 83       	std	Y+1, r16	; 0x01
    558c:	8f ef       	ldi	r24, 0xFF	; 255
    558e:	9f e7       	ldi	r25, 0x7F	; 127
    5590:	9e 83       	std	Y+6, r25	; 0x06
    5592:	8d 83       	std	Y+5, r24	; 0x05
    5594:	ae 01       	movw	r20, r28
    5596:	47 5e       	subi	r20, 0xE7	; 231
    5598:	5f 4f       	sbci	r21, 0xFF	; 255
    559a:	6f 89       	ldd	r22, Y+23	; 0x17
    559c:	78 8d       	ldd	r23, Y+24	; 0x18
    559e:	ce 01       	movw	r24, r28
    55a0:	01 96       	adiw	r24, 0x01	; 1
    55a2:	0e 94 5b 25 	call	0x4ab6	; 0x4ab6 <vfprintf>
    55a6:	ef 81       	ldd	r30, Y+7	; 0x07
    55a8:	f8 85       	ldd	r31, Y+8	; 0x08
    55aa:	e0 0f       	add	r30, r16
    55ac:	f1 1f       	adc	r31, r17
    55ae:	10 82       	st	Z, r1
    55b0:	2e 96       	adiw	r28, 0x0e	; 14
    55b2:	e4 e0       	ldi	r30, 0x04	; 4
    55b4:	0c 94 45 29 	jmp	0x528a	; 0x528a <__epilogue_restores__+0x1c>

000055b8 <__ultoa_invert>:
    55b8:	fa 01       	movw	r30, r20
    55ba:	aa 27       	eor	r26, r26
    55bc:	28 30       	cpi	r18, 0x08	; 8
    55be:	51 f1       	breq	.+84     	; 0x5614 <__ultoa_invert+0x5c>
    55c0:	20 31       	cpi	r18, 0x10	; 16
    55c2:	81 f1       	breq	.+96     	; 0x5624 <__ultoa_invert+0x6c>
    55c4:	e8 94       	clt
    55c6:	6f 93       	push	r22
    55c8:	6e 7f       	andi	r22, 0xFE	; 254
    55ca:	6e 5f       	subi	r22, 0xFE	; 254
    55cc:	7f 4f       	sbci	r23, 0xFF	; 255
    55ce:	8f 4f       	sbci	r24, 0xFF	; 255
    55d0:	9f 4f       	sbci	r25, 0xFF	; 255
    55d2:	af 4f       	sbci	r26, 0xFF	; 255
    55d4:	b1 e0       	ldi	r27, 0x01	; 1
    55d6:	3e d0       	rcall	.+124    	; 0x5654 <__ultoa_invert+0x9c>
    55d8:	b4 e0       	ldi	r27, 0x04	; 4
    55da:	3c d0       	rcall	.+120    	; 0x5654 <__ultoa_invert+0x9c>
    55dc:	67 0f       	add	r22, r23
    55de:	78 1f       	adc	r23, r24
    55e0:	89 1f       	adc	r24, r25
    55e2:	9a 1f       	adc	r25, r26
    55e4:	a1 1d       	adc	r26, r1
    55e6:	68 0f       	add	r22, r24
    55e8:	79 1f       	adc	r23, r25
    55ea:	8a 1f       	adc	r24, r26
    55ec:	91 1d       	adc	r25, r1
    55ee:	a1 1d       	adc	r26, r1
    55f0:	6a 0f       	add	r22, r26
    55f2:	71 1d       	adc	r23, r1
    55f4:	81 1d       	adc	r24, r1
    55f6:	91 1d       	adc	r25, r1
    55f8:	a1 1d       	adc	r26, r1
    55fa:	20 d0       	rcall	.+64     	; 0x563c <__ultoa_invert+0x84>
    55fc:	09 f4       	brne	.+2      	; 0x5600 <__ultoa_invert+0x48>
    55fe:	68 94       	set
    5600:	3f 91       	pop	r19
    5602:	2a e0       	ldi	r18, 0x0A	; 10
    5604:	26 9f       	mul	r18, r22
    5606:	11 24       	eor	r1, r1
    5608:	30 19       	sub	r19, r0
    560a:	30 5d       	subi	r19, 0xD0	; 208
    560c:	31 93       	st	Z+, r19
    560e:	de f6       	brtc	.-74     	; 0x55c6 <__ultoa_invert+0xe>
    5610:	cf 01       	movw	r24, r30
    5612:	08 95       	ret
    5614:	46 2f       	mov	r20, r22
    5616:	47 70       	andi	r20, 0x07	; 7
    5618:	40 5d       	subi	r20, 0xD0	; 208
    561a:	41 93       	st	Z+, r20
    561c:	b3 e0       	ldi	r27, 0x03	; 3
    561e:	0f d0       	rcall	.+30     	; 0x563e <__ultoa_invert+0x86>
    5620:	c9 f7       	brne	.-14     	; 0x5614 <__ultoa_invert+0x5c>
    5622:	f6 cf       	rjmp	.-20     	; 0x5610 <__ultoa_invert+0x58>
    5624:	46 2f       	mov	r20, r22
    5626:	4f 70       	andi	r20, 0x0F	; 15
    5628:	40 5d       	subi	r20, 0xD0	; 208
    562a:	4a 33       	cpi	r20, 0x3A	; 58
    562c:	18 f0       	brcs	.+6      	; 0x5634 <__ultoa_invert+0x7c>
    562e:	49 5d       	subi	r20, 0xD9	; 217
    5630:	31 fd       	sbrc	r19, 1
    5632:	40 52       	subi	r20, 0x20	; 32
    5634:	41 93       	st	Z+, r20
    5636:	02 d0       	rcall	.+4      	; 0x563c <__ultoa_invert+0x84>
    5638:	a9 f7       	brne	.-22     	; 0x5624 <__ultoa_invert+0x6c>
    563a:	ea cf       	rjmp	.-44     	; 0x5610 <__ultoa_invert+0x58>
    563c:	b4 e0       	ldi	r27, 0x04	; 4
    563e:	a6 95       	lsr	r26
    5640:	97 95       	ror	r25
    5642:	87 95       	ror	r24
    5644:	77 95       	ror	r23
    5646:	67 95       	ror	r22
    5648:	ba 95       	dec	r27
    564a:	c9 f7       	brne	.-14     	; 0x563e <__ultoa_invert+0x86>
    564c:	00 97       	sbiw	r24, 0x00	; 0
    564e:	61 05       	cpc	r22, r1
    5650:	71 05       	cpc	r23, r1
    5652:	08 95       	ret
    5654:	9b 01       	movw	r18, r22
    5656:	ac 01       	movw	r20, r24
    5658:	0a 2e       	mov	r0, r26
    565a:	06 94       	lsr	r0
    565c:	57 95       	ror	r21
    565e:	47 95       	ror	r20
    5660:	37 95       	ror	r19
    5662:	27 95       	ror	r18
    5664:	ba 95       	dec	r27
    5666:	c9 f7       	brne	.-14     	; 0x565a <__ultoa_invert+0xa2>
    5668:	62 0f       	add	r22, r18
    566a:	73 1f       	adc	r23, r19
    566c:	84 1f       	adc	r24, r20
    566e:	95 1f       	adc	r25, r21
    5670:	a0 1d       	adc	r26, r0
    5672:	08 95       	ret

00005674 <_exit>:
    5674:	f8 94       	cli

00005676 <__stop_program>:
    5676:	ff cf       	rjmp	.-2      	; 0x5676 <__stop_program>
